
bloader_bp2016.elf:     file format elf32-littlearm


Disassembly of section .text:

00300000 <_start>:
  300000:	ea00000f 	b	300044 <_reset_handler>
  300004:	e59ff014 	ldr	pc, [pc, #20]	; 300020 <_undefined_instruction>
  300008:	e59ff014 	ldr	pc, [pc, #20]	; 300024 <_software_interrupt>
  30000c:	e59ff014 	ldr	pc, [pc, #20]	; 300028 <_prefetch_abort>
  300010:	e59ff014 	ldr	pc, [pc, #20]	; 30002c <_data_abort>
  300014:	e59ff014 	ldr	pc, [pc, #20]	; 300030 <_not_used>
  300018:	e59ff014 	ldr	pc, [pc, #20]	; 300034 <_irq>
  30001c:	e59ff014 	ldr	pc, [pc, #20]	; 300038 <_fiq>

00300020 <_undefined_instruction>:
  300020:	00300170 	eorseq	r0, r0, r0, ror r1

00300024 <_software_interrupt>:
  300024:	00300180 	eorseq	r0, r0, r0, lsl #3

00300028 <_prefetch_abort>:
  300028:	00300190 	mlaseq	r0, r0, r1, r0

0030002c <_data_abort>:
  30002c:	003001a0 	eorseq	r0, r0, r0, lsr #3

00300030 <_not_used>:
  300030:	003001a0 	eorseq	r0, r0, r0, lsr #3

00300034 <_irq>:
  300034:	003001d8 	ldrsbteq	r0, [r0], -r8

00300038 <_fiq>:
  300038:	003001c8 	eorseq	r0, r0, r8, asr #3
  30003c:	deadbeef 	cdple	14, 10, cr11, cr13, cr15, {7}

00300040 <_TEXT_BASE>:
  300040:	00300000 	eorseq	r0, r0, r0

00300044 <_reset_handler>:
  300044:	e10f0000 	mrs	r0, CPSR
  300048:	e3c0001f 	bic	r0, r0, #31
  30004c:	e38000d3 	orr	r0, r0, #211	; 0xd3
  300050:	e129f000 	msr	CPSR_fc, r0
  300054:	eb00001b 	bl	3000c8 <cpu_init_cp15>
  300058:	eb00003d 	bl	300154 <cpu_smp_init>

0030005c <copy_data>:
  30005c:	e59f0184 	ldr	r0, [pc, #388]	; 3001e8 <irq+0x10>
  300060:	e59f1184 	ldr	r1, [pc, #388]	; 3001ec <irq+0x14>
  300064:	e59f2184 	ldr	r2, [pc, #388]	; 3001f0 <irq+0x18>

00300068 <cpdata_1>:
  300068:	e1510002 	cmp	r1, r2
  30006c:	34903004 	ldrcc	r3, [r0], #4
  300070:	34813004 	strcc	r3, [r1], #4
  300074:	3afffffb 	bcc	300068 <cpdata_1>
  300078:	e3a02000 	mov	r2, #0
  30007c:	e1a03002 	mov	r3, r2
  300080:	e1a04002 	mov	r4, r2
  300084:	e1a05002 	mov	r5, r2
  300088:	e1a06002 	mov	r6, r2
  30008c:	e1a07002 	mov	r7, r2
  300090:	e1a08002 	mov	r8, r2
  300094:	e1a09002 	mov	r9, r2
  300098:	e1a0a002 	mov	sl, r2
  30009c:	e1a0b002 	mov	fp, r2
  3000a0:	e1a0c002 	mov	ip, r2

003000a4 <clear_bss>:
  3000a4:	e59f0148 	ldr	r0, [pc, #328]	; 3001f4 <irq+0x1c>
  3000a8:	e59f1148 	ldr	r1, [pc, #328]	; 3001f8 <irq+0x20>

003000ac <clbss_l>:
  3000ac:	e1500001 	cmp	r0, r1
  3000b0:	34802004 	strcc	r2, [r0], #4
  3000b4:	3afffffc 	bcc	3000ac <clbss_l>

003000b8 <call_board_init_f>:
  3000b8:	e3a0d9be 	mov	sp, #3112960	; 0x2f8000
  3000bc:	e3cdd007 	bic	sp, sp, #7
  3000c0:	e3a00000 	mov	r0, #0
  3000c4:	fa001239 	blx	3049b0 <boot_main>

003000c8 <cpu_init_cp15>:
  3000c8:	ee110f10 	mrc	15, 0, r0, cr1, cr0, {0}
  3000cc:	e3c00a02 	bic	r0, r0, #8192	; 0x2000
  3000d0:	e3c00007 	bic	r0, r0, #7
  3000d4:	e3c00b06 	bic	r0, r0, #6144	; 0x1800
  3000d8:	e3800a01 	orr	r0, r0, #4096	; 0x1000
  3000dc:	e3800002 	orr	r0, r0, #2
  3000e0:	ee010f10 	mcr	15, 0, r0, cr1, cr0, {0}
  3000e4:	ee110f30 	mrc	15, 0, r0, cr1, cr0, {1}
  3000e8:	e3100040 	tst	r0, #64	; 0x40
  3000ec:	03800040 	orreq	r0, r0, #64	; 0x40
  3000f0:	0e010f30 	mcreq	15, 0, r0, cr1, cr0, {1}
  3000f4:	f57ff06f 	isb	sy
  3000f8:	f57ff04f 	dsb	sy
  3000fc:	e3a00000 	mov	r0, #0
  300100:	ee080f17 	mcr	15, 0, r0, cr8, cr7, {0}
  300104:	ee070f15 	mcr	15, 0, r0, cr7, cr5, {0}
  300108:	ee070fd5 	mcr	15, 0, r0, cr7, cr5, {6}
  30010c:	ee070f9a 	mcr	15, 0, r0, cr7, cr10, {4}
  300110:	ee070f95 	mcr	15, 0, r0, cr7, cr5, {4}
  300114:	e1a0d00e 	mov	sp, lr
  300118:	eb0000ba 	bl	300408 <v7_inv_l1_l2_dcache>
  30011c:	e1a0e00d 	mov	lr, sp
  300120:	ee110f10 	mrc	15, 0, r0, cr1, cr0, {0}
  300124:	e3c00a02 	bic	r0, r0, #8192	; 0x2000
  300128:	ee010f10 	mcr	15, 0, r0, cr1, cr0, {0}
  30012c:	e59f00c8 	ldr	r0, [pc, #200]	; 3001fc <irq+0x24>
  300130:	ee0c0f10 	mcr	15, 0, r0, cr12, cr0, {0}
  300134:	ee110f50 	mrc	15, 0, r0, cr1, cr0, {2}
  300138:	e380060f 	orr	r0, r0, #15728640	; 0xf00000
  30013c:	ee010f50 	mcr	15, 0, r0, cr1, cr0, {2}
  300140:	f57ff06f 	isb	sy
  300144:	e3a00101 	mov	r0, #1073741824	; 0x40000000
  300148:	eee80a10 	vmsr	fpexc, r0
  30014c:	f57ff06f 	isb	sy
  300150:	e1a0f00e 	mov	pc, lr

00300154 <cpu_smp_init>:
  300154:	ee104fb0 	mrc	15, 0, r4, cr0, cr0, {5}
  300158:	e204400f 	and	r4, r4, #15
  30015c:	e3540000 	cmp	r4, #0
  300160:	0a000001 	beq	30016c <primary_check_wakeup_jump>

00300164 <check_jump_s>:
  300164:	e320f002 	wfe
  300168:	eafffffd 	b	300164 <check_jump_s>

0030016c <primary_check_wakeup_jump>:
  30016c:	e1a0f00e 	mov	pc, lr

00300170 <undefined_instruction>:
  300170:	e59fd088 	ldr	sp, [pc, #136]	; 300200 <irq+0x28>
  300174:	e88d1fff 	stm	sp, {r0, r1, r2, r3, r4, r5, r6, r7, r8, r9, sl, fp, ip}
  300178:	e3a01001 	mov	r1, #1
  30017c:	ea00000a 	b	3001ac <common_exception_handler>

00300180 <software_interrupt>:
  300180:	e59fd078 	ldr	sp, [pc, #120]	; 300200 <irq+0x28>
  300184:	e88d1fff 	stm	sp, {r0, r1, r2, r3, r4, r5, r6, r7, r8, r9, sl, fp, ip}
  300188:	e3a01002 	mov	r1, #2
  30018c:	ea000006 	b	3001ac <common_exception_handler>

00300190 <prefetch_abort>:
  300190:	e59fd068 	ldr	sp, [pc, #104]	; 300200 <irq+0x28>
  300194:	e88d1fff 	stm	sp, {r0, r1, r2, r3, r4, r5, r6, r7, r8, r9, sl, fp, ip}
  300198:	e3a01003 	mov	r1, #3
  30019c:	ea000002 	b	3001ac <common_exception_handler>

003001a0 <data_abort>:
  3001a0:	e59fd058 	ldr	sp, [pc, #88]	; 300200 <irq+0x28>
  3001a4:	e88d1fff 	stm	sp, {r0, r1, r2, r3, r4, r5, r6, r7, r8, r9, sl, fp, ip}
  3001a8:	e3a01004 	mov	r1, #4

003001ac <common_exception_handler>:
  3001ac:	e28d803c 	add	r8, sp, #60	; 0x3c
  3001b0:	e9486000 	stmdb	r8, {sp, lr}^
  3001b4:	e588e000 	str	lr, [r8]
  3001b8:	e14f6000 	mrs	r6, SPSR
  3001bc:	e5886004 	str	r6, [r8, #4]
  3001c0:	e1a0000d 	mov	r0, sp
  3001c4:	ea001faf 	b	308088 <__do_exception_from_arm>

003001c8 <fiq>:
  3001c8:	e59fd030 	ldr	sp, [pc, #48]	; 300200 <irq+0x28>
  3001cc:	e88d1fff 	stm	sp, {r0, r1, r2, r3, r4, r5, r6, r7, r8, r9, sl, fp, ip}
  3001d0:	e3a01007 	mov	r1, #7
  3001d4:	eafffff4 	b	3001ac <common_exception_handler>

003001d8 <irq>:
  3001d8:	e59fd020 	ldr	sp, [pc, #32]	; 300200 <irq+0x28>
  3001dc:	e88d1fff 	stm	sp, {r0, r1, r2, r3, r4, r5, r6, r7, r8, r9, sl, fp, ip}
  3001e0:	e3a01006 	mov	r1, #6
  3001e4:	eafffff0 	b	3001ac <common_exception_handler>
  3001e8:	00308090 	mlaseq	r0, r0, r0, r8
  3001ec:	00308090 	mlaseq	r0, r0, r0, r8
  3001f0:	003081b8 	ldrhteq	r8, [r0], -r8
  3001f4:	003081b8 	ldrhteq	r8, [r0], -r8
  3001f8:	0030a404 	eorseq	sl, r0, r4, lsl #8
  3001fc:	00300000 	eorseq	r0, r0, r0
  300200:	002f4fb8 			; <UNDEFINED> instruction: 0x002f4fb8
  300204:	e320f000 	nop	{0}
  300208:	e320f000 	nop	{0}
  30020c:	e320f000 	nop	{0}

00300210 <arch_timer_get_cntfrq>:
  300210:	ee1e 0f10 	mrc	15, 0, r0, cr14, cr0, {0}
  300214:	4770      	bx	lr

00300216 <arch_counter_get_cntpct>:
  300216:	ec51 0f0e 	mrrc	15, 0, r0, r1, cr14
  30021a:	4770      	bx	lr

0030021c <arch_counter_get_cntvct>:
  30021c:	ec51 0f1e 	mrrc	15, 1, r0, r1, cr14
  300220:	4770      	bx	lr

00300222 <arch_timer_starting_cpu>:
  300222:	4b19      	ldr	r3, [pc, #100]	; (300288 <arch_timer_starting_cpu+0x66>)
  300224:	681a      	ldr	r2, [r3, #0]
  300226:	2a01      	cmp	r2, #1
  300228:	d02c      	beq.n	300284 <arch_timer_starting_cpu+0x62>
  30022a:	2201      	movs	r2, #1
  30022c:	601a      	str	r2, [r3, #0]
  30022e:	ee1e 3f10 	mrc	15, 0, r3, cr14, cr0, {0}
  300232:	b913      	cbnz	r3, 30023a <arch_timer_starting_cpu+0x18>
  300234:	4b15      	ldr	r3, [pc, #84]	; (30028c <arch_timer_starting_cpu+0x6a>)
  300236:	ee0e 3f10 	mcr	15, 0, r3, cr14, cr0, {0}
  30023a:	ee1e 3f11 	mrc	15, 0, r3, cr14, cr1, {0}
  30023e:	f423 7341 	bic.w	r3, r3, #772	; 0x304
  300242:	f023 0303 	bic.w	r3, r3, #3
  300246:	f043 0303 	orr.w	r3, r3, #3
  30024a:	ee0e 3f11 	mcr	15, 0, r3, cr14, cr1, {0}
  30024e:	f44f 62fa 	mov.w	r2, #2000	; 0x7d0
  300252:	fab2 f382 	clz	r3, r2
  300256:	f1c3 0320 	rsb	r3, r3, #32
  30025a:	2b01      	cmp	r3, #1
  30025c:	dd08      	ble.n	300270 <arch_timer_starting_cpu+0x4e>
  30025e:	1e99      	subs	r1, r3, #2
  300260:	410a      	asrs	r2, r1
  300262:	07d2      	lsls	r2, r2, #31
  300264:	bf58      	it	pl
  300266:	f103 33ff 	addpl.w	r3, r3, #4294967295	; 0xffffffff
  30026a:	2b0f      	cmp	r3, #15
  30026c:	bfa8      	it	ge
  30026e:	230f      	movge	r3, #15
  300270:	ee1e 2f11 	mrc	15, 0, r2, cr14, cr1, {0}
  300274:	f022 02f0 	bic.w	r2, r2, #240	; 0xf0
  300278:	f042 0204 	orr.w	r2, r2, #4
  30027c:	ea42 1303 	orr.w	r3, r2, r3, lsl #4
  300280:	ee0e 3f11 	mcr	15, 0, r3, cr14, cr1, {0}
  300284:	2000      	movs	r0, #0
  300286:	4770      	bx	lr
  300288:	003081b8 	ldrhteq	r8, [r0], -r8
  30028c:	01312d00 	teqeq	r1, r0, lsl #26

00300290 <arch_counter_get_current>:
  300290:	b5f0      	push	{r4, r5, r6, r7, lr}
  300292:	ec51 0f0e 	mrrc	15, 0, r0, r1, cr14
  300296:	f06f 020f 	mvn.w	r2, #15
  30029a:	f04f 33ff 	mov.w	r3, #4294967295	; 0xffffffff
  30029e:	4002      	ands	r2, r0
  3002a0:	400b      	ands	r3, r1
  3002a2:	ec57 6f0e 	mrrc	15, 0, r6, r7, cr14
  3002a6:	ec55 4f0e 	mrrc	15, 0, r4, r5, cr14
  3002aa:	f06f 000f 	mvn.w	r0, #15
  3002ae:	f04f 31ff 	mov.w	r1, #4294967295	; 0xffffffff
  3002b2:	4004      	ands	r4, r0
  3002b4:	400d      	ands	r5, r1
  3002b6:	4030      	ands	r0, r6
  3002b8:	4039      	ands	r1, r7
  3002ba:	428b      	cmp	r3, r1
  3002bc:	bf08      	it	eq
  3002be:	4282      	cmpeq	r2, r0
  3002c0:	d102      	bne.n	3002c8 <arch_counter_get_current+0x38>
  3002c2:	4610      	mov	r0, r2
  3002c4:	4619      	mov	r1, r3
  3002c6:	bdf0      	pop	{r4, r5, r6, r7, pc}
  3002c8:	4620      	mov	r0, r4
  3002ca:	4629      	mov	r1, r5
  3002cc:	bdf0      	pop	{r4, r5, r6, r7, pc}
  3002ce:	bf00      	nop

003002d0 <cpu_abort_info>:
  3002d0:	b537      	push	{r0, r1, r2, r4, r5, lr}
  3002d2:	f3ef 8400 	mrs	r4, CPSR
  3002d6:	ee11 5f11 	mrc	15, 0, r5, cr1, cr1, {0}
  3002da:	f045 0501 	orr.w	r5, r5, #1
  3002de:	f3af 87f6 	cpsid	aif, #22
  3002e2:	ee01 5f11 	mcr	15, 0, r5, cr1, cr1, {0}
  3002e6:	ee16 1f10 	mrc	15, 0, r1, cr6, cr0, {0}
  3002ea:	ee15 2f10 	mrc	15, 0, r2, cr5, cr0, {0}
  3002ee:	ee16 3f50 	mrc	15, 0, r3, cr6, cr0, {2}
  3002f2:	ee15 0f30 	mrc	15, 0, r0, cr5, cr0, {1}
  3002f6:	f025 0501 	bic.w	r5, r5, #1
  3002fa:	ee01 5f11 	mcr	15, 0, r5, cr1, cr1, {0}
  3002fe:	f3bf 8f6f 	isb	sy
  300302:	f384 8900 	msr	CPSR_fc, r4
  300306:	9000      	str	r0, [sp, #0]
  300308:	4802      	ldr	r0, [pc, #8]	; (300314 <cpu_abort_info+0x44>)
  30030a:	f004 f85f 	bl	3043cc <printf>
  30030e:	b003      	add	sp, #12
  300310:	bd30      	pop	{r4, r5, pc}
  300312:	bf00      	nop
  300314:	0030080a 	eorseq	r0, r0, sl, lsl #16

00300318 <do_exception>:
  300318:	b570      	push	{r4, r5, r6, lr}
  30031a:	460e      	mov	r6, r1
  30031c:	4d0c      	ldr	r5, [pc, #48]	; (300350 <do_exception+0x38>)
  30031e:	b088      	sub	sp, #32
  300320:	466c      	mov	r4, sp
  300322:	cd0f      	ldmia	r5!, {r0, r1, r2, r3}
  300324:	c40f      	stmia	r4!, {r0, r1, r2, r3}
  300326:	e895 000f 	ldmia.w	r5, {r0, r1, r2, r3}
  30032a:	e884 000f 	stmia.w	r4, {r0, r1, r2, r3}
  30032e:	aa08      	add	r2, sp, #32
  300330:	eb02 0386 	add.w	r3, r2, r6, lsl #2
  300334:	3e03      	subs	r6, #3
  300336:	f853 0c20 	ldr.w	r0, [r3, #-32]
  30033a:	f004 f99a 	bl	304672 <serial_puts>
  30033e:	2e01      	cmp	r6, #1
  300340:	d801      	bhi.n	300346 <do_exception+0x2e>
  300342:	f7ff ffc5 	bl	3002d0 <cpu_abort_info>
  300346:	4803      	ldr	r0, [pc, #12]	; (300354 <do_exception+0x3c>)
  300348:	f004 f993 	bl	304672 <serial_puts>
  30034c:	e7fe      	b.n	30034c <do_exception+0x34>
  30034e:	bf00      	nop
  300350:	00300580 	eorseq	r0, r0, r0, lsl #11
  300354:	00300836 	eorseq	r0, r0, r6, lsr r8

00300358 <v7_dma_inv_range>:
  300358:	ee103f30 	mrc	15, 0, r3, cr0, cr0, {1}
  30035c:	e1a03823 	lsr	r3, r3, #16
  300360:	e203300f 	and	r3, r3, #15
  300364:	e3a02004 	mov	r2, #4
  300368:	e1a02312 	lsl	r2, r2, r3
  30036c:	e2423001 	sub	r3, r2, #1
  300370:	e1100003 	tst	r0, r3
  300374:	e1c00003 	bic	r0, r0, r3
  300378:	1e070f3e 	mcrne	15, 0, r0, cr7, cr14, {1}
  30037c:	e1110003 	tst	r1, r3
  300380:	e1c11003 	bic	r1, r1, r3
  300384:	1e071f3e 	mcrne	15, 0, r1, cr7, cr14, {1}
  300388:	ee070f36 	mcr	15, 0, r0, cr7, cr6, {1}
  30038c:	e0800002 	add	r0, r0, r2
  300390:	e1500001 	cmp	r0, r1
  300394:	3afffffb 	bcc	300388 <v7_dma_inv_range+0x30>
  300398:	f57ff04e 	dsb	st
  30039c:	e1a0f00e 	mov	pc, lr

003003a0 <v7_dma_clean_range>:
  3003a0:	ee103f30 	mrc	15, 0, r3, cr0, cr0, {1}
  3003a4:	e1a03823 	lsr	r3, r3, #16
  3003a8:	e203300f 	and	r3, r3, #15
  3003ac:	e3a02004 	mov	r2, #4
  3003b0:	e1a02312 	lsl	r2, r2, r3
  3003b4:	e2423001 	sub	r3, r2, #1
  3003b8:	e1c00003 	bic	r0, r0, r3
  3003bc:	ee070f3a 	mcr	15, 0, r0, cr7, cr10, {1}
  3003c0:	e0800002 	add	r0, r0, r2
  3003c4:	e1500001 	cmp	r0, r1
  3003c8:	3afffffb 	bcc	3003bc <v7_dma_clean_range+0x1c>
  3003cc:	f57ff04e 	dsb	st
  3003d0:	e1a0f00e 	mov	pc, lr

003003d4 <v7_dma_flush_range>:
  3003d4:	ee103f30 	mrc	15, 0, r3, cr0, cr0, {1}
  3003d8:	e1a03823 	lsr	r3, r3, #16
  3003dc:	e203300f 	and	r3, r3, #15
  3003e0:	e3a02004 	mov	r2, #4
  3003e4:	e1a02312 	lsl	r2, r2, r3
  3003e8:	e2423001 	sub	r3, r2, #1
  3003ec:	e1c00003 	bic	r0, r0, r3
  3003f0:	ee070f3e 	mcr	15, 0, r0, cr7, cr14, {1}
  3003f4:	e0800002 	add	r0, r0, r2
  3003f8:	e1500001 	cmp	r0, r1
  3003fc:	3afffffb 	bcc	3003f0 <v7_dma_flush_range+0x1c>
  300400:	f57ff04e 	dsb	st
  300404:	e1a0f00e 	mov	pc, lr

00300408 <v7_inv_l1_l2_dcache>:
  300408:	ee300f30 	mrc	15, 1, r0, cr0, cr0, {1}
  30040c:	e2103407 	ands	r3, r0, #117440512	; 0x7000000
  300410:	e1a03ba3 	lsr	r3, r3, #23
  300414:	0a00001a 	beq	300484 <Finished>
  300418:	e3a0a000 	mov	sl, #0

0030041c <Loop1>:
  30041c:	e08a20aa 	add	r2, sl, sl, lsr #1
  300420:	e1a01230 	lsr	r1, r0, r2
  300424:	e2011007 	and	r1, r1, #7
  300428:	e3510002 	cmp	r1, #2
  30042c:	ba000011 	blt	300478 <Skip>
  300430:	ee40af10 	mcr	15, 2, sl, cr0, cr0, {0}
  300434:	f57ff06f 	isb	sy
  300438:	ee301f10 	mrc	15, 1, r1, cr0, cr0, {0}
  30043c:	e2012007 	and	r2, r1, #7
  300440:	e2822004 	add	r2, r2, #4
  300444:	e59f403c 	ldr	r4, [pc, #60]	; 300488 <Finished+0x4>
  300448:	e01441a1 	ands	r4, r4, r1, lsr #3
  30044c:	e16f5f14 	clz	r5, r4
  300450:	e59f7034 	ldr	r7, [pc, #52]	; 30048c <Finished+0x8>
  300454:	e01776a1 	ands	r7, r7, r1, lsr #13

00300458 <Loop2>:
  300458:	e1a09004 	mov	r9, r4

0030045c <Loop3>:
  30045c:	e18ab519 	orr	fp, sl, r9, lsl r5
  300460:	e18bb217 	orr	fp, fp, r7, lsl r2
  300464:	ee07bf56 	mcr	15, 0, fp, cr7, cr6, {2}
  300468:	e2599001 	subs	r9, r9, #1
  30046c:	aafffffa 	bge	30045c <Loop3>
  300470:	e2577001 	subs	r7, r7, #1
  300474:	aafffff7 	bge	300458 <Loop2>

00300478 <Skip>:
  300478:	e28aa002 	add	sl, sl, #2
  30047c:	e153000a 	cmp	r3, sl
  300480:	caffffe5 	bgt	30041c <Loop1>

00300484 <Finished>:
  300484:	e1a0f00e 	mov	pc, lr
  300488:	000003ff 	strdeq	r0, [r0], -pc	; <UNPREDICTABLE>
  30048c:	00007fff 	strdeq	r7, [r0], -pc	; <UNPREDICTABLE>

00300490 <set_section_dcache>:
  300490:	4b04      	ldr	r3, [pc, #16]	; (3004a4 <set_section_dcache+0x14>)
  300492:	ea41 5100 	orr.w	r1, r1, r0, lsl #20
  300496:	f441 6140 	orr.w	r1, r1, #3072	; 0xc00
  30049a:	681b      	ldr	r3, [r3, #0]
  30049c:	f843 1020 	str.w	r1, [r3, r0, lsl #2]
  3004a0:	4770      	bx	lr
  3004a2:	bf00      	nop
  3004a4:	00308090 	mlaseq	r0, r0, r0, r8

003004a8 <modify_section_dcache>:
  3004a8:	4b04      	ldr	r3, [pc, #16]	; (3004bc <modify_section_dcache+0x14>)
  3004aa:	ea42 5201 	orr.w	r2, r2, r1, lsl #20
  3004ae:	f442 6240 	orr.w	r2, r2, #3072	; 0xc00
  3004b2:	681b      	ldr	r3, [r3, #0]
  3004b4:	f843 2020 	str.w	r2, [r3, r0, lsl #2]
  3004b8:	4770      	bx	lr
  3004ba:	bf00      	nop
  3004bc:	00308090 	mlaseq	r0, r0, r0, r8

003004c0 <dram_bank_mmu_setup>:
  3004c0:	b510      	push	{r4, lr}
  3004c2:	f44f 7400 	mov.w	r4, #512	; 0x200
  3004c6:	4620      	mov	r0, r4
  3004c8:	211e      	movs	r1, #30
  3004ca:	3401      	adds	r4, #1
  3004cc:	f7ff ffe0 	bl	300490 <set_section_dcache>
  3004d0:	f5b4 6fc0 	cmp.w	r4, #1536	; 0x600
  3004d4:	d1f7      	bne.n	3004c6 <dram_bank_mmu_setup+0x6>
  3004d6:	bd10      	pop	{r4, pc}

003004d8 <iram_mmu_setup>:
  3004d8:	b508      	push	{r3, lr}
  3004da:	2001      	movs	r0, #1
  3004dc:	211e      	movs	r1, #30
  3004de:	f7ff ffd7 	bl	300490 <set_section_dcache>
  3004e2:	2002      	movs	r0, #2
  3004e4:	211e      	movs	r1, #30
  3004e6:	e8bd 4008 	ldmia.w	sp!, {r3, lr}
  3004ea:	f7ff bfd1 	b.w	300490 <set_section_dcache>

003004ee <bb_iram_mmu_setup>:
  3004ee:	b510      	push	{r4, lr}
  3004f0:	2405      	movs	r4, #5
  3004f2:	4620      	mov	r0, r4
  3004f4:	211e      	movs	r1, #30
  3004f6:	3401      	adds	r4, #1
  3004f8:	f7ff ffca 	bl	300490 <set_section_dcache>
  3004fc:	2c09      	cmp	r4, #9
  3004fe:	d1f8      	bne.n	3004f2 <bb_iram_mmu_setup+0x4>
  300500:	bd10      	pop	{r4, pc}

00300502 <is_mmu_enable>:
  300502:	4b01      	ldr	r3, [pc, #4]	; (300508 <is_mmu_enable+0x6>)
  300504:	7818      	ldrb	r0, [r3, #0]
  300506:	4770      	bx	lr
  300508:	003081bc 	ldrhteq	r8, [r0], -ip

0030050c <mmu_setup>:
  30050c:	b510      	push	{r4, lr}
  30050e:	ee11 4f10 	mrc	15, 0, r4, cr1, cr0, {0}
  300512:	f014 0401 	ands.w	r4, r4, #1
  300516:	d004      	beq.n	300522 <mmu_setup+0x16>
  300518:	4816      	ldr	r0, [pc, #88]	; (300574 <mmu_setup+0x68>)
  30051a:	e8bd 4010 	ldmia.w	sp!, {r4, lr}
  30051e:	f003 bf55 	b.w	3043cc <printf>
  300522:	4620      	mov	r0, r4
  300524:	2112      	movs	r1, #18
  300526:	3401      	adds	r4, #1
  300528:	f7ff ffb2 	bl	300490 <set_section_dcache>
  30052c:	f5b4 5f80 	cmp.w	r4, #4096	; 0x1000
  300530:	d1f7      	bne.n	300522 <mmu_setup+0x16>
  300532:	f7ff ffc5 	bl	3004c0 <dram_bank_mmu_setup>
  300536:	f7ff ffcf 	bl	3004d8 <iram_mmu_setup>
  30053a:	4b0f      	ldr	r3, [pc, #60]	; (300578 <mmu_setup+0x6c>)
  30053c:	f640 421e 	movw	r2, #3102	; 0xc1e
  300540:	681b      	ldr	r3, [r3, #0]
  300542:	601a      	str	r2, [r3, #0]
  300544:	f502 1240 	add.w	r2, r2, #3145728	; 0x300000
  300548:	60da      	str	r2, [r3, #12]
  30054a:	ee02 3f10 	mcr	15, 0, r3, cr2, cr0, {0}
  30054e:	f04f 33ff 	mov.w	r3, #4294967295	; 0xffffffff
  300552:	ee03 3f10 	mcr	15, 0, r3, cr3, cr0, {0}
  300556:	ee11 3f10 	mrc	15, 0, r3, cr1, cr0, {0}
  30055a:	f443 53c0 	orr.w	r3, r3, #6144	; 0x1800
  30055e:	f043 0305 	orr.w	r3, r3, #5
  300562:	ee01 3f10 	mcr	15, 0, r3, cr1, cr0, {0}
  300566:	f3bf 8f6f 	isb	sy
  30056a:	4b04      	ldr	r3, [pc, #16]	; (30057c <mmu_setup+0x70>)
  30056c:	2201      	movs	r2, #1
  30056e:	701a      	strb	r2, [r3, #0]
  300570:	bd10      	pop	{r4, pc}
  300572:	bf00      	nop
  300574:	003008a1 	eorseq	r0, r0, r1, lsr #17
  300578:	00308090 	mlaseq	r0, r0, r0, r8
  30057c:	003081bc 	ldrhteq	r8, [r0], -ip

00300580 <__cmd_descriptor_handle_begin>:
  300580:	00300840 	eorseq	r0, r0, r0, asr #16
  300584:	00300846 	eorseq	r0, r0, r6, asr #16
  300588:	0030085d 	eorseq	r0, r0, sp, asr r8
  30058c:	00300871 	eorseq	r0, r0, r1, ror r8
  300590:	00300881 	eorseq	r0, r0, r1, lsl #17
  300594:	0030088d 	eorseq	r0, r0, sp, lsl #17
  300598:	00300897 	mlaseq	r0, r7, r8, r0
  30059c:	0030089c 	mlaseq	r0, ip, r8, r0

003005a0 <CSWTCH.44>:
  3005a0:	00002710 	andeq	r2, r0, r0, lsl r7
  3005a4:	ffffffff 			; <UNDEFINED> instruction: 0xffffffff
  3005a8:	ffffffff 			; <UNDEFINED> instruction: 0xffffffff
  3005ac:	ffffffff 			; <UNDEFINED> instruction: 0xffffffff
  3005b0:	00004e20 	andeq	r4, r0, r0, lsr #28
  3005b4:	ffffffff 			; <UNDEFINED> instruction: 0xffffffff
  3005b8:	ffffffff 			; <UNDEFINED> instruction: 0xffffffff
  3005bc:	ffffffff 			; <UNDEFINED> instruction: 0xffffffff
  3005c0:	000061a8 	andeq	r6, r0, r8, lsr #3
  3005c4:	00000001 	andeq	r0, r0, r1
  3005c8:	00000002 	andeq	r0, r0, r2
  3005cc:	00000004 	andeq	r0, r0, r4
  3005d0:	00000008 	andeq	r0, r0, r8

003005d4 <__func__.4383>:
  3005d4:	5f746567 	svcpl	0x00746567
  3005d8:	5f4e5f4d 	svcpl	0x004e5f4d
  3005dc:	70004f4e 	andvc	r4, r0, lr, asr #30

003005df <__func__.4447>:
  3005df:	336c6c70 	cmncc	ip, #112, 24	; 0x7000
  3005e3:	7465735f 	strbtvc	r7, [r5], #-863	; 0x35f
  3005e7:	7461725f 	strbtvc	r7, [r1], #-607	; 0x25f
  3005eb:	486b5f65 	stmdami	fp!, {r0, r2, r5, r6, r8, r9, sl, fp, ip, lr}^
  3005ef:	6c70007a 	ldclvs	0, cr0, [r0], #-488	; 0xfffffe18

003005f1 <__func__.4455>:
  3005f1:	336c6c70 	cmncc	ip, #112, 24	; 0x7000
  3005f5:	7465675f 	strbtvc	r6, [r5], #-1887	; 0x75f
  3005f9:	7461725f 	strbtvc	r7, [r1], #-607	; 0x25f
  3005fd:	486b5f65 	stmdami	fp!, {r0, r2, r5, r6, r8, r9, sl, fp, ip, lr}^
  300601:	6300007a 	movwvs	r0, #122	; 0x7a

00300604 <__func__.4502>:
  300604:	63656863 	cmnvs	r5, #6488064	; 0x630000
  300608:	6c625f6b 	stclvs	15, cr5, [r2], #-428	; 0xfffffe54
  30060c:	5f776632 	svcpl	0x00776632
  300610:	6e676973 	mcrvs	9, 3, r6, cr7, cr3, {3}
  300614:	00000000 	andeq	r0, r0, r0

00300618 <_ctype>:
  300618:	08080808 	stmdaeq	r8, {r3, fp}
  30061c:	08080808 	stmdaeq	r8, {r3, fp}
  300620:	28282808 	stmdacs	r8!, {r3, fp, sp}
  300624:	08082828 	stmdaeq	r8, {r3, r5, fp, sp}
  300628:	08080808 	stmdaeq	r8, {r3, fp}
  30062c:	08080808 	stmdaeq	r8, {r3, fp}
  300630:	08080808 	stmdaeq	r8, {r3, fp}
  300634:	08080808 	stmdaeq	r8, {r3, fp}
  300638:	101010a0 	andsne	r1, r0, r0, lsr #1
  30063c:	10101010 	andsne	r1, r0, r0, lsl r0
  300640:	10101010 	andsne	r1, r0, r0, lsl r0
  300644:	10101010 	andsne	r1, r0, r0, lsl r0
  300648:	04040404 	streq	r0, [r4], #-1028	; 0x404
  30064c:	04040404 	streq	r0, [r4], #-1028	; 0x404
  300650:	10100404 	andsne	r0, r0, r4, lsl #8
  300654:	10101010 	andsne	r1, r0, r0, lsl r0
  300658:	41414110 	cmpmi	r1, r0, lsl r1
  30065c:	01414141 	cmpeq	r1, r1, asr #2
  300660:	01010101 	tsteq	r1, r1, lsl #2
  300664:	01010101 	tsteq	r1, r1, lsl #2
  300668:	01010101 	tsteq	r1, r1, lsl #2
  30066c:	01010101 	tsteq	r1, r1, lsl #2
  300670:	10010101 	andne	r0, r1, r1, lsl #2
  300674:	10101010 	andsne	r1, r0, r0, lsl r0
  300678:	42424210 	submi	r4, r2, #16, 4
  30067c:	02424242 	subeq	r4, r2, #536870916	; 0x20000004
  300680:	02020202 	andeq	r0, r2, #536870912	; 0x20000000
  300684:	02020202 	andeq	r0, r2, #536870912	; 0x20000000
  300688:	02020202 	andeq	r0, r2, #536870912	; 0x20000000
  30068c:	02020202 	andeq	r0, r2, #536870912	; 0x20000000
  300690:	10020202 	andne	r0, r2, r2, lsl #4
  300694:	08101010 	ldmdaeq	r0, {r4, ip}
	...
  3006b8:	101010a0 	andsne	r1, r0, r0, lsr #1
  3006bc:	10101010 	andsne	r1, r0, r0, lsl r0
  3006c0:	10101010 	andsne	r1, r0, r0, lsl r0
  3006c4:	10101010 	andsne	r1, r0, r0, lsl r0
  3006c8:	10101010 	andsne	r1, r0, r0, lsl r0
  3006cc:	10101010 	andsne	r1, r0, r0, lsl r0
  3006d0:	10101010 	andsne	r1, r0, r0, lsl r0
  3006d4:	10101010 	andsne	r1, r0, r0, lsl r0
  3006d8:	01010101 	tsteq	r1, r1, lsl #2
  3006dc:	01010101 	tsteq	r1, r1, lsl #2
  3006e0:	01010101 	tsteq	r1, r1, lsl #2
  3006e4:	01010101 	tsteq	r1, r1, lsl #2
  3006e8:	01010101 	tsteq	r1, r1, lsl #2
  3006ec:	10010101 	andne	r0, r1, r1, lsl #2
  3006f0:	01010101 	tsteq	r1, r1, lsl #2
  3006f4:	02010101 	andeq	r0, r1, #1073741824	; 0x40000000
  3006f8:	02020202 	andeq	r0, r2, #536870912	; 0x20000000
  3006fc:	02020202 	andeq	r0, r2, #536870912	; 0x20000000
  300700:	02020202 	andeq	r0, r2, #536870912	; 0x20000000
  300704:	02020202 	andeq	r0, r2, #536870912	; 0x20000000
  300708:	02020202 	andeq	r0, r2, #536870912	; 0x20000000
  30070c:	10020202 	andne	r0, r2, r2, lsl #4
  300710:	02020202 	andeq	r0, r2, #536870912	; 0x20000000
  300714:	02020202 	andeq	r0, r2, #536870912	; 0x20000000

00300718 <crc32table_le>:
  300718:	00000000 	andeq	r0, r0, r0
  30071c:	1db71064 	ldcne	0, cr1, [r7, #400]!	; 0x190
  300720:	3b6e20c8 	blcc	1e88a48 <__bss_end__+0x1b7e644>
  300724:	26d930ac 	ldrbcs	r3, [r9], ip, lsr #1
  300728:	76dc4190 			; <UNDEFINED> instruction: 0x76dc4190
  30072c:	6b6b51f4 	blvs	1dd4f04 <__bss_end__+0x1acab00>
  300730:	4db26158 	ldfmis	f6, [r2, #352]!	; 0x160
  300734:	5005713c 	andpl	r7, r5, ip, lsr r1
  300738:	edb88320 	ldc	3, cr8, [r8, #128]!	; 0x80
  30073c:	f00f9344 			; <UNDEFINED> instruction: 0xf00f9344
  300740:	d6d6a3e8 	ldrble	sl, [r6], r8, ror #7
  300744:	cb61b38c 	blgt	1b6d57c <__bss_end__+0x1863178>
  300748:	9b64c2b0 	blls	1c31210 <__bss_end__+0x1926e0c>
  30074c:	86d3d2d4 			; <UNDEFINED> instruction: 0x86d3d2d4
  300750:	a00ae278 	andge	lr, sl, r8, ror r2
  300754:	bdbdf21c 	lfmlt	f7, 1, [sp, #112]!	; 0x70

00300758 <digits.4352>:
  300758:	33323130 	teqcc	r2, #48, 2
  30075c:	37363534 			; <UNDEFINED> instruction: 0x37363534
  300760:	42413938 	submi	r3, r1, #56, 18	; 0xe0000
  300764:	46454443 	strbmi	r4, [r5], -r3, asr #8

00300768 <__FUNCTION__.4433>:
  300768:	69707371 	ldmdbvs	r0!, {r0, r4, r5, r6, r8, r9, ip, sp, lr}^
  30076c:	3532775f 	ldrcc	r7, [r2, #-1887]!	; 0x75f
  300770:	36353271 			; <UNDEFINED> instruction: 0x36353271
  300774:	645f7666 	ldrbvs	r7, [pc], #-1638	; 30077c <__FUNCTION__.4433+0x14>
  300778:	775f616d 	ldrbvc	r6, [pc, -sp, ror #2]
  30077c:	65746972 	ldrbvs	r6, [r4, #-2418]!	; 0x972
  300780:	6761705f 			; <UNDEFINED> instruction: 0x6761705f
  300784:	73710065 	cmnvc	r1, #101	; 0x65

00300786 <__func__.4461>:
  300786:	69707371 	ldmdbvs	r0!, {r0, r4, r5, r6, r8, r9, ip, sp, lr}^
  30078a:	3532775f 	ldrcc	r7, [r2, #-1887]!	; 0x75f
  30078e:	36353271 			; <UNDEFINED> instruction: 0x36353271
  300792:	705f7666 	subsvc	r7, pc, r6, ror #12
  300796:	5f746f72 	svcpl	0x00746f72
  30079a:	69676572 	stmdbvs	r7!, {r1, r4, r5, r6, r8, sl, sp, lr}^
  30079e:	71006e6f 	tstvc	r0, pc, ror #28

003007a1 <__func__.4487>:
  3007a1:	69707371 	ldmdbvs	r0!, {r0, r4, r5, r6, r8, r9, ip, sp, lr}^
  3007a5:	3532775f 	ldrcc	r7, [r2, #-1887]!	; 0x75f
  3007a9:	36353271 			; <UNDEFINED> instruction: 0x36353271
  3007ad:	625f7666 	subsvs	r7, pc, #106954752	; 0x6600000
  3007b1:	6b636f6c 	blvs	1bdc569 <__bss_end__+0x18d2165>
  3007b5:	636f6c5f 	cmnvs	pc, #24320	; 0x5f00
  3007b9:	7371006b 	cmnvc	r1, #107	; 0x6b

003007bb <__func__.4492>:
  3007bb:	69707371 	ldmdbvs	r0!, {r0, r4, r5, r6, r8, r9, ip, sp, lr}^
  3007bf:	3532775f 	ldrcc	r7, [r2, #-1887]!	; 0x75f
  3007c3:	36353271 			; <UNDEFINED> instruction: 0x36353271
  3007c7:	625f7666 	subsvs	r7, pc, #106954752	; 0x6600000
  3007cb:	6b636f6c 	blvs	1bdc583 <__bss_end__+0x18d217f>
  3007cf:	6c6e755f 	cfstr64vs	mvdx7, [lr], #-380	; 0xfffffe84
  3007d3:	006b636f 	rsbeq	r6, fp, pc, ror #6
	...

003007d8 <CSWTCH.4>:
  3007d8:	c0000000 	andgt	r0, r0, r0
  3007dc:	c0010000 	andgt	r0, r1, r0
  3007e0:	c0020000 	andgt	r0, r2, r0
  3007e4:	c0030000 	andgt	r0, r3, r0
  3007e8:	c0040000 	andgt	r0, r4, r0
  3007ec:	c0050000 	andgt	r0, r5, r0
  3007f0:	c0060000 	andgt	r0, r6, r0
  3007f4:	c0070000 	andgt	r0, r7, r0

003007f8 <CSWTCH.17>:
  3007f8:	fffd2710 			; <UNDEFINED> instruction: 0xfffd2710
  3007fc:	fffdfffd 			; <UNDEFINED> instruction: 0xfffdfffd
  300800:	fffd4e20 			; <UNDEFINED> instruction: 0xfffd4e20
  300804:	fffdfffd 			; <UNDEFINED> instruction: 0xfffdfffd
  300808:	464461a8 	strbmi	r6, [r4], -r8, lsr #3
  30080c:	303a5241 	eorscc	r5, sl, r1, asr #4
  300810:	2c782578 	cfldr64cs	mvdx2, [r8], #-480	; 0xfffffe20
  300814:	53464420 	movtpl	r4, #25632	; 0x6420
  300818:	78303a52 	ldmdavc	r0!, {r1, r4, r6, r9, fp, ip, sp}
  30081c:	202c7825 	eorcs	r7, ip, r5, lsr #16
  300820:	52414649 	subpl	r4, r1, #76546048	; 0x4900000
  300824:	2578303a 	ldrbcs	r3, [r8, #-58]!	; 0x3a
  300828:	49202c78 	stmdbmi	r0!, {r3, r4, r5, r6, sl, fp, sp}
  30082c:	3a525346 	bcc	179554c <__bss_end__+0x148b148>
  300830:	78257830 	stmdavc	r5!, {r4, r5, fp, ip, sp, lr}
  300834:	6148000a 	cmpvs	r8, sl
  300838:	2e20676e 	cdpcs	7, 2, cr6, cr0, cr14, {3}
  30083c:	000a2e2e 	andeq	r2, sl, lr, lsr #28
  300840:	65736572 	ldrbvs	r6, [r3, #-1394]!	; 0x572
  300844:	6e750074 	mrcvs	0, 3, r0, cr5, cr4, {3}
  300848:	69666564 	stmdbvs	r6!, {r2, r5, r6, r8, sl, sp, lr}^
  30084c:	2064656e 	rsbcs	r6, r4, lr, ror #10
  300850:	74736e69 	ldrbtvc	r6, [r3], #-3689	; 0xe69
  300854:	74637572 	strbtvc	r7, [r3], #-1394	; 0x572
  300858:	0a6e6f69 	beq	1e9c604 <__bss_end__+0x1b92200>
  30085c:	666f7300 	strbtvs	r7, [pc], -r0, lsl #6
  300860:	72617774 	rsbvc	r7, r1, #116, 14	; 0x1d00000
  300864:	6e692065 	cdpvs	0, 6, cr2, cr9, cr5, {3}
  300868:	72726574 	rsbsvc	r6, r2, #116, 10	; 0x1d000000
  30086c:	0a747075 	beq	201ca48 <__bss_end__+0x1d12644>
  300870:	65727000 	ldrbvs	r7, [r2, #-0]!
  300874:	63746566 	cmnvs	r4, #427819008	; 0x19800000
  300878:	62612068 	rsbvs	r2, r1, #104	; 0x68
  30087c:	0a74726f 	beq	201d240 <__bss_end__+0x1d12e3c>
  300880:	74616400 	strbtvc	r6, [r1], #-1024	; 0x400
  300884:	62612061 	rsbvs	r2, r1, #97	; 0x61
  300888:	0a74726f 	beq	201d24c <__bss_end__+0x1d12e48>
  30088c:	746f6e00 	strbtvc	r6, [pc], #-3584	; 300894 <CSWTCH.17+0x9c>
  300890:	65737520 	ldrbvs	r7, [r3, #-1312]!	; 0x520
  300894:	49000a64 	stmdbmi	r0, {r2, r5, r6, r9, fp}
  300898:	000a5152 	andeq	r5, sl, r2, asr r1
  30089c:	0a514946 	beq	1752dbc <__bss_end__+0x14489b8>
  3008a0:	756d6d00 	strbvc	r6, [sp, #-3328]!	; 0xd00
  3008a4:	64616820 	strbtvs	r6, [r1], #-2080	; 0x820
  3008a8:	6e6f6320 	cdpvs	3, 6, cr6, cr15, cr0, {1}
  3008ac:	65676966 	strbvs	r6, [r7, #-2406]!	; 0x966
  3008b0:	6f632064 	svcvs	0x00632064
  3008b4:	656c706d 	strbvs	r7, [ip, #-109]!	; 0x6d
  3008b8:	0a646574 	beq	1c19e90 <__bss_end__+0x190fa8c>
  3008bc:	6c6c7000 	stclvs	0, cr7, [ip], #-0
  3008c0:	72203130 	eorvc	r3, r0, #48, 2
  3008c4:	3d206765 	stccc	7, cr6, [r0, #-404]!	; 0xfffffe6c
  3008c8:	25783020 	ldrbcs	r3, [r8, #-32]!
  3008cc:	000a2078 	andeq	r2, sl, r8, ror r0
  3008d0:	326c6c70 	rsbcc	r6, ip, #112, 24	; 0x7000
  3008d4:	65722033 	ldrbvs	r2, [r2, #-51]!	; 0x33
  3008d8:	203d2067 	eorscs	r2, sp, r7, rrx
  3008dc:	78257830 	stmdavc	r5!, {r4, r5, fp, ip, sp, lr}
  3008e0:	50000a20 	andpl	r0, r0, r0, lsr #20
  3008e4:	3d304c4c 	ldccc	12, cr4, [r0, #-304]!	; 0xfffffed0
  3008e8:	6b206425 	blvs	b19984 <__bss_end__+0x80f580>
  3008ec:	000a7a48 	andeq	r7, sl, r8, asr #20
  3008f0:	314c4c50 	cmpcc	ip, r0, asr ip
  3008f4:	2064253d 	rsbcs	r2, r4, sp, lsr r5
  3008f8:	0a7a486b 	beq	2192aac <__bss_end__+0x1e886a8>
  3008fc:	4c4c5000 	marmi	acc0, r5, ip
  300900:	64253d32 	strtvs	r3, [r5], #-3378	; 0xd32
  300904:	7a486b20 	bvc	151b58c <__bss_end__+0x1211188>
  300908:	4c50000a 	mrrcmi	0, 0, r0, r0, cr10	; <UNPREDICTABLE>
  30090c:	253d334c 	ldrcs	r3, [sp, #-844]!	; 0x34c
  300910:	486b2064 	stmdami	fp!, {r2, r5, r6, sp}^
  300914:	23000a7a 	movwcs	r0, #2682	; 0xa7a
  300918:	23232323 	teqcs	r3, #-1946157056	; 0x8c000000
  30091c:	23232323 	teqcs	r3, #-1946157056	; 0x8c000000
  300920:	23232323 	teqcs	r3, #-1946157056	; 0x8c000000
  300924:	23232323 	teqcs	r3, #-1946157056	; 0x8c000000
  300928:	23232323 	teqcs	r3, #-1946157056	; 0x8c000000
  30092c:	23232323 	teqcs	r3, #-1946157056	; 0x8c000000
  300930:	23232323 	teqcs	r3, #-1946157056	; 0x8c000000
  300934:	23232323 	teqcs	r3, #-1946157056	; 0x8c000000
  300938:	23232323 	teqcs	r3, #-1946157056	; 0x8c000000
  30093c:	0a232323 	beq	bc95d0 <__bss_end__+0x8bf1cc>
  300940:	52524500 	subspl	r4, r2, #0, 10
  300944:	203a524f 	eorscs	r5, sl, pc, asr #4
  300948:	20656874 	rsbcs	r6, r5, r4, ror r8
  30094c:	206c6c70 	rsbcs	r6, ip, r0, ror ip
  300950:	7074756f 	rsbsvc	r7, r4, pc, ror #10
  300954:	72207475 	eorvc	r7, r0, #1962934272	; 0x75000000
  300958:	65676e61 	strbvs	r6, [r7, #-3681]!	; 0xe61
  30095c:	3236203a 	eorscc	r2, r6, #58	; 0x3a
  300960:	484d352e 	stmdami	sp, {r1, r2, r3, r5, r8, sl, ip, sp}^
  300964:	7e7e207a 	mrcvc	0, 3, r2, cr14, cr10, {3}
  300968:	30353120 	eorscc	r3, r5, r0, lsr #2
  30096c:	7a484d30 	bvc	1513e34 <__bss_end__+0x1209a30>
  300970:	6f6e202c 	svcvs	0x006e202c
  300974:	73692077 	cmnvc	r9, #119	; 0x77
  300978:	20642520 	rsbcs	r2, r4, r0, lsr #10
  30097c:	0a7a486b 	beq	2192b30 <__bss_end__+0x1e8872c>
  300980:	3a732500 	bcc	1fc9d88 <__bss_end__+0x1cbf984>
  300984:	74656720 	strbtvc	r6, [r5], #-1824	; 0x720
  300988:	204f4e20 	subcs	r4, pc, r0, lsr #28
  30098c:	4f525245 	svcmi	0x00525245
  300990:	000a2152 	andeq	r2, sl, r2, asr r1
  300994:	203a7325 	eorscs	r7, sl, r5, lsr #6
  300998:	20746567 	rsbscs	r6, r4, r7, ror #10
  30099c:	204e204d 	subcs	r2, lr, sp, asr #32
  3009a0:	45204f4e 	strmi	r4, [r0, #-3918]!	; 0xf4e
  3009a4:	524f5252 	subpl	r5, pc, #536870917	; 0x20000005
  3009a8:	45000a21 	strmi	r0, [r0, #-2593]	; 0xa21
  3009ac:	524f5252 	subpl	r5, pc, #536870917	; 0x20000005
  3009b0:	6572203a 	ldrbvs	r2, [r2, #-58]!	; 0x3a
  3009b4:	6b6c6366 	blvs	1e19754 <__bss_end__+0x1b0f350>
  3009b8:	20736920 	rsbscs	r6, r3, r0, lsr #18
  3009bc:	4f525245 	svcmi	0x00525245
  3009c0:	45000a52 	strmi	r0, [r0, #-2642]	; 0xa52
  3009c4:	524f5252 	subpl	r5, pc, #536870917	; 0x20000005
  3009c8:	6567203a 	strbvs	r2, [r7, #-58]!	; 0x3a
  3009cc:	204d2074 	subcs	r2, sp, r4, ror r0
  3009d0:	4f4e204e 	svcmi	0x004e204e
  3009d4:	20736920 	rsbscs	r6, r3, r0, lsr #18
  3009d8:	4f525245 	svcmi	0x00525245
  3009dc:	25000a52 	strcs	r0, [r0, #-2642]	; 0xa52
  3009e0:	50203a73 	eorpl	r3, r0, r3, ror sl
  3009e4:	20334c4c 	eorscs	r4, r3, ip, asr #24
  3009e8:	65666572 	strbvs	r6, [r6, #-1394]!	; 0x572
  3009ec:	636e6572 	cmnvs	lr, #478150656	; 0x1c800000
  3009f0:	6c632065 	stclvs	0, cr2, [r3], #-404	; 0xfffffe6c
  3009f4:	7369206b 	cmnvc	r9, #107	; 0x6b
  3009f8:	20642520 	rsbcs	r2, r4, r0, lsr #10
  3009fc:	0a7a486b 	beq	2192bb0 <__bss_end__+0x1e887ac>
  300a00:	326c6200 	rsbcc	r6, ip, #0, 4
  300a04:	6d2e7766 	stcvs	7, cr7, [lr, #-408]!	; 0xfffffe68
  300a08:	65207262 	strvs	r7, [r0, #-610]!	; 0x262
  300a0c:	726f7272 	rsbvc	r7, pc, #536870919	; 0x20000007
  300a10:	616e202c 	cmnvs	lr, ip, lsr #32
  300a14:	203a656d 	eorscs	r6, sl, sp, ror #10
  300a18:	000a7325 	andeq	r7, sl, r5, lsr #6
  300a1c:	6c622e31 	stclvs	14, cr2, [r2], #-196	; 0xffffff3c
  300a20:	2e776632 	mrccs	6, 3, r6, cr7, cr2, {1}
  300a24:	657a6973 	ldrbvs	r6, [sl, #-2419]!	; 0x973
  300a28:	72726520 	rsbsvc	r6, r2, #32, 10	; 0x8000000
  300a2c:	202c726f 	eorcs	r7, ip, pc, ror #4
  300a30:	656d616e 	strbvs	r6, [sp, #-366]!	; 0x16e
  300a34:	7325203a 	teqvc	r5, #58	; 0x3a
  300a38:	2e32000a 	cdpcs	0, 3, cr0, cr2, cr10, {0}
  300a3c:	66326c62 	ldrtvs	r6, [r2], -r2, ror #24
  300a40:	69732e77 	ldmdbvs	r3!, {r0, r1, r2, r4, r5, r6, r9, sl, fp, sp}^
  300a44:	6520657a 	strvs	r6, [r0, #-1402]!	; 0x57a
  300a48:	726f7272 	rsbvc	r7, pc, #536870919	; 0x20000007
  300a4c:	616e202c 	cmnvs	lr, ip, lsr #32
  300a50:	203a656d 	eorscs	r6, sl, sp, ror #10
  300a54:	000a7325 	andeq	r7, sl, r5, lsr #6
  300a58:	66326c62 	ldrtvs	r6, [r2], -r2, ror #24
  300a5c:	65732e77 	ldrbvs	r2, [r3, #-3703]!	; 0xe77
  300a60:	69727563 	ldmdbvs	r2!, {r0, r1, r5, r6, r8, sl, ip, sp, lr}^
  300a64:	63207974 	teqvs	r0, #116, 18	; 0x1d0000
  300a68:	6b636568 	blvs	1bda010 <__bss_end__+0x18cfc0c>
  300a6c:	74616420 	strbtvc	r6, [r1], #-1056	; 0x420
  300a70:	72652061 	rsbvc	r2, r5, #97	; 0x61
  300a74:	2c726f72 	ldclcs	15, cr6, [r2], #-456	; 0xfffffe38
  300a78:	6d616e20 	stclvs	14, cr6, [r1, #-128]!	; 0xffffff80
  300a7c:	25203a65 	strcs	r3, [r0, #-2661]!	; 0xa65
  300a80:	25000a73 	strcs	r0, [r0, #-2675]	; 0xa73
  300a84:	66203a73 			; <UNDEFINED> instruction: 0x66203a73
  300a88:	64615f6c 	strbtvs	r5, [r1], #-3948	; 0xf6c
  300a8c:	30207264 	eorcc	r7, r0, r4, ror #4
  300a90:	20782578 	rsbscs	r2, r8, r8, ror r5
  300a94:	20746e63 	rsbscs	r6, r4, r3, ror #28
  300a98:	20206425 	eorcs	r6, r0, r5, lsr #8
  300a9c:	64616f6c 	strbtvs	r6, [r1], #-3948	; 0xf6c
  300aa0:	206f7420 	rsbcs	r7, pc, r0, lsr #8
  300aa4:	78257830 	stmdavc	r5!, {r4, r5, fp, ip, sp, lr}
  300aa8:	6262000a 	rsbvs	r0, r2, #10
  300aac:	7269662e 	rsbvc	r6, r9, #48234496	; 0x2e00000
  300ab0:	7261776d 	rsbvc	r7, r1, #28573696	; 0x1b40000
  300ab4:	62620065 	rsbvs	r0, r2, #101	; 0x65
  300ab8:	7269662e 	rsbvc	r6, r9, #48234496	; 0x2e00000
  300abc:	7261776d 	rsbvc	r7, r1, #28573696	; 0x1b40000
  300ac0:	6b622d65 	blvs	1b8c05c <__bss_end__+0x1881c58>
  300ac4:	6f6f6200 	svcvs	0x006f6200
  300ac8:	62622074 	rsbvs	r2, r2, #116	; 0x74
  300acc:	21776620 	cmncs	r7, r0, lsr #12
  300ad0:	64646120 	strbtvs	r6, [r4], #-288	; 0x120
  300ad4:	78302072 	ldmdavc	r0!, {r1, r4, r5, r6, sp}
  300ad8:	000a7825 	andeq	r7, sl, r5, lsr #16
  300adc:	62616e65 	rsbvs	r6, r1, #1616	; 0x650
  300ae0:	0064656c 	rsbeq	r6, r4, ip, ror #10
  300ae4:	61736964 	cmnvs	r3, r4, ror #18
  300ae8:	64656c62 	strbtvs	r6, [r5], #-3170	; 0xc62
  300aec:	2a0a0d00 	bcs	583ef4 <__bss_end__+0x279af0>
  300af0:	2a2a2a2a 	bcs	d8b3a0 <__bss_end__+0xa80f9c>
  300af4:	252a2a2a 	strcs	r2, [sl, #-2602]!	; 0xa2a
  300af8:	2a2a2a73 	bcs	d8b4cc <__bss_end__+0xa810c8>
  300afc:	2a2a2a2a 	bcs	d8b3ac <__bss_end__+0xa80fa8>
  300b00:	2a2a2a2a 	bcs	d8b3b0 <__bss_end__+0xa80fac>
  300b04:	63000a0d 	movwvs	r0, #2573	; 0xa0d
  300b08:	66207570 			; <UNDEFINED> instruction: 0x66207570
  300b0c:	6873616c 	ldmdavs	r3!, {r2, r3, r5, r6, r8, sp, lr}^
  300b10:	64646120 	strbtvs	r6, [r4], #-288	; 0x120
  300b14:	203a2072 	eorscs	r2, sl, r2, ror r0
  300b18:	78257830 	stmdavc	r5!, {r4, r5, fp, ip, sp, lr}
  300b1c:	7063000a 	rsbvc	r0, r3, sl
  300b20:	69732075 	ldmdbvs	r3!, {r0, r2, r4, r5, r6, sp}^
  300b24:	2020657a 	eorcs	r6, r0, sl, ror r5
  300b28:	20202020 	eorcs	r2, r0, r0, lsr #32
  300b2c:	30203a20 	eorcc	r3, r0, r0, lsr #20
  300b30:	20782578 	rsbscs	r2, r8, r8, ror r5
  300b34:	4b642528 	blmi	1c09fdc <__bss_end__+0x18ffbd8>
  300b38:	63000a29 	movwvs	r0, #2601	; 0xa29
  300b3c:	6c207570 	cfstr32vs	mvfx7, [r0], #-448	; 0xfffffe40
  300b40:	2064616f 	rsbcs	r6, r4, pc, ror #2
  300b44:	72646461 	rsbvc	r6, r4, #1627389952	; 0x61000000
  300b48:	203a2020 	eorscs	r2, sl, r0, lsr #32
  300b4c:	78257830 	stmdavc	r5!, {r4, r5, fp, ip, sp, lr}
  300b50:	7063000a 	rsbvc	r0, r3, sl
  300b54:	78652075 	stmdavc	r5!, {r0, r2, r4, r5, r6, sp}^
  300b58:	61206365 	teqvs	r0, r5, ror #6
  300b5c:	20726464 	rsbscs	r6, r2, r4, ror #8
  300b60:	30203a20 	eorcc	r3, r0, r0, lsr #20
  300b64:	0a782578 	beq	210a14c <__bss_end__+0x1dffd48>
  300b68:	616c6600 	cmnvs	ip, r0, lsl #12
  300b6c:	20207367 	eorcs	r7, r0, r7, ror #6
  300b70:	20202020 	eorcs	r2, r0, r0, lsr #32
  300b74:	20202020 	eorcs	r2, r0, r0, lsr #32
  300b78:	7830203a 	ldmdavc	r0!, {r1, r3, r4, r5, sp}
  300b7c:	000a7825 	andeq	r7, sl, r5, lsr #16
  300b80:	75636573 	strbvc	r6, [r3, #-1395]!	; 0x573
  300b84:	79746972 	ldmdbvc	r4!, {r1, r4, r5, r6, r8, fp, sp, lr}^
  300b88:	0a732520 	beq	1fca010 <__bss_end__+0x1cbfc0c>
  300b8c:	6f62000a 	svcvs	0x0062000a
  300b90:	6f72746f 	svcvs	0x0072746f
  300b94:	6863206d 	stmdavs	r3!, {r0, r2, r3, r5, r6, sp}^
  300b98:	206b6365 	rsbcs	r6, fp, r5, ror #6
  300b9c:	50207325 	eorpl	r7, r0, r5, lsr #6
  300ba0:	0a737361 	beq	1fdd92c <__bss_end__+0x1cd3528>
  300ba4:	6c617600 	stclvs	6, cr7, [r1], #-0
  300ba8:	3d206469 	cfstrscc	mvf6, [r0, #-420]!	; 0xfffffe5c
  300bac:	2c642520 	cfstr64cs	mvdx2, [r4], #-128	; 0xffffff80
  300bb0:	72726520 	rsbsvc	r6, r2, #32, 10	; 0x8000000
  300bb4:	25203d20 	strcs	r3, [r0, #-3360]!	; 0xd20
  300bb8:	6d000a64 	vstrvs	s0, [r0, #-400]	; 0xfffffe70
  300bbc:	6e207262 	cdpvs	2, 2, cr7, cr0, cr2, {3}
  300bc0:	6620746f 	strtvs	r7, [r0], -pc, ror #8
  300bc4:	646e756f 	strbtvs	r7, [lr], #-1391	; 0x56f
  300bc8:	6d000a21 	vstrvs	s0, [r0, #-132]	; 0xffffff7c
  300bcc:	69207262 	stmdbvs	r0!, {r1, r5, r6, r9, ip, sp, lr}
  300bd0:	6c61766e 	stclvs	6, cr7, [r1], #-440	; 0xfffffe48
  300bd4:	0a216469 	beq	b59d80 <__bss_end__+0x84f97c>
  300bd8:	72646800 	rsbvc	r6, r4, #0, 16
  300bdc:	766e6920 	strbtvc	r6, [lr], -r0, lsr #18
  300be0:	64696c61 	strbtvs	r6, [r9], #-3169	; 0xc61
  300be4:	72000a21 	andvc	r0, r0, #135168	; 0x21000
  300be8:	6b5f6173 	blvs	1ad91bc <__bss_end__+0x17cedb8>
  300bec:	695f7965 	ldmdbvs	pc, {r0, r2, r5, r6, r8, fp, ip, sp, lr}^	; <UNPREDICTABLE>
  300bf0:	7865646e 	stmdavc	r5!, {r1, r2, r3, r5, r6, sl, sp, lr}^
  300bf4:	766e6920 	strbtvc	r6, [lr], -r0, lsr #18
  300bf8:	64696c61 	strbtvs	r6, [r9], #-3169	; 0xc61
  300bfc:	72000a21 	andvc	r0, r0, #135168	; 0x21000
  300c00:	66206173 			; <UNDEFINED> instruction: 0x66206173
  300c04:	656c6961 	strbvs	r6, [ip, #-2401]!	; 0x961
  300c08:	000a2164 	andeq	r2, sl, r4, ror #2
  300c0c:	5f617372 	svcpl	0x00617372
  300c10:	5f79656b 	svcpl	0x0079656b
  300c14:	756c6176 	strbvc	r6, [ip, #-374]!	; 0x176
  300c18:	6e692065 	cdpvs	0, 6, cr2, cr9, cr5, {3}
  300c1c:	696c6176 	stmdbvs	ip!, {r1, r2, r4, r5, r6, r8, sp, lr}^
  300c20:	000a2164 	andeq	r2, sl, r4, ror #2
  300c24:	5f617372 	svcpl	0x00617372
  300c28:	5f746567 	svcpl	0x00746567
  300c2c:	5f617372 	svcpl	0x00617372
  300c30:	2079656b 	rsbscs	r6, r9, fp, ror #10
  300c34:	6c696166 	stfvse	f6, [r9], #-408	; 0xfffffe68
  300c38:	0a216465 	beq	b59dd4 <__bss_end__+0x84f9d0>
  300c3c:	73656100 	cmnvc	r5, #0, 2
  300c40:	696e695f 	stmdbvs	lr!, {r0, r1, r2, r3, r4, r6, r8, fp, sp, lr}^
  300c44:	61662074 	smcvs	25092	; 0x6204
  300c48:	64656c69 	strbtvs	r6, [r5], #-3177	; 0xc69
  300c4c:	64000a21 	strvs	r0, [r0], #-2593	; 0xa21
  300c50:	20617461 	rsbcs	r7, r1, r1, ror #8
  300c54:	61766e69 	cmnvs	r6, r9, ror #28
  300c58:	2164696c 	cmncs	r4, ip, ror #18
  300c5c:	0a0d000a 	beq	640c8c <__bss_end__+0x336888>
  300c60:	23232323 	teqcs	r3, #-1946157056	; 0x8c000000
  300c64:	23232323 	teqcs	r3, #-1946157056	; 0x8c000000
  300c68:	20732523 	rsbscs	r2, r3, r3, lsr #10
  300c6c:	23646e65 	cmncs	r4, #1616	; 0x650
  300c70:	23232323 	teqcs	r3, #-1946157056	; 0x8c000000
  300c74:	23232323 	teqcs	r3, #-1946157056	; 0x8c000000
  300c78:	6d000a0d 	vstrvs	s0, [r0, #-52]	; 0xffffffcc
  300c7c:	73287262 	teqvc	r8, #536870918	; 0x20000006
  300c80:	29666c65 	stmdbcs	r6!, {r0, r2, r5, r6, sl, fp, sp, lr}^
  300c84:	73617000 	cmnvc	r1, #0
  300c88:	61660073 	smcvs	24579	; 0x6003
  300c8c:	64656c69 	strbtvs	r6, [r5], #-3177	; 0xc69
  300c90:	23232300 	teqcs	r3, #0, 6
  300c94:	23232323 	teqcs	r3, #-1946157056	; 0x8c000000
  300c98:	23232323 	teqcs	r3, #-1946157056	; 0x8c000000
  300c9c:	23232323 	teqcs	r3, #-1946157056	; 0x8c000000
  300ca0:	23232323 	teqcs	r3, #-1946157056	; 0x8c000000
  300ca4:	52424d20 	subpl	r4, r2, #32, 26	; 0x800
  300ca8:	666e4920 	strbtvs	r4, [lr], -r0, lsr #18
  300cac:	2323206f 	teqcs	r3, #111	; 0x6f
  300cb0:	23232323 	teqcs	r3, #-1946157056	; 0x8c000000
  300cb4:	23232323 	teqcs	r3, #-1946157056	; 0x8c000000
  300cb8:	23232323 	teqcs	r3, #-1946157056	; 0x8c000000
  300cbc:	23232323 	teqcs	r3, #-1946157056	; 0x8c000000
  300cc0:	614e000a 	cmpvs	lr, sl
  300cc4:	2020656d 	eorcs	r6, r0, sp, ror #10
  300cc8:	20202020 	eorcs	r2, r0, r0, lsr #32
  300ccc:	20202020 	eorcs	r2, r0, r0, lsr #32
  300cd0:	25203a20 	strcs	r3, [r0, #-2592]!	; 0xa20
  300cd4:	000a2073 	andeq	r2, sl, r3, ror r0
  300cd8:	73616c66 	cmnvc	r1, #26112	; 0x6600
  300cdc:	64612068 	strbtvs	r2, [r1], #-104	; 0x68
  300ce0:	73657264 	cmnvc	r5, #100, 4	; 0x40000006
  300ce4:	3a202073 	bcc	b08eb8 <__bss_end__+0x7feab4>
  300ce8:	25783020 	ldrbcs	r3, [r8, #-32]!
  300cec:	66000a78 			; <UNDEFINED> instruction: 0x66000a78
  300cf0:	6873616c 	ldmdavs	r3!, {r2, r3, r5, r6, r8, sp, lr}^
  300cf4:	7a697320 	bvc	1d5d97c <__bss_end__+0x1a53578>
  300cf8:	20202065 	eorcs	r2, r0, r5, rrx
  300cfc:	203a2020 	eorscs	r2, sl, r0, lsr #32
  300d00:	78257830 	stmdavc	r5!, {r4, r5, fp, ip, sp, lr}
  300d04:	64252820 	strtvs	r2, [r5], #-2080	; 0x820
  300d08:	000a294b 	andeq	r2, sl, fp, asr #18
  300d0c:	31637263 	cmncc	r3, r3, ror #4
  300d10:	20202036 	eorcs	r2, r0, r6, lsr r0
  300d14:	20202020 	eorcs	r2, r0, r0, lsr #32
  300d18:	3a202020 	bcc	b08da0 <__bss_end__+0x7fe99c>
  300d1c:	25783020 	ldrbcs	r3, [r8, #-32]!
  300d20:	63000a78 	movwvs	r0, #2680	; 0xa78
  300d24:	20206372 	eorcs	r6, r0, r2, ror r3
  300d28:	20202020 	eorcs	r2, r0, r0, lsr #32
  300d2c:	20202020 	eorcs	r2, r0, r0, lsr #32
  300d30:	203a2020 	eorscs	r2, sl, r0, lsr #32
  300d34:	0a0a7325 	beq	59d9d0 <__bss_end__+0x2935cc>
  300d38:	23232300 	teqcs	r3, #0, 6
  300d3c:	23232323 	teqcs	r3, #-1946157056	; 0x8c000000
  300d40:	23232323 	teqcs	r3, #-1946157056	; 0x8c000000
  300d44:	23232323 	teqcs	r3, #-1946157056	; 0x8c000000
  300d48:	746f5420 	strbtvc	r5, [pc], #-1056	; 300d50 <CSWTCH.17+0x558>
  300d4c:	25206c61 	strcs	r6, [r0, #-3169]!	; 0xc61
  300d50:	61702064 	cmnvs	r0, r4, rrx
  300d54:	74697472 	strbtvc	r7, [r9], #-1138	; 0x472
  300d58:	206e6f69 	rsbcs	r6, lr, r9, ror #30
  300d5c:	23232323 	teqcs	r3, #-1946157056	; 0x8c000000
  300d60:	23232323 	teqcs	r3, #-1946157056	; 0x8c000000
  300d64:	23232323 	teqcs	r3, #-1946157056	; 0x8c000000
  300d68:	72000a23 	andvc	r0, r0, #143360	; 0x23000
  300d6c:	20646165 	rsbcs	r6, r4, r5, ror #2
  300d70:	2072626d 	rsbscs	r6, r2, sp, ror #4
  300d74:	20676663 	rsbcs	r6, r7, r3, ror #12
  300d78:	6c696166 	stfvse	f6, [r9], #-408	; 0xfffffe68
  300d7c:	202c6465 	eorcs	r6, ip, r5, ror #8
  300d80:	20646e61 	rsbcs	r6, r4, r1, ror #28
  300d84:	69707371 	ldmdbvs	r0!, {r0, r4, r5, r6, r8, r9, ip, sp, lr}^
  300d88:	61657220 	cmnvs	r5, r0, lsr #4
  300d8c:	69742064 	ldmdbvs	r4!, {r2, r5, r6, sp}^
  300d90:	756f656d 	strbvc	r6, [pc, #-1389]!	; 30082b <CSWTCH.17+0x33>
  300d94:	64000a74 	strvs	r0, [r0], #-2676	; 0xa74
  300d98:	20617461 	rsbcs	r7, r1, r1, ror #8
  300d9c:	676e656c 	strbvs	r6, [lr, -ip, ror #10]!
  300da0:	69206874 	stmdbvs	r0!, {r2, r4, r5, r6, fp, sp, lr}
  300da4:	6e692073 	mcrvs	0, 3, r2, cr9, cr3, {3}
  300da8:	696c6176 	stmdbvs	ip!, {r1, r2, r4, r5, r6, r8, sp, lr}^
  300dac:	25202c64 	strcs	r2, [r0, #-3172]!	; 0xc64
  300db0:	63000a64 	movwvs	r0, #2660	; 0xa64
  300db4:	69206372 	stmdbvs	r0!, {r1, r4, r5, r6, r8, r9, sp, lr}
  300db8:	6e692073 	mcrvs	0, 3, r2, cr9, cr3, {3}
  300dbc:	696c6176 	stmdbvs	ip!, {r1, r2, r4, r5, r6, r8, sp, lr}^
  300dc0:	30202c64 	eorcc	r2, r0, r4, ror #24
  300dc4:	0a782578 	beq	210a3ac <__bss_end__+0x1dfffa8>
  300dc8:	69686300 	stmdbvs	r8!, {r8, r9, sp, lr}^
  300dcc:	20646970 	rsbcs	r6, r4, r0, ror r9
  300dd0:	69207369 	stmdbvs	r0!, {r0, r3, r5, r6, r8, r9, ip, sp, lr}
  300dd4:	6c61766e 	stclvs	6, cr7, [r1], #-440	; 0xfffffe48
  300dd8:	000a6469 	andeq	r6, sl, r9, ror #8
  300ddc:	20637263 	rsbcs	r7, r3, r3, ror #4
  300de0:	69207369 	stmdbvs	r0!, {r0, r3, r5, r6, r8, r9, ip, sp, lr}
  300de4:	6c61766e 	stclvs	6, cr7, [r1], #-440	; 0xfffffe48
  300de8:	202c6469 	eorcs	r6, ip, r9, ror #8
  300dec:	76636572 			; <UNDEFINED> instruction: 0x76636572
  300df0:	6372635f 	cmnvs	r2, #2080374785	; 0x7c000001
  300df4:	30203d20 	eorcc	r3, r0, r0, lsr #26
  300df8:	2c782578 	cfldr64cs	mvdx2, [r8], #-480	; 0xfffffe20
  300dfc:	72756320 	rsbsvc	r6, r5, #32, 6	; 0x80000000
  300e00:	72635f72 	rsbvc	r5, r3, #456	; 0x1c8
  300e04:	203d2063 	eorscs	r2, sp, r3, rrx
  300e08:	78257830 	stmdavc	r5!, {r4, r5, fp, ip, sp, lr}
  300e0c:	6b732020 	blvs	1fc8e94 <__bss_end__+0x1cbea90>
  300e10:	000a7069 	andeq	r7, sl, r9, rrx
  300e14:	657a6973 	ldrbvs	r6, [sl, #-2419]!	; 0x973
  300e18:	73756d20 	cmnvc	r5, #32, 26	; 0x800
  300e1c:	65622074 	strbvs	r2, [r2, #-116]!	; 0x74
  300e20:	696c6120 	stmdbvs	ip!, {r5, r8, sp, lr}^
  300e24:	64656e67 	strbtvs	r6, [r5], #-3687	; 0xe67
  300e28:	36353220 	ldrtcc	r3, [r5], -r0, lsr #4
  300e2c:	73202c42 	teqvc	r0, #16896	; 0x4200
  300e30:	20657a69 	rsbcs	r7, r5, r9, ror #20
  300e34:	6425203d 	strtvs	r2, [r5], #-61	; 0x3d
  300e38:	616d000a 	cmnvs	sp, sl
  300e3c:	20636967 	rsbcs	r6, r3, r7, ror #18
  300e40:	6f727265 	svcvs	0x00727265
  300e44:	30203a72 	eorcc	r3, r0, r2, ror sl
  300e48:	0a782578 	beq	210a430 <__bss_end__+0x1e0002c>
  300e4c:	616c6600 	cmnvs	ip, r0, lsl #12
  300e50:	74207367 	strtvc	r7, [r0], #-871	; 0x367
  300e54:	20657079 	rsbcs	r7, r5, r9, ror r0
  300e58:	6f727265 	svcvs	0x00727265
  300e5c:	30203a72 	eorcc	r3, r0, r2, ror sl
  300e60:	0a782578 	beq	210a448 <__bss_end__+0x1e00044>
  300e64:	63726300 	cmnvs	r2, #0, 6
  300e68:	72726520 	rsbsvc	r6, r2, #32, 10	; 0x8000000
  300e6c:	000a726f 	andeq	r7, sl, pc, ror #4
  300e70:	5f736c66 	svcpl	0x00736c66
  300e74:	72646461 	rsbvc	r6, r4, #1627389952	; 0x61000000
  300e78:	30203d20 	eorcc	r3, r0, r0, lsr #26
  300e7c:	0a782578 	beq	210a464 <__bss_end__+0x1e00060>
  300e80:	7a697300 	bvc	1d5da88 <__bss_end__+0x1a53684>
  300e84:	20202065 	eorcs	r2, r0, r5, rrx
  300e88:	203d2020 	eorscs	r2, sp, r0, lsr #32
  300e8c:	78257830 	stmdavc	r5!, {r4, r5, fp, ip, sp, lr}
  300e90:	6f6c000a 	svcvs	0x006c000a
  300e94:	615f6461 	cmpvs	pc, r1, ror #8
  300e98:	3d726464 	cfldrdcc	mvd6, [r2, #-400]!	; 0xfffffe70
  300e9c:	25783020 	ldrbcs	r3, [r8, #-32]!
  300ea0:	75000a78 	strvc	r0, [r0, #-2680]	; 0xa78
  300ea4:	65206573 	strvs	r6, [r0, #-1395]!	; 0x573
  300ea8:	65737566 	ldrbvs	r7, [r3, #-1382]!	; 0x566
  300eac:	79656b20 	stmdbvc	r5!, {r5, r8, r9, fp, sp, lr}^
  300eb0:	65737500 	ldrbvs	r7, [r3, #-1280]!	; 0x500
  300eb4:	72646820 	rsbvc	r6, r4, #32, 16	; 0x200000
  300eb8:	79656b20 	stmdbvc	r5!, {r5, r8, r9, fp, sp, lr}^
  300ebc:	5f4c4200 	svcpl	0x004c4200
  300ec0:	0a524448 	beq	1791fe8 <__bss_end__+0x1487be4>
  300ec4:	5f424200 	svcpl	0x00424200
  300ec8:	485f5746 	ldmdami	pc, {r1, r2, r6, r8, r9, sl, ip, lr}^	; <UNPREDICTABLE>
  300ecc:	000a5244 	andeq	r5, sl, r4, asr #4
  300ed0:	465f5041 	ldrbmi	r5, [pc], -r1, asr #32
  300ed4:	44485f57 	strbmi	r5, [r8], #-3927	; 0xf57
  300ed8:	76000a52 			; <UNDEFINED> instruction: 0x76000a52
  300edc:	69737265 	ldmdbvs	r3!, {r0, r2, r5, r6, r9, ip, sp, lr}^
  300ee0:	20206e6f 	eorcs	r6, r0, pc, ror #28
  300ee4:	20202020 	eorcs	r2, r0, r0, lsr #32
  300ee8:	203a2020 	eorscs	r2, sl, r0, lsr #32
  300eec:	252e6425 	strcs	r6, [lr, #-1061]!	; 0x425
  300ef0:	000a7664 	andeq	r7, sl, r4, ror #12
  300ef4:	656b7061 	strbvs	r7, [fp, #-97]!	; 0x61
  300ef8:	6e652079 	mcrvs	0, 3, r2, cr5, cr9, {3}
  300efc:	656c6261 	strbvs	r6, [ip, #-609]!	; 0x261
  300f00:	3a202064 	bcc	b09098 <__bss_end__+0x7fec94>
  300f04:	0a732520 	beq	1fca38c <__bss_end__+0x1cbff88>
  300f08:	69685400 	stmdbvs	r8!, {sl, ip, lr}^
  300f0c:	69662073 	stmdbvs	r6!, {r0, r1, r4, r5, r6, sp}^
  300f10:	61776d72 	cmnvs	r7, r2, ror sp
  300f14:	69206572 	stmdbvs	r0!, {r1, r4, r5, r6, r8, sl, sp, lr}
  300f18:	696c2073 	stmdbvs	ip!, {r0, r1, r4, r5, r6, sp}^
  300f1c:	2078756e 	rsbscs	r7, r8, lr, ror #10
  300f20:	6e72656b 	cdpvs	5, 7, cr6, cr2, cr11, {3}
  300f24:	64286c65 	strtvs	r6, [r8], #-3173	; 0xc65
  300f28:	2b206274 	blcs	b19900 <__bss_end__+0x80f4fc>
  300f2c:	6e696c20 	cdpvs	12, 6, cr6, cr9, cr0, {1}
  300f30:	6b207875 	blvs	b1f10c <__bss_end__+0x814d08>
  300f34:	656e7265 	strbvs	r7, [lr, #-613]!	; 0x265
  300f38:	000a296c 	andeq	r2, sl, ip, ror #18
  300f3c:	73696854 	cmnvc	r9, #84, 16	; 0x540000
  300f40:	72696620 	rsbvc	r6, r9, #32, 12	; 0x2000000
  300f44:	7261776d 	rsbvc	r7, r1, #28573696	; 0x1b40000
  300f48:	73692065 	cmnvc	r9, #101	; 0x65
  300f4c:	6e6f6e20 	cdpvs	14, 6, cr6, cr15, cr0, {1}
  300f50:	6365732d 	cmnvs	r5, #-1275068416	; 0xb4000000
  300f54:	74697275 	strbtvc	r7, [r9], #-629	; 0x275
  300f58:	65762079 	ldrbvs	r2, [r6, #-121]!	; 0x79
  300f5c:	79666972 	stmdbvc	r6!, {r1, r4, r5, r6, r8, fp, sp, lr}^
  300f60:	0a0d000a 	beq	640f90 <__bss_end__+0x336b8c>
  300f64:	78383025 	ldmdavc	r8!, {r0, r2, r5, ip, sp}
  300f68:	2500203a 	strcs	r2, [r0, #-58]	; 0x3a
  300f6c:	20783830 	rsbscs	r3, r8, r0, lsr r8
  300f70:	32302500 	eorscc	r2, r0, #0, 10
  300f74:	25002078 	strcs	r2, [r0, #-120]	; 0x78
  300f78:	2d2d2064 	stccs	0, cr2, [sp, #-400]!	; 0xfffffe70
  300f7c:	61746164 	cmnvs	r4, r4, ror #2
  300f80:	726f6d20 	rsbvc	r6, pc, #32, 26	; 0x800
  300f84:	6e692065 	cdpvs	0, 6, cr2, cr9, cr5, {3}
  300f88:	20787220 	rsbscs	r7, r8, r0, lsr #4
  300f8c:	6f666966 	svcvs	0x00666966
  300f90:	67000a2e 	strvs	r0, [r0, -lr, lsr #20]
  300f94:	25207465 	strcs	r7, [r0, #-1125]!	; 0x465
  300f98:	79622064 	stmdbvc	r2!, {r2, r5, r6, sp}^
  300f9c:	2c736574 	cfldr64cs	mvdx6, [r3], #-464	; 0xfffffe30
  300fa0:	65726220 	ldrbvs	r6, [r2, #-544]!	; 0x220
  300fa4:	0a2e6b61 	beq	e9bd30 <__bss_end__+0xb9192c>
  300fa8:	61686300 	cmnvs	r8, r0, lsl #6
  300fac:	69742072 	ldmdbvs	r4!, {r1, r4, r5, r6, sp}^
  300fb0:	756f656d 	strbvc	r6, [pc, #-1389]!	; 300a4b <CSWTCH.17+0x253>
  300fb4:	78302074 	ldmdavc	r0!, {r2, r4, r5, r6, sp}
  300fb8:	6d207825 	stcvs	8, cr7, [r0, #-148]!	; 0xffffff6c
  300fbc:	72202c73 	eorvc	r2, r0, #29440	; 0x7300
  300fc0:	20766365 	rsbscs	r6, r6, r5, ror #6
  300fc4:	2e646e65 	cdpcs	14, 6, cr6, cr4, cr5, {3}
  300fc8:	74000a20 	strvc	r0, [r0], #-2592	; 0xa20
  300fcc:	6c61746f 	cfstrdvs	mvd7, [r1], #-444	; 0xfffffe44
  300fd0:	6d697420 	cfstrdvs	mvd7, [r9, #-128]!	; 0xffffff80
  300fd4:	74756f65 	ldrbtvc	r6, [r5], #-3941	; 0xf65
  300fd8:	25783020 	ldrbcs	r3, [r8, #-32]!
  300fdc:	736d2078 	cmnvc	sp, #120	; 0x78
  300fe0:	70000a20 	andvc	r0, r0, r0, lsr #20
  300fe4:	6f6c7961 	svcvs	0x006c7961
  300fe8:	6c206461 	cfstrsvs	mvf6, [r0], #-388	; 0xfffffe7c
  300fec:	74676e65 	strbtvc	r6, [r7], #-3685	; 0xe65
  300ff0:	6f742068 	svcvs	0x00742068
  300ff4:	6962206f 	stmdbvs	r2!, {r0, r1, r2, r3, r5, r6, sp}^
  300ff8:	78302867 	ldmdavc	r0!, {r0, r1, r2, r5, r6, fp, sp}
  300ffc:	20297825 	eorcs	r7, r9, r5, lsr #16
  301000:	65747962 	ldrbvs	r7, [r4, #-2402]!	; 0x962
  301004:	2a000a73 	bcs	3039d8 <upgrade_processing+0xe4>
  301008:	2a2a2a2a 	bcs	d8b8b8 <__bss_end__+0xa814b4>
  30100c:	646e6573 	strbtvs	r6, [lr], #-1395	; 0x573
  301010:	6b636120 	blvs	1bd9498 <__bss_end__+0x18cf094>
  301014:	6572000a 	ldrbvs	r0, [r2, #-10]!
  301018:	30207663 	eorcc	r7, r0, r3, ror #12
  30101c:	20453778 	subcs	r3, r5, r8, ror r7
  301020:	20646e61 	rsbcs	r6, r4, r1, ror #28
  301024:	646e6573 	strbtvs	r6, [lr], #-1395	; 0x573
  301028:	72657620 	rsbvc	r7, r5, #32, 12	; 0x2000000
  30102c:	6e6f6973 	mcrvs	9, 3, r6, cr15, cr3, {3}
  301030:	72000a2e 	andvc	r0, r0, #188416	; 0x2e000
  301034:	20766365 	rsbscs	r6, r6, r5, ror #6
  301038:	72617473 	rsbvc	r7, r1, #1929379840	; 0x73000000
  30103c:	68632074 	stmdavs	r3!, {r2, r4, r5, r6, sp}^
  301040:	30207261 	eorcc	r7, r0, r1, ror #4
  301044:	2c453778 	mcrrcs	7, 7, r3, r5, cr8
  301048:	646d6320 	strbtvs	r6, [sp], #-800	; 0x320
  30104c:	0a642520 	beq	1c0a4d4 <__bss_end__+0x19000d0>
  301050:	72756300 	rsbsvc	r6, r5, #0, 6
  301054:	746e6572 	strbtvc	r6, [lr], #-1394	; 0x572
  301058:	61747320 	cmnvs	r4, r0, lsr #6
  30105c:	69206574 	stmdbvs	r0!, {r2, r4, r5, r6, r8, sl, sp, lr}
  301060:	2c656c64 	stclcs	12, cr6, [r5], #-400	; 0xfffffe70
  301064:	6e617720 	cdpvs	7, 6, cr7, cr1, cr0, {1}
  301068:	6d632074 	stclvs	0, cr2, [r3, #-464]!	; 0xfffffe30
  30106c:	6f635f64 	svcvs	0x00635f64
  301070:	63656e6e 	cmnvs	r5, #1760	; 0x6e0
  301074:	62202c74 	eorvs	r2, r0, #116, 24	; 0x7400
  301078:	72207475 	eorvc	r7, r0, #1962934272	; 0x75000000
  30107c:	25206365 	strcs	r6, [r0, #-869]!	; 0x365
  301080:	63000a64 	movwvs	r0, #2660	; 0xa64
  301084:	65727275 	ldrbvs	r7, [r2, #-629]!	; 0x275
  301088:	7320746e 	teqvc	r0, #1845493760	; 0x6e000000
  30108c:	65746174 	ldrbvs	r6, [r4, #-372]!	; 0x174
  301090:	74616420 	strbtvc	r6, [r1], #-1056	; 0x420
  301094:	65725f61 	ldrbvs	r5, [r2, #-3937]!	; 0xf61
  301098:	202c7663 	eorcs	r7, ip, r3, ror #12
  30109c:	746e6177 	strbtvc	r6, [lr], #-375	; 0x177
  3010a0:	74616420 	strbtvc	r6, [r1], #-1056	; 0x420
  3010a4:	62202c61 	eorvs	r2, r0, #24832	; 0x6100
  3010a8:	72207475 	eorvc	r7, r0, #1962934272	; 0x75000000
  3010ac:	25206365 	strcs	r6, [r0, #-869]!	; 0x365
  3010b0:	67000a64 	strvs	r0, [r0, -r4, ror #20]
  3010b4:	64207465 	strtvs	r7, [r0], #-1125	; 0x465
  3010b8:	20617461 	rsbcs	r7, r1, r1, ror #8
  3010bc:	206f6f74 	rsbcs	r6, pc, r4, ror pc	; <UNPREDICTABLE>
  3010c0:	676e6f6c 	strbvs	r6, [lr, -ip, ror #30]!
  3010c4:	6e617728 	cdpvs	7, 6, cr7, cr1, cr8, {1}
  3010c8:	78303a74 	ldmdavc	r0!, {r2, r4, r5, r6, r9, fp, ip, sp}
  3010cc:	202c7825 	eorcs	r7, ip, r5, lsr #16
  3010d0:	76636572 			; <UNDEFINED> instruction: 0x76636572
  3010d4:	746f7420 	strbtvc	r7, [pc], #-1056	; 3010dc <CSWTCH.17+0x8e4>
  3010d8:	303a6c61 	eorscc	r6, sl, r1, ror #24
  3010dc:	29782578 	ldmdbcs	r8!, {r3, r4, r5, r6, r8, sl, sp}^
  3010e0:	000a202e 	andeq	r2, sl, lr, lsr #32
  3010e4:	6f746f67 	svcvs	0x00746f67
  3010e8:	65786520 	ldrbvs	r6, [r8, #-1312]!	; 0x520
  3010ec:	6c202c63 	stcvs	12, cr2, [r0], #-396	; 0xfffffe74
  3010f0:	303a6e65 	eorscc	r6, sl, r5, ror #28
  3010f4:	2c782578 	cfldr64cs	mvdx2, [r8], #-480	; 0xfffffe20
  3010f8:	63657220 	cmnvs	r5, #32, 4
  3010fc:	6f742076 	svcvs	0x00742076
  301100:	3a6c6174 	bcc	1e196d8 <__bss_end__+0x1b0f2d4>
  301104:	78257830 	stmdavc	r5!, {r4, r5, fp, ip, sp, lr}
  301108:	67000a20 	strvs	r0, [r0, -r0, lsr #20]
  30110c:	6e6f206f 	cdpvs	0, 6, cr2, cr15, cr15, {3}
  301110:	63657220 	cmnvs	r5, #32, 4
  301114:	6c202c76 	stcvs	12, cr2, [r0], #-472	; 0xfffffe28
  301118:	303a6e65 	eorscc	r6, sl, r5, ror #28
  30111c:	2c782578 	cfldr64cs	mvdx2, [r8], #-480	; 0xfffffe20
  301120:	63657220 	cmnvs	r5, #32, 4
  301124:	6f742076 	svcvs	0x00742076
  301128:	3a6c6174 	bcc	1e19700 <__bss_end__+0x1b0f2fc>
  30112c:	78257830 	stmdavc	r5!, {r4, r5, fp, ip, sp, lr}
  301130:	70000a20 	andvc	r0, r0, r0, lsr #20
  301134:	65737261 	ldrbvs	r7, [r3, #-609]!	; 0x261
  301138:	6d617220 	sfmvs	f7, 2, [r1, #-128]!	; 0xffffff80
  30113c:	7661735f 			; <UNDEFINED> instruction: 0x7661735f
  301140:	64615f65 	strbtvs	r5, [r1], #-3941	; 0xf65
  301144:	303d7264 	eorscc	r7, sp, r4, ror #4
  301148:	2c782578 	cfldr64cs	mvdx2, [r8], #-480	; 0xfffffe20
  30114c:	6d617220 	sfmvs	f7, 2, [r1, #-128]!	; 0xffffff80
  301150:	7661735f 			; <UNDEFINED> instruction: 0x7661735f
  301154:	656c5f65 	strbvs	r5, [ip, #-3941]!	; 0xf65
  301158:	78303d6e 	ldmdavc	r0!, {r1, r2, r3, r5, r6, r8, sl, fp, ip, sp}
  30115c:	0a207825 	beq	b1f1f8 <__bss_end__+0x814df4>
  301160:	72617000 	rsbvc	r7, r1, #0
  301164:	65206573 	strvs	r6, [r0, #-1395]!	; 0x573
  301168:	5f636578 	svcpl	0x00636578
  30116c:	72646461 	rsbvc	r6, r4, #1627389952	; 0x61000000
  301170:	2578303d 	ldrbcs	r3, [r8, #-61]!	; 0x3d
  301174:	000a2078 	andeq	r2, sl, r8, ror r0
  301178:	72617473 	rsbvc	r7, r1, #1929379840	; 0x73000000
  30117c:	64612074 	strbtvs	r2, [r1], #-116	; 0x74
  301180:	69207264 	stmdbvs	r0!, {r2, r5, r6, r9, ip, sp, lr}
  301184:	6c61766e 	stclvs	6, cr7, [r1], #-440	; 0xfffffe48
  301188:	303a6469 	eorscc	r6, sl, r9, ror #8
  30118c:	2c782578 	cfldr64cs	mvdx2, [r8], #-480	; 0xfffffe20
  301190:	6d696c20 	stclvs	12, cr6, [r9, #-128]!	; 0xffffff80
  301194:	283a7469 	ldmdacs	sl!, {r0, r3, r5, r6, sl, ip, sp, lr}
  301198:	78257830 	stmdavc	r5!, {r4, r5, fp, ip, sp, lr}
  30119c:	2578307e 	ldrbcs	r3, [r8, #-126]!	; 0x7e
  3011a0:	0a202978 	beq	b0b788 <__bss_end__+0x801384>
  3011a4:	61747300 	cmnvs	r4, r0, lsl #6
  3011a8:	64207472 	strtvs	r7, [r0], #-1138	; 0x472
  3011ac:	20617461 	rsbcs	r7, r1, r1, ror #8
  3011b0:	2c727265 	lfmcs	f7, 2, [r2], #-404	; 0xfffffe6c
  3011b4:	63657220 	cmnvs	r5, #32, 4
  3011b8:	61747320 	cmnvs	r4, r0, lsr #6
  3011bc:	61207472 	teqvs	r0, r2, ror r4
  3011c0:	3a726464 	bcc	1f9a358 <__bss_end__+0x1c8ff54>
  3011c4:	78257830 	stmdavc	r5!, {r4, r5, fp, ip, sp, lr}
  3011c8:	656c202c 	strbvs	r2, [ip, #-44]!	; 0x2c
  3011cc:	78303a6e 	ldmdavc	r0!, {r1, r2, r3, r5, r6, r9, fp, ip, sp}
  3011d0:	000a7825 	andeq	r7, sl, r5, lsr #16
  3011d4:	72727563 	rsbsvc	r7, r2, #415236096	; 0x18c00000
  3011d8:	20746e65 	rsbscs	r6, r4, r5, ror #28
  3011dc:	74617473 	strbtvc	r7, [r1], #-1139	; 0x473
  3011e0:	6f632065 	svcvs	0x00632065
  3011e4:	63656e6e 	cmnvs	r5, #1760	; 0x6e0
  3011e8:	77202c74 			; <UNDEFINED> instruction: 0x77202c74
  3011ec:	20746e61 	rsbscs	r6, r4, r1, ror #28
  3011f0:	20646d63 	rsbcs	r6, r4, r3, ror #26
  3011f4:	72617473 	rsbvc	r7, r1, #1929379840	; 0x73000000
  3011f8:	61645f74 	smcvs	17908	; 0x45f4
  3011fc:	202c6174 	eorcs	r6, ip, r4, ror r1
  301200:	20747562 	rsbscs	r7, r4, r2, ror #10
  301204:	20636572 	rsbcs	r6, r3, r2, ror r5
  301208:	000a6425 	andeq	r6, sl, r5, lsr #8
  30120c:	6b63616e 	blvs	1bd97cc <__bss_end__+0x18cf3c8>
  301210:	746f7420 	strbtvc	r7, [pc], #-1056	; 301218 <CSWTCH.17+0xa20>
  301214:	25286c61 	strcs	r6, [r8, #-3169]!	; 0xc61
  301218:	202c2964 	eorcs	r2, ip, r4, ror #18
  30121c:	7473756d 	ldrbtvc	r7, [r3], #-1389	; 0x56d
  301220:	73657220 	cmnvc	r5, #32, 4
  301224:	74207465 	strtvc	r7, [r0], #-1125	; 0x465
  301228:	4449206f 	strbmi	r2, [r9], #-111	; 0x6f
  30122c:	0a2e454c 	beq	e92764 <__bss_end__+0xb88360>
  301230:	6e657300 	cdpvs	3, 6, cr7, cr5, cr0, {0}
  301234:	616e2064 	cmnvs	lr, r4, rrx
  301238:	72206b63 	eorvc	r6, r0, #101376	; 0x18c00
  30123c:	74657365 	strbtvc	r7, [r5], #-869	; 0x365
  301240:	646e6120 	strbtvs	r6, [lr], #-288	; 0x120
  301244:	73657220 	cmnvc	r5, #32, 4
  301248:	74207465 	strtvc	r7, [r0], #-1125	; 0x465
  30124c:	6469206f 	strbtvs	r2, [r9], #-111	; 0x6f
  301250:	7320656c 	teqvc	r0, #108, 10	; 0x1b000000
  301254:	65746174 	ldrbvs	r6, [r4, #-372]!	; 0x174
  301258:	23000a2e 	movwcs	r0, #2606	; 0xa2e
  30125c:	23232323 	teqcs	r3, #-1946157056	; 0x8c000000
  301260:	65732023 	ldrbvs	r2, [r3, #-35]!	; 0x23
  301264:	6e20646e 	cdpvs	4, 2, cr6, cr0, cr14, {3}
  301268:	3a6b6361 	bcc	1dd9ff4 <__bss_end__+0x1acfbf0>
  30126c:	000a6425 	andeq	r6, sl, r5, lsr #8
  301270:	646e6573 	strbtvs	r6, [lr], #-1395	; 0x573
  301274:	72657620 	rsbvc	r7, r5, #32, 12	; 0x2000000
  301278:	6e6f6973 	mcrvs	9, 3, r6, cr15, cr3, {3}
  30127c:	63616220 	cmnvs	r1, #32, 4
  301280:	63000a6b 	movwvs	r0, #2667	; 0xa6b
  301284:	65727275 	ldrbvs	r7, [r2, #-629]!	; 0x275
  301288:	7320746e 	teqvc	r0, #1845493760	; 0x6e000000
  30128c:	65746174 	ldrbvs	r6, [r4, #-372]!	; 0x174
  301290:	746e6520 	strbtvc	r6, [lr], #-1312	; 0x520
  301294:	202c7265 	eorcs	r7, ip, r5, ror #4
  301298:	746e6177 	strbtvc	r6, [lr], #-375	; 0x177
  30129c:	37783020 	ldrbcc	r3, [r8, -r0, lsr #32]!
  3012a0:	62202c45 	eorvs	r2, r0, #17664	; 0x4500
  3012a4:	72207475 	eorvc	r7, r0, #1962934272	; 0x75000000
  3012a8:	25206365 	strcs	r6, [r0, #-869]!	; 0x365
  3012ac:	77000a64 	strvc	r0, [r0, -r4, ror #20]
  3012b0:	65746972 	ldrbvs	r6, [r4, #-2418]!	; 0x972
  3012b4:	206f7420 	rsbcs	r7, pc, r0, lsr #8
  3012b8:	73616c66 	cmnvc	r1, #26112	; 0x6600
  3012bc:	64612068 	strbtvs	r2, [r1], #-104	; 0x68
  3012c0:	303a7264 	eorscc	r7, sl, r4, ror #4
  3012c4:	0a782578 	beq	210a8ac <__bss_end__+0x1e004a8>
  3012c8:	67707500 	ldrbvs	r7, [r0, -r0, lsl #10]!
  3012cc:	65646172 	strbvs	r6, [r4, #-370]!	; 0x172
  3012d0:	64646120 	strbtvs	r6, [r4], #-288	; 0x120
  3012d4:	78302072 	ldmdavc	r0!, {r1, r4, r5, r6, sp}
  3012d8:	69207825 	stmdbvs	r0!, {r0, r2, r5, fp, ip, sp, lr}
  3012dc:	6c61766e 	stclvs	6, cr7, [r1], #-440	; 0xfffffe48
  3012e0:	20216469 	eorcs	r6, r1, r9, ror #8
  3012e4:	7865000a 	stmdavc	r5!, {r1, r3}^
  3012e8:	61206365 	teqvs	r0, r5, ror #6
  3012ec:	28726464 	ldmdacs	r2!, {r2, r5, r6, sl, sp, lr}^
  3012f0:	78257830 	stmdavc	r5!, {r4, r5, fp, ip, sp, lr}
  3012f4:	72652029 	rsbvc	r2, r5, #41	; 0x29
  3012f8:	0a726f72 	beq	1f9d0c8 <__bss_end__+0x1c92cc4>
  3012fc:	72756300 	rsbsvc	r6, r5, #0, 6
  301300:	746e6572 	strbtvc	r6, [lr], #-1394	; 0x572
  301304:	61747320 	cmnvs	r4, r0, lsr #6
  301308:	65206574 	strvs	r6, [r0, #-1396]!	; 0x574
  30130c:	5f636578 	svcpl	0x00636578
  301310:	61746164 	cmnvs	r4, r4, ror #2
  301314:	6177202c 	cmnvs	r7, ip, lsr #32
  301318:	6520746e 	strvs	r7, [r0, #-1134]!	; 0x46e
  30131c:	75636578 	strbvc	r6, [r3, #-1400]!	; 0x578
  301320:	64206574 	strtvs	r6, [r0], #-1396	; 0x574
  301324:	2c617461 	cfstrdcs	mvd7, [r1], #-388	; 0xfffffe7c
  301328:	74756220 	ldrbtvc	r6, [r5], #-544	; 0x220
  30132c:	63657220 	cmnvs	r5, #32, 4
  301330:	0a642520 	beq	1c0a7b8 <__bss_end__+0x19003b4>
  301334:	74616400 	strbtvc	r6, [r1], #-1024	; 0x400
  301338:	656c2061 	strbvs	r2, [ip, #-97]!	; 0x61
  30133c:	6166206e 	cmnvs	r6, lr, rrx
  301340:	25286c69 	strcs	r6, [r8, #-3177]!	; 0xc69
  301344:	000a2964 	andeq	r2, sl, r4, ror #18
  301348:	72616863 	rsbvc	r6, r1, #6488064	; 0x630000
  30134c:	7830282d 	ldmdavc	r0!, {r0, r2, r3, r5, fp, sp}
  301350:	2c297825 	stccs	8, cr7, [r9], #-148	; 0xffffff6c
  301354:	67707520 	ldrbvs	r7, [r0, -r0, lsr #10]!
  301358:	65646172 	strbvs	r6, [r4, #-370]!	; 0x172
  30135c:	6174735f 	cmnvs	r4, pc, asr r3
  301360:	3d206574 	cfstr32cc	mvfx6, [r0, #-464]!	; 0xfffffe30
  301364:	0a642520 	beq	1c0a7ec <__bss_end__+0x19003e8>
  301368:	63657200 	cmnvs	r5, #0, 4
  30136c:	61642076 	smcvs	16902	; 0x4206
  301370:	6c206174 	stfvss	f6, [r0], #-464	; 0xfffffe30
  301374:	253a6e65 	ldrcs	r6, [sl, #-3685]!	; 0xe65
  301378:	68000a64 	stmdavs	r0, {r2, r5, r6, r9, fp}
  30137c:	65646165 	strbvs	r6, [r4, #-357]!	; 0x165
  301380:	726f2072 	rsbvc	r2, pc, #114	; 0x72
  301384:	69617420 	stmdbvs	r1!, {r5, sl, ip, sp, lr}^
  301388:	6164206c 	cmnvs	r4, ip, rrx
  30138c:	65206174 	strvs	r6, [r0, #-372]!	; 0x174
  301390:	000a7272 	andeq	r7, sl, r2, ror r2
  301394:	64616568 	strbtvs	r6, [r1], #-1384	; 0x568
  301398:	64207265 	strtvs	r7, [r0], #-613	; 0x265
  30139c:	3a617461 	bcc	1b5e528 <__bss_end__+0x1854124>
  3013a0:	7830000a 	ldmdavc	r0!, {r1, r3}
  3013a4:	00207825 	eoreq	r7, r0, r5, lsr #16
  3013a8:	74200a0a 	strtvc	r0, [r0], #-2570	; 0xa0a
  3013ac:	206c6961 	rsbcs	r6, ip, r1, ror #18
  3013b0:	61746164 	cmnvs	r4, r4, ror #2
  3013b4:	0a000a3a 	beq	303ca4 <number.isra.1+0x4>
  3013b8:	69617420 	stmdbvs	r1!, {r5, sl, ip, sp, lr}^
  3013bc:	6164206c 	cmnvs	r4, ip, rrx
  3013c0:	64206174 	strtvs	r6, [r0], #-372	; 0x174
  3013c4:	3a656e6f 	bcc	1c5cd88 <__bss_end__+0x1952984>
  3013c8:	6170000a 	cmnvs	r0, sl
  3013cc:	20657372 	rsbcs	r7, r5, r2, ror r3
  3013d0:	61746164 	cmnvs	r4, r4, ror #2
  3013d4:	6e656c5f 	mcrvs	12, 3, r6, cr5, cr15, {2}
  3013d8:	2578303d 	ldrbcs	r3, [r8, #-61]!	; 0x3d
  3013dc:	6c202c78 	stcvs	12, cr2, [r0], #-480	; 0xfffffe20
  3013e0:	303d6e65 	eorscc	r6, sp, r5, ror #28
  3013e4:	2c782578 	cfldr64cs	mvdx2, [r8], #-480	; 0xfffffe20
  3013e8:	646d6320 	strbtvs	r6, [sp], #-800	; 0x320
  3013ec:	7079745f 	rsbsvc	r7, r9, pc, asr r4
  3013f0:	64253d65 	strtvs	r3, [r5], #-3429	; 0xd65
  3013f4:	6170000a 	cmnvs	r0, sl
  3013f8:	67616b63 	strbvs	r6, [r1, -r3, ror #22]!
  3013fc:	64282065 	strtvs	r2, [r8], #-101	; 0x65
  301400:	5f617461 	svcpl	0x00617461
  301404:	2d6e656c 	cfstr64cs	mvdx6, [lr, #-432]!	; 0xfffffe50
  301408:	296e656c 	stmdbcs	lr!, {r2, r3, r5, r6, r8, sl, sp, lr}^
  30140c:	746f6e20 	strbtvc	r6, [pc], #-3616	; 301414 <CSWTCH.17+0xc1c>
  301410:	74616d20 	strbtvc	r6, [r1], #-3360	; 0xd20
  301414:	25286863 	strcs	r6, [r8, #-2147]!	; 0x863
  301418:	64252d64 	strtvs	r2, [r5], #-3428	; 0xd64
  30141c:	63000a29 	movwvs	r0, #2601	; 0xa29
  301420:	745f646d 	ldrbvc	r6, [pc], #-1133	; 301428 <CSWTCH.17+0xc30>
  301424:	28657079 	stmdacs	r5!, {r0, r3, r4, r5, r6, ip, sp, lr}^
  301428:	20296425 	eorcs	r6, r9, r5, lsr #8
  30142c:	2c727265 	lfmcs	f7, 2, [r2], #-404	; 0xfffffe6c
  301430:	78616d20 	stmdavc	r1!, {r5, r8, sl, fp, sp, lr}^
  301434:	29642528 	stmdbcs	r4!, {r3, r5, r8, sl, sp}^
  301438:	7263000a 	rsbvc	r0, r3, #10
  30143c:	6b6f2063 	blvs	1ec95d0 <__bss_end__+0x1bbf1cc>
  301440:	646d632c 	strbtvs	r6, [sp], #-812	; 0x32c
  301444:	2578303a 	ldrbcs	r3, [r8, #-58]!	; 0x3a
  301448:	000a2078 	andeq	r2, sl, r8, ror r0
  30144c:	72677075 	rsbvc	r7, r7, #117	; 0x75
  301450:	5f656461 	svcpl	0x00656461
  301454:	74617473 	strbtvc	r7, [r1], #-1139	; 0x473
  301458:	64252865 	strtvs	r2, [r5], #-2149	; 0x865
  30145c:	72726529 	rsbsvc	r6, r2, #171966464	; 0xa400000
  301460:	202c726f 	eorcs	r7, ip, pc, ror #4
  301464:	646e6573 	strbtvs	r6, [lr], #-1395	; 0x573
  301468:	72726520 	rsbsvc	r6, r2, #32, 10	; 0x8000000
  30146c:	6120726f 	teqvs	r0, pc, ror #4
  301470:	7220646e 	eorvc	r6, r0, #1845493760	; 0x6e000000
  301474:	74657365 	strbtvc	r7, [r5], #-869	; 0x365
  301478:	61727420 	cmnvs	r2, r0, lsr #8
  30147c:	6566736e 	strbvs	r7, [r6, #-878]!	; 0x36e
  301480:	6e000a72 	mcrvs	10, 0, r0, cr0, cr2, {3}
  301484:	6164206f 	cmnvs	r4, pc, rrx
  301488:	25206174 	strcs	r6, [r0, #-372]!	; 0x174
  30148c:	6f6c2064 	svcvs	0x006c2064
  301490:	202c706f 	eorcs	r7, ip, pc, rrx
  301494:	65736572 	ldrbvs	r6, [r3, #-1394]!	; 0x572
  301498:	6f742074 	svcvs	0x00742074
  30149c:	4c444920 	mcrrmi	9, 2, r4, r4, cr0
  3014a0:	25000a45 	strcs	r0, [r0, #-2629]	; 0xa45
  3014a4:	6f6e2064 	svcvs	0x006e2064
  3014a8:	74616420 	strbtvc	r6, [r1], #-1056	; 0x420
  3014ac:	65722061 	ldrbvs	r2, [r2, #-97]!	; 0x61
  3014b0:	76696563 	strbtvc	r6, [r9], -r3, ror #10
  3014b4:	202c6465 	eorcs	r6, ip, r5, ror #8
  3014b8:	746e6f63 	strbtvc	r6, [lr], #-3939	; 0xf63
  3014bc:	65756e69 	ldrbvs	r6, [r5, #-3689]!	; 0xe69
  3014c0:	7075000a 	rsbsvc	r0, r5, sl
  3014c4:	64617267 	strbtvs	r7, [r1], #-615	; 0x267
  3014c8:	61645f65 	cmnvs	r4, r5, ror #30
  3014cc:	635f6174 	cmpvs	pc, #116, 2
  3014d0:	6b636568 	blvs	1bdaa78 <__bss_end__+0x18d0674>
  3014d4:	72726520 	rsbsvc	r6, r2, #32, 10	; 0x8000000
  3014d8:	29642528 	stmdbcs	r4!, {r3, r5, r8, sl, sp}^
  3014dc:	6573202c 	ldrbvs	r2, [r3, #-44]!	; 0x2c
  3014e0:	6e20646e 	cdpvs	4, 2, cr6, cr0, cr14, {3}
  3014e4:	0a6b6361 	beq	1dda270 <__bss_end__+0x1acfe6c>
  3014e8:	63657200 	cmnvs	r5, #0, 4
  3014ec:	65722076 	ldrbvs	r2, [r2, #-118]!	; 0x76
  3014f0:	20746573 	rsbscs	r6, r4, r3, ror r5
  3014f4:	2c646d63 	stclcs	13, cr6, [r4], #-396	; 0xfffffe74
  3014f8:	73657220 	cmnvc	r5, #32, 4
  3014fc:	73207465 	teqvc	r0, #1694498816	; 0x65000000
  301500:	65746174 	ldrbvs	r6, [r4, #-372]!	; 0x174
  301504:	646e6120 	strbtvs	r6, [lr], #-288	; 0x120
  301508:	72617020 	rsbvc	r7, r1, #32
  30150c:	000a2161 	andeq	r2, sl, r1, ror #2
  301510:	6c616564 	cfstr64vs	mvdx6, [r1], #-400	; 0xfffffe70
  301514:	67707520 	ldrbvs	r7, [r0, -r0, lsr #10]!
  301518:	65646172 	strbvs	r6, [r4, #-370]!	; 0x172
  30151c:	61747320 	cmnvs	r4, r0, lsr #6
  301520:	28206574 	stmdacs	r0!, {r2, r4, r5, r6, r8, sl, sp, lr}
  301524:	0a296425 	beq	d5a5c0 <__bss_end__+0xa501bc>
  301528:	25200a00 	strcs	r0, [r0, #-2560]!	; 0xa00
  30152c:	6f632064 	svcvs	0x00632064
  301530:	20746e75 	rsbscs	r6, r4, r5, ror lr
  301534:	75206f6e 	strvc	r6, [r0, #-3950]!	; 0xf6e
  301538:	61726770 	cmnvs	r2, r0, ror r7
  30153c:	74206564 	strtvc	r6, [r0], #-1380	; 0x564
  301540:	736c6f6f 	cmnvc	ip, #444	; 0x1bc
  301544:	6e65202c 	cdpvs	0, 6, cr2, cr5, cr12, {1}
  301548:	20726574 	rsbscs	r6, r2, r4, ror r5
  30154c:	5f646d63 	svcpl	0x00646d63
  301550:	706f6f6c 	rsbvc	r6, pc, ip, ror #30
  301554:	000a2021 	andeq	r2, sl, r1, lsr #32
  301558:	6573200a 	ldrbvs	r2, [r3, #-10]!
  30155c:	7463656c 	strbtvc	r6, [r3], #-1388	; 0x56c
  301560:	72617520 	rsbvc	r7, r1, #32, 10	; 0x8000000
  301564:	64252074 	strtvs	r2, [r5], #-116	; 0x74
  301568:	206f7420 	rsbcs	r7, pc, r0, lsr #8
  30156c:	72677075 	rsbvc	r7, r7, #117	; 0x75
  301570:	21656461 	cmncs	r5, r1, ror #8
  301574:	3c000a20 	stccc	10, cr0, [r0], {32}
  301578:	4c4c554e 	cfstr64mi	mvdx5, [ip], {78}	; 0x4e
  30157c:	7325003e 	teqvc	r5, #62	; 0x3e
  301580:	3a75253a 	bcc	204aa70 <__bss_end__+0x1d4066c>
  301584:	3a732520 	bcc	1fcaa0c <__bss_end__+0x1cc0608>
  301588:	73734120 	cmnvc	r3, #32, 2
  30158c:	69747265 	ldmdbvs	r4!, {r0, r2, r5, r6, r9, ip, sp, lr}^
  301590:	60206e6f 	eorvs	r6, r0, pc, ror #28
  301594:	20277325 	eorcs	r7, r7, r5, lsr #6
  301598:	6c696166 	stfvse	f6, [r9], #-408	; 0xfffffe68
  30159c:	002e6465 	eoreq	r6, lr, r5, ror #8
  3015a0:	6c6c2a25 	stclvs	10, cr2, [ip], #-148	; 0xffffff6c
  3015a4:	2e250075 	mcrcs	0, 1, r0, cr5, cr5, {3}
  3015a8:	7500732a 	strvc	r7, [r0, #-810]	; 0x32a
  3015ac:	36747261 	ldrbtcc	r7, [r4], -r1, ror #4
  3015b0:	3920372f 	stmdbcc	r0!, {r0, r1, r2, r3, r5, r8, r9, sl, ip, sp}
  3015b4:	30363132 	eorscc	r3, r6, r2, lsr r1
  3015b8:	61422030 	cmpvs	r2, r0, lsr r0
  3015bc:	61726475 	cmnvs	r2, r5, ror r4
  3015c0:	73206574 	teqvc	r0, #116, 10	; 0x1d000000
  3015c4:	69747465 	ldmdbvs	r4!, {r0, r2, r5, r6, sl, ip, sp, lr}^
  3015c8:	0a2e676e 	beq	e9b388 <__bss_end__+0xb90f84>
  3015cc:	6d756a00 	vldmdbvs	r5!, {s13-s12}
  3015d0:	72652070 	rsbvc	r2, r5, #112	; 0x70
  3015d4:	72202c72 	eorvc	r2, r0, #29184	; 0x7200
  3015d8:	72757465 	rsbsvc	r7, r5, #1694498816	; 0x65000000
  3015dc:	7e7e7e6e 	cdpvc	14, 7, cr7, cr14, cr14, {3}
  3015e0:	6f6e000a 	svcvs	0x006e000a
  3015e4:	65687320 	strbvs	r7, [r8, #-800]!	; 0x320
  3015e8:	202c6c6c 	eorcs	r6, ip, ip, ror #24
  3015ec:	6f206f67 	svcvs	0x00206f67
  3015f0:	7473206e 	ldrbtvc	r2, [r3], #-110	; 0x6e
  3015f4:	2e747261 	cdpcs	2, 7, cr7, cr4, cr1, {3}
  3015f8:	000a2e2e 	andeq	r2, sl, lr, lsr #28
  3015fc:	69206f6e 	stmdbvs	r0!, {r1, r2, r3, r5, r6, r8, r9, sl, fp, sp, lr}
  301600:	7475706e 	ldrbtvc	r7, [r5], #-110	; 0x6e
  301604:	206e6920 	rsbcs	r6, lr, r0, lsr #18
  301608:	2c536425 	cfldrdcs	mvd6, [r3], {37}	; 0x25
  30160c:	6e6f6320 	cdpvs	3, 6, cr6, cr15, cr0, {1}
  301610:	756e6974 	strbvc	r6, [lr, #-2420]!	; 0x974
  301614:	2e2e2e65 	cdpcs	14, 2, cr2, cr14, cr5, {3}
  301618:	6b73000a 	blvs	1fc1648 <__bss_end__+0x1cb7244>
  30161c:	25207069 	strcs	r7, [r0, #-105]!	; 0x69
  301620:	2e732064 	cdpcs	0, 7, cr2, cr3, cr4, {3}
  301624:	000a2e2e 	andeq	r2, sl, lr, lsr #28
  301628:	76636572 			; <UNDEFINED> instruction: 0x76636572
  30162c:	61686320 	cmnvs	r8, r0, lsr #6
  301630:	63252072 	teqvs	r5, #114	; 0x72
  301634:	7375202c 	cmnvc	r5, #44	; 0x2c
  301638:	73207265 	teqvc	r0, #1342177286	; 0x50000006
  30163c:	20706f74 	rsbscs	r6, r0, r4, ror pc
  301640:	20656874 	rsbcs	r6, r5, r4, ror r8
  301644:	676f7270 			; <UNDEFINED> instruction: 0x676f7270
  301648:	73736572 	cmnvc	r3, #478150656	; 0x1c800000
  30164c:	6f63202c 	svcvs	0x0063202c
  301650:	6e69746e 	cdpvs	4, 6, cr7, cr9, cr14, {3}
  301654:	2e2e6575 	mcrcs	5, 1, r6, cr14, cr5, {3}
  301658:	6e000a2e 	vmlavs.f32	s0, s0, s29
  30165c:	7075206f 	rsbsvc	r2, r5, pc, rrx
  301660:	64617267 	strbtvs	r7, [r1], #-615	; 0x267
  301664:	6f742065 	svcvs	0x00742065
  301668:	64206c6f 	strtvs	r6, [r0], #-3183	; 0xc6f
  30166c:	63657465 	cmnvs	r5, #1694498816	; 0x65000000
  301670:	20646574 	rsbcs	r6, r4, r4, ror r5
  301674:	25206e69 	strcs	r6, [r0, #-3689]!	; 0xe69
  301678:	2c736d64 	ldclcs	13, cr6, [r3], #-400	; 0xfffffe70
  30167c:	6e6f6320 	cdpvs	3, 6, cr6, cr15, cr0, {1}
  301680:	756e6974 	strbvc	r6, [lr, #-2420]!	; 0x974
  301684:	2e2e2e65 	cdpcs	14, 2, cr2, cr14, cr5, {3}
  301688:	250a000a 	strcs	r0, [sl, #-10]
  30168c:	4c422073 	mcrrmi	0, 7, r2, r2, cr3
  301690:	29732528 	ldmdbcs	r3!, {r3, r5, r8, sl, sp}^
  301694:	72657620 	rsbvc	r7, r5, #32, 12	; 0x2000000
  301698:	29732528 	ldmdbcs	r3!, {r3, r5, r8, sl, sp}^
  30169c:	656f000a 	strbvs	r0, [pc, #-10]!	; 30169a <CSWTCH.17+0xea2>
  3016a0:	3032006d 	eorscc	r0, r2, sp, rrx
  3016a4:	312d3931 	teqcc	sp, r1, lsr r9
  3016a8:	33322d30 	teqcc	r2, #48, 26	; 0xc00
  3016ac:	66663200 	strbtvs	r3, [r6], -r0, lsl #4
  3016b0:	66363036 			; <UNDEFINED> instruction: 0x66363036
  3016b4:	6f6e0037 	svcvs	0x006e0037
  3016b8:	73616620 	cmnvc	r1, #32, 12	; 0x2000000
  3016bc:	6f6f6274 	svcvs	0x006f6274
  3016c0:	6f622074 	svcvs	0x00622074
  3016c4:	6e69746f 	cdpvs	4, 6, cr7, cr9, cr15, {3}
  3016c8:	6f4e2e67 	svcvs	0x004e2e67
  3016cc:	6c616d72 	stclvs	13, cr6, [r1], #-456	; 0xfffffe38
  3016d0:	6f6f6220 	svcvs	0x006f6220
  3016d4:	676e6974 			; <UNDEFINED> instruction: 0x676e6974
  3016d8:	0a2e2e2e 	beq	e8cf98 <__bss_end__+0xb82b94>
  3016dc:	206f6e00 	rsbcs	r6, pc, r0, lsl #28
  3016e0:	6c656873 	stclvs	8, cr6, [r5], #-460	; 0xfffffe34
  3016e4:	77202c6c 	strvc	r2, [r0, -ip, ror #24]!
  3016e8:	656c6968 	strbvs	r6, [ip, #-2408]!	; 0x968
  3016ec:	20293128 	eorcs	r3, r9, r8, lsr #2
  3016f0:	72677075 	rsbvc	r7, r7, #117	; 0x75
  3016f4:	2e656461 	cdpcs	4, 6, cr6, cr5, cr1, {3}
  3016f8:	000a2e2e 	andeq	r2, sl, lr, lsr #28
  3016fc:	746e6f63 	strbtvc	r6, [lr], #-3939	; 0xf63
  301700:	6c6c6f72 	stclvs	15, cr6, [ip], #-456	; 0xfffffe38
  301704:	69207265 	stmdbvs	r0!, {r0, r2, r5, r6, r9, ip, sp, lr}
  301708:	75622073 	strbvc	r2, [r2, #-115]!	; 0x73
  30170c:	20217973 	eorcs	r7, r1, r3, ror r9
  301710:	75746572 	ldrbvc	r6, [r4, #-1394]!	; 0x572
  301714:	2e206e72 	mcrcs	14, 1, r6, cr0, cr2, {3}
  301718:	48002e2e 	stmdami	r0, {r1, r2, r3, r5, r9, sl, fp, sp}
  30171c:	77206461 	strvc	r6, [r0, -r1, ror #8]!
  301720:	65746972 	ldrbvs	r6, [r4, #-2418]!	; 0x972
  301724:	6425206e 	strtvs	r2, [r5], #-110	; 0x6e
  301728:	7371202c 	cmnvc	r1, #44	; 0x2c
  30172c:	74206970 	strtvc	r6, [r0], #-2416	; 0x970
  301730:	74203a78 	strtvc	r3, [r0], #-2680	; 0xa78
  301734:	5f655f78 	svcpl	0x00655f78
  301738:	6e756f63 	cdpvs	15, 7, cr6, cr5, cr3, {3}
  30173c:	203d2074 	eorscs	r2, sp, r4, ror r0
  301740:	202c6425 	eorcs	r6, ip, r5, lsr #8
  301744:	69707371 	ldmdbvs	r0!, {r0, r4, r5, r6, r8, r9, ip, sp, lr}^
  301748:	5f71725f 	svcpl	0x0071725f
  30174c:	6e656c64 	cdpvs	12, 6, cr6, cr5, cr4, {3}
  301750:	25203d20 	strcs	r3, [r0, #-3360]!	; 0xd20
  301754:	71000a64 	tstvc	r0, r4, ror #20
  301758:	20697073 	rsbcs	r7, r9, r3, ror r0
  30175c:	203a7872 	eorscs	r7, sl, r2, ror r8
  301760:	665f7872 			; <UNDEFINED> instruction: 0x665f7872
  301764:	756f635f 	strbvc	r6, [pc, #-863]!	; 30140d <CSWTCH.17+0xc15>
  301768:	3d20746e 	cfstrscc	mvf7, [r0, #-440]!	; 0xfffffe48
  30176c:	2c642520 	cfstr64cs	mvdx2, [r4], #-128	; 0xffffff80
  301770:	70737120 	rsbsvc	r7, r3, r0, lsr #2
  301774:	71725f69 	cmnvc	r2, r9, ror #30
  301778:	656c645f 	strbvs	r6, [ip, #-1119]!	; 0x45f
  30177c:	203d206e 	eorscs	r2, sp, lr, rrx
  301780:	000a6425 	andeq	r6, sl, r5, lsr #8
  301784:	69707371 	ldmdbvs	r0!, {r0, r4, r5, r6, r8, r9, ip, sp, lr}^
  301788:	6e65735f 	mcrvs	3, 3, r7, cr5, cr15, {2}
  30178c:	78785f64 	ldmdavc	r8!, {r2, r5, r6, r8, r9, sl, fp, ip, lr}^
  301790:	7461645f 	strbtvc	r6, [r1], #-1119	; 0x45f
  301794:	74202c61 	strtvc	r2, [r0], #-3169	; 0xc61
  301798:	656c5f78 	strbvs	r5, [ip, #-3960]!	; 0xf78
  30179c:	203d206e 	eorscs	r2, sp, lr, rrx
  3017a0:	000a6425 	andeq	r6, sl, r5, lsr #8
  3017a4:	20646d63 	rsbcs	r6, r4, r3, ror #26
  3017a8:	3025203d 	eorcc	r2, r5, sp, lsr r0
  3017ac:	202c7832 	eorcs	r7, ip, r2, lsr r8
  3017b0:	72646461 	rsbvc	r6, r4, #1627389952	; 0x61000000
  3017b4:	30203d20 	eorcc	r3, r0, r0, lsr #26
  3017b8:	2c782578 	cfldr64cs	mvdx2, [r8], #-480	; 0xfffffe20
  3017bc:	5f787220 	svcpl	0x00787220
  3017c0:	206e656c 	rsbcs	r6, lr, ip, ror #10
  3017c4:	6425203d 	strtvs	r2, [r5], #-61	; 0x3d
  3017c8:	646e202c 	strbtvs	r2, [lr], #-44	; 0x2c
  3017cc:	203d2066 	eorscs	r2, sp, r6, rrx
  3017d0:	202c6425 	eorcs	r6, ip, r5, lsr #8
  3017d4:	20726874 	rsbscs	r6, r2, r4, ror r8
  3017d8:	6425203d 	strtvs	r2, [r5], #-61	; 0x3d
  3017dc:	4644000a 	strbmi	r0, [r4], -sl
  3017e0:	203d2053 	eorscs	r2, sp, r3, asr r0
  3017e4:	69206425 	stmdbvs	r0!, {r0, r2, r5, sl, sp, lr}
  3017e8:	6f6e2073 	svcvs	0x006e2073
  3017ec:	75732074 	ldrbvc	r2, [r3, #-116]!	; 0x74
  3017f0:	726f7070 	rsbvc	r7, pc, #112	; 0x70
  3017f4:	72202c74 	eorvc	r2, r0, #116, 24	; 0x7400
  3017f8:	72757465 	rsbsvc	r7, r5, #1694498816	; 0x65000000
  3017fc:	000a216e 	andeq	r2, sl, lr, ror #2
  301800:	20646d63 	rsbcs	r6, r4, r3, ror #26
  301804:	3025203d 	eorcc	r2, r5, sp, lsr r0
  301808:	202c7832 	eorcs	r7, ip, r2, lsr r8
  30180c:	6c5f7872 	mrrcvs	8, 7, r7, pc, cr2	; <UNPREDICTABLE>
  301810:	3d206e65 	stccc	14, cr6, [r0, #-404]!	; 0xfffffe6c
  301814:	0a642520 	beq	1c0ac9c <__bss_end__+0x1900898>
  301818:	5f6c6600 	svcpl	0x006c6600
  30181c:	63736572 	cmnvs	r3, #478150656	; 0x1c800000
  301820:	64206e61 	strtvs	r6, [r0], #-3681	; 0xe61
  301824:	63697665 	cmnvs	r9, #105906176	; 0x6500000
  301828:	616d2065 	cmnvs	sp, r5, rrx
  30182c:	20686374 	rsbcs	r6, r8, r4, ror r3
  301830:	6c696166 	stfvse	f6, [r9], #-408	; 0xfffffe68
  301834:	000a6465 	andeq	r6, sl, r5, ror #8
  301838:	65736572 	ldrbvs	r6, [r3, #-1394]!	; 0x572
  30183c:	2e2e2074 	mcrcs	0, 1, r2, cr14, cr4, {3}
  301840:	72000a2e 	andvc	r0, r0, #188416	; 0x2e000
  301844:	20646165 	rsbcs	r6, r4, r5, ror #2
  301848:	20206469 	eorcs	r6, r0, r9, ror #8
  30184c:	20202020 	eorcs	r2, r0, r0, lsr #32
  301850:	20202020 	eorcs	r2, r0, r0, lsr #32
  301854:	3a202020 	bcc	b098dc <__bss_end__+0x7ff4d8>
  301858:	32302520 	eorscc	r2, r0, #32, 10	; 0x8000000
  30185c:	30252078 	eorcc	r2, r5, r8, ror r0
  301860:	000a7832 	andeq	r7, sl, r2, lsr r8
  301864:	69206472 	stmdbvs	r0!, {r1, r4, r5, r6, sl, sp, lr}
  301868:	454a2864 	strbmi	r2, [sl, #-2148]	; 0x864
  30186c:	29444544 	stmdbcs	r4, {r2, r6, r8, sl, lr}^
  301870:	20202020 	eorcs	r2, r0, r0, lsr #32
  301874:	20202020 	eorcs	r2, r0, r0, lsr #32
  301878:	2500203a 	strcs	r2, [r0, #-58]	; 0x3a
  30187c:	00783230 	rsbseq	r3, r8, r0, lsr r2
  301880:	62616e65 	rsbvs	r6, r1, #1616	; 0x650
  301884:	6400656c 	strvs	r6, [r0], #-1388	; 0x56c
  301888:	62617369 	rsbvs	r7, r1, #-1543503871	; 0xa4000001
  30188c:	7200656c 	andvc	r6, r0, #108, 10	; 0x1b000000
  301890:	6f696765 	svcvs	0x00696765
  301894:	203d206e 	eorscs	r2, sp, lr, rrx
  301898:	25206425 	strcs	r6, [r0, #-1061]!	; 0x425
  30189c:	54000a73 	strpl	r0, [r0], #-2675	; 0xa73
  3018a0:	20747365 	rsbscs	r7, r4, r5, ror #6
  3018a4:	6465656e 	strbtvs	r6, [r5], #-1390	; 0x56e
  3018a8:	20642520 	rsbcs	r2, r4, r0, lsr #10
  3018ac:	28207375 	stmdacs	r0!, {r0, r2, r4, r5, r6, r8, r9, ip, sp, lr}
  3018b0:	6d206425 	cfstrsvs	mvf6, [r0, #-148]!	; 0xffffff6c
  3018b4:	000a2973 	andeq	r2, sl, r3, ror r9
  3018b8:	20646d63 	rsbcs	r6, r4, r3, ror #26
  3018bc:	78323025 	ldmdavc	r2!, {r0, r2, r5, ip, sp}
  3018c0:	73000a20 	movwvc	r0, #2592	; 0xa20
  3018c4:	6e206970 	mcrvs	9, 1, r6, cr0, cr0, {3}
  3018c8:	20646565 	rsbcs	r6, r4, r5, ror #10
  3018cc:	000a6425 	andeq	r6, sl, r5, lsr #8
  3018d0:	20646d63 	rsbcs	r6, r4, r3, ror #26
  3018d4:	78323025 	ldmdavc	r2!, {r0, r2, r5, ip, sp}
  3018d8:	25202c20 	strcs	r2, [r0, #-3104]!	; 0xc20
  3018dc:	64000a64 	strvs	r0, [r0], #-2660	; 0xa64
  3018e0:	25207366 	strcs	r7, [r0, #-870]!	; 0x366
  3018e4:	6e692064 	cdpvs	0, 6, cr2, cr9, cr4, {3}
  3018e8:	696c6176 	stmdbvs	ip!, {r1, r2, r4, r5, r6, r8, sp, lr}^
  3018ec:	66000a64 	strvs	r0, [r0], -r4, ror #20
  3018f0:	65725f6c 	ldrbvs	r5, [r2, #-3948]!	; 0xf6c
  3018f4:	6e616373 	mcrvs	3, 3, r6, cr1, cr3, {3}
  3018f8:	69616620 	stmdbvs	r1!, {r5, r9, sl, sp, lr}^
  3018fc:	0a64656c 	beq	1c1aeb4 <__bss_end__+0x1910ab0>
  301900:	5f6c6600 	svcpl	0x006c6600
  301904:	72677075 	rsbvc	r7, r7, #117	; 0x75
  301908:	20656461 	rsbcs	r6, r5, r1, ror #8
  30190c:	6c696166 	stfvse	f6, [r9], #-408	; 0xfffffe68
  301910:	000a6465 	andeq	r6, sl, r5, ror #8
  301914:	72646461 	rsbvc	r6, r4, #1627389952	; 0x61000000
  301918:	766e6920 	strbtvc	r6, [lr], -r0, lsr #18
  30191c:	64696c61 	strbtvs	r6, [r9], #-3169	; 0xc61
  301920:	754d202e 	strbvc	r2, [sp, #-46]	; 0x2e
  301924:	62207473 	eorvs	r7, r0, #1929379840	; 0x73000000
  301928:	6c612065 	stclvs	0, cr2, [r1], #-404	; 0xfffffe6c
  30192c:	656e6769 	strbvs	r6, [lr, #-1897]!	; 0x769
  301930:	6f742064 	svcvs	0x00742064
  301934:	284b2520 	stmdacs	fp, {r5, r8, sl, sp}^
  301938:	74636573 	strbtvc	r6, [r3], #-1395	; 0x573
  30193c:	7320726f 	teqvc	r0, #-268435450	; 0xf0000006
  301940:	20657a69 	rsbcs	r7, r5, r9, ror #20
  301944:	6620666f 	strtvs	r6, [r0], -pc, ror #12
  301948:	6873616c 	ldmdavs	r3!, {r2, r3, r5, r6, r8, sp, lr}^
  30194c:	000a2129 	andeq	r2, sl, r9, lsr #2
  301950:	65206f6e 	strvs	r6, [r0, #-3950]!	; 0xf6e
  301954:	67756f6e 	ldrbvs	r6, [r5, -lr, ror #30]!
  301958:	61702068 	cmnvs	r0, r8, rrx
  30195c:	202e6172 	eorcs	r6, lr, r2, ror r1
  301960:	75706e49 	ldrbvc	r6, [r0, #-3657]!	; 0xe49
  301964:	65682074 	strbvs	r2, [r8, #-116]!	; 0x74
  301968:	7420706c 	strtvc	r7, [r0], #-108	; 0x6c
  30196c:	6567206f 	strbvs	r2, [r7, #-111]!	; 0x6f
  301970:	65642074 	strbvs	r2, [r4, #-116]!	; 0x74
  301974:	69726373 	ldmdbvs	r2!, {r0, r1, r4, r5, r6, r8, r9, sp, lr}^
  301978:	6f697470 	svcvs	0x00697470
  30197c:	000a216e 	andeq	r2, sl, lr, ror #2
  301980:	74697277 	strbtvc	r7, [r9], #-631	; 0x277
  301984:	74732065 	ldrbtvc	r2, [r3], #-101	; 0x65
  301988:	73757461 	cmnvc	r5, #1627389952	; 0x61000000
  30198c:	69616620 	stmdbvs	r1!, {r5, r9, sl, sp, lr}^
  301990:	2c64656c 	cfstr64cs	mvdx6, [r4], #-432	; 0xfffffe50
  301994:	61747320 	cmnvs	r4, r0, lsr #6
  301998:	20737574 	rsbscs	r7, r3, r4, ror r5
  30199c:	253a7830 	ldrcs	r7, [sl, #-2096]!	; 0x830
  3019a0:	25000a78 	strcs	r0, [r0, #-2680]	; 0xa78
  3019a4:	72703a73 	rsbsvc	r3, r0, #471040	; 0x73000
  3019a8:	6172676f 	cmnvs	r2, pc, ror #14
  3019ac:	6461206d 	strbtvs	r2, [r1], #-109	; 0x6d
  3019b0:	30207264 	eorcc	r7, r0, r4, ror #4
  3019b4:	20782578 	rsbscs	r2, r8, r8, ror r5
  3019b8:	6c696166 	stfvse	f6, [r9], #-408	; 0xfffffe68
  3019bc:	202c6465 	eorcs	r6, ip, r5, ror #8
  3019c0:	74617473 	strbtvc	r7, [r1], #-1139	; 0x473
  3019c4:	30207375 	eorcc	r7, r0, r5, ror r3
  3019c8:	78253a78 	stmdavc	r5!, {r3, r4, r5, r6, r9, fp, ip, sp}
  3019cc:	7325000a 	teqvc	r5, #10
  3019d0:	6572773a 	ldrbvs	r7, [r2, #-1850]!	; 0x73a
  3019d4:	6964206e 	stmdbvs	r4!, {r1, r2, r3, r5, r6, sp}^
  3019d8:	6c626173 	stfvse	f6, [r2], #-460	; 0xfffffe34
  3019dc:	73202c65 	teqvc	r0, #25856	; 0x6500
  3019e0:	75746174 	ldrbvc	r6, [r4, #-372]!	; 0x174
  3019e4:	20200973 	eorcs	r0, r0, r3, ror r9
  3019e8:	2578303a 	ldrbcs	r3, [r8, #-58]!	; 0x3a
  3019ec:	65000a78 	strvs	r0, [r0, #-2680]	; 0xa78
  3019f0:	65736172 	ldrbvs	r6, [r3, #-370]!	; 0x172
  3019f4:	64646120 	strbtvs	r6, [r4], #-288	; 0x120
  3019f8:	78302072 	ldmdavc	r0!, {r1, r4, r5, r6, sp}
  3019fc:	66207825 	strtvs	r7, [r0], -r5, lsr #16
  301a00:	656c6961 	strbvs	r6, [ip, #-2401]!	; 0x961
  301a04:	73202c64 	teqvc	r0, #100, 24	; 0x6400
  301a08:	75746174 	ldrbvc	r6, [r4, #-372]!	; 0x174
  301a0c:	303a2073 	eorscc	r2, sl, r3, ror r0
  301a10:	0a782578 	beq	210aff8 <__bss_end__+0x1e00bf4>
  301a14:	65727700 	ldrbvs	r7, [r2, #-1792]!	; 0x700
  301a18:	6964206e 	stmdbvs	r4!, {r1, r2, r3, r5, r6, sp}^
  301a1c:	6c626173 	stfvse	f6, [r2], #-460	; 0xfffffe34
  301a20:	73202c65 	teqvc	r0, #25856	; 0x6500
  301a24:	75746174 	ldrbvc	r6, [r4, #-372]!	; 0x174
  301a28:	20092073 	andcs	r2, r9, r3, ror r0
  301a2c:	20202020 	eorcs	r2, r0, r0, lsr #32
  301a30:	303a2020 	eorscc	r2, sl, r0, lsr #32
  301a34:	0a782578 	beq	210b01c <__bss_end__+0x1e00c18>
  301a38:	69686300 	stmdbvs	r8!, {r8, r9, sp, lr}^
  301a3c:	72652070 	rsbvc	r2, r5, #112	; 0x70
  301a40:	20657361 	rsbcs	r7, r5, r1, ror #6
  301a44:	6c696166 	stfvse	f6, [r9], #-408	; 0xfffffe68
  301a48:	202c6465 	eorcs	r6, ip, r5, ror #8
  301a4c:	74617473 	strbtvc	r7, [r1], #-1139	; 0x473
  301a50:	3a207375 	bcc	b1e82c <__bss_end__+0x814428>
  301a54:	78257830 	stmdavc	r5!, {r4, r5, fp, ip, sp, lr}
  301a58:	7277000a 	rsbsvc	r0, r7, #10
  301a5c:	20657469 	rsbcs	r7, r5, r9, ror #8
  301a60:	20535057 	subscs	r5, r3, r7, asr r0
  301a64:	6c696166 	stfvse	f6, [r9], #-408	; 0xfffffe68
  301a68:	00216465 	eoreq	r6, r1, r5, ror #8
  301a6c:	203a7325 	eorscs	r7, sl, r5, lsr #6
  301a70:	3d535057 	ldclcc	0, cr5, [r3, #-348]	; 0xfffffea4
  301a74:	662c2031 			; <UNDEFINED> instruction: 0x662c2031
  301a78:	656c6961 	strbvs	r6, [ip, #-2401]!	; 0x961
  301a7c:	000a2164 	andeq	r2, sl, r4, ror #2
  301a80:	6c696166 	stfvse	f6, [r9], #-408	; 0xfffffe68
  301a84:	20216465 	eorcs	r6, r1, r5, ror #8
  301a88:	6465656e 	strbtvs	r6, [r5], #-1390	; 0x56e
  301a8c:	69747520 	ldmdbvs	r4!, {r5, r8, sl, ip, sp, lr}^
  301a90:	657a696c 	ldrbvs	r6, [sl, #-2412]!	; 0x96c
  301a94:	646e6920 	strbtvs	r6, [lr], #-2336	; 0x920
  301a98:	64697669 	strbtvs	r7, [r9], #-1641	; 0x669
  301a9c:	206c6175 	rsbcs	r6, ip, r5, ror r1
  301aa0:	636f6c62 	cmnvs	pc, #25088	; 0x6200
  301aa4:	6f6c206b 	svcvs	0x006c206b
  301aa8:	283b6b63 	ldmdacs	fp!, {r0, r1, r5, r6, r8, r9, fp, sp, lr}
  301aac:	20737077 	rsbscs	r7, r3, r7, ror r0
  301ab0:	0a29313d 	beq	d4dfac <__bss_end__+0xa43ba8>
  301ab4:	61747300 	cmnvs	r4, r0, lsl #6
  301ab8:	2d737574 	cfldr64cs	mvdx7, [r3, #-464]!	; 0xfffffe30
  301abc:	20090931 	andcs	r0, r9, r1, lsr r9
  301ac0:	3a202020 	bcc	b09b48 <__bss_end__+0x7ff744>
  301ac4:	25783020 	ldrbcs	r3, [r8, #-32]!
  301ac8:	73000a78 	movwvc	r0, #2680	; 0xa78
  301acc:	75746174 	ldrbvc	r6, [r4, #-372]!	; 0x174
  301ad0:	09322d73 	ldmdbeq	r2!, {r0, r1, r4, r5, r6, r8, sl, fp, sp}
  301ad4:	20202009 	eorcs	r2, r0, r9
  301ad8:	30203a20 	eorcc	r3, r0, r0, lsr #20
  301adc:	0a782578 	beq	210b0c4 <__bss_end__+0x1e00cc0>
  301ae0:	61747300 	cmnvs	r4, r0, lsl #6
  301ae4:	2d737574 	cfldr64cs	mvdx7, [r3, #-464]!	; 0xfffffe30
  301ae8:	20090933 	andcs	r0, r9, r3, lsr r9
  301aec:	3a202020 	bcc	b09b74 <__bss_end__+0x7ff770>
  301af0:	25783020 	ldrbcs	r3, [r8, #-32]!
  301af4:	65000a78 	strvs	r0, [r0, #-2680]	; 0xa78
  301af8:	6e657478 	mcrvs	4, 3, r7, cr5, cr8, {3}
  301afc:	64612064 	strbtvs	r2, [r1], #-100	; 0x64
  301b00:	09097264 	stmdbeq	r9, {r2, r5, r6, r9, ip, sp, lr}
  301b04:	20202020 	eorcs	r2, r0, r0, lsr #32
  301b08:	7830203a 	ldmdavc	r0!, {r1, r3, r4, r5, sp}
  301b0c:	000a7825 	andeq	r7, sl, r5, lsr #16
  301b10:	73707728 	cmnvc	r0, #40, 14	; 0xa00000
  301b14:	30203d20 	eorcc	r3, r0, r0, lsr #26
  301b18:	6e202c29 	cdpvs	12, 2, cr2, cr0, cr9, {1}
  301b1c:	6920746f 	stmdbvs	r0!, {r0, r1, r2, r3, r5, r6, sl, ip, sp, lr}
  301b20:	6c62206e 	stclvs	0, cr2, [r2], #-440	; 0xfffffe48
  301b24:	206b636f 	rsbcs	r6, fp, pc, ror #6
  301b28:	746f7270 	strbtvc	r7, [pc], #-624	; 301b30 <CSWTCH.17+0x1338>
  301b2c:	69746365 	ldmdbvs	r4!, {r0, r2, r5, r6, r8, r9, sp, lr}^
  301b30:	6d206e6f 	stcvs	14, cr6, [r0, #-444]!	; 0xfffffe44
  301b34:	2165646f 	cmncs	r5, pc, ror #8
  301b38:	6572000a 	ldrbvs	r0, [r2, #-10]!
  301b3c:	62206461 	eorvs	r6, r0, #1627389952	; 0x61000000
  301b40:	6b636f6c 	blvs	1bdd8f8 <__bss_end__+0x18d34f4>
  301b44:	636f6c20 	cmnvs	pc, #32, 24	; 0x2000
  301b48:	7473206b 	ldrbtvc	r2, [r3], #-107	; 0x6b
  301b4c:	73757461 	cmnvc	r5, #1627389952	; 0x61000000
  301b50:	72726520 	rsbsvc	r6, r2, #32, 10	; 0x8000000
  301b54:	0021726f 	eoreq	r7, r1, pc, ror #4
  301b58:	203a7325 	eorscs	r7, sl, r5, lsr #6
  301b5c:	62616e65 	rsbvs	r6, r1, #1616	; 0x650
  301b60:	7720656c 	strvc	r6, [r0, -ip, ror #10]!
  301b64:	66207370 			; <UNDEFINED> instruction: 0x66207370
  301b68:	656c6961 	strbvs	r6, [ip, #-2401]!	; 0x961
  301b6c:	000a2164 	andeq	r2, sl, r4, ror #2
  301b70:	6175200a 	cmnvs	r5, sl
  301b74:	62207472 	eorvs	r7, r0, #1912602624	; 0x72000000
  301b78:	2c797375 	ldclcs	3, cr7, [r9], #-468	; 0xfffffe2c
  301b7c:	74657220 	strbtvc	r7, [r5], #-544	; 0x220
  301b80:	216e7275 	smccs	59173	; 0xe725
  301b84:	6f70000a 	svcvs	0x0070000a
  301b88:	253a7472 	ldrcs	r7, [sl, #-1138]!	; 0x472
  301b8c:	73202c64 	teqvc	r0, #100, 24	; 0x6400
  301b90:	642d6d63 	strtvs	r6, [sp], #-3427	; 0xd63
  301b94:	303a7669 	eorscc	r7, sl, r9, ror #12
  301b98:	2c782578 	cfldr64cs	mvdx2, [r8], #-480	; 0xfffffe20
  301b9c:	76696420 	strbtvc	r6, [r9], -r0, lsr #8
  301ba0:	2c64253a 	cfstr64cs	mvdx2, [r4], #-232	; 0xffffff18
  301ba4:	75616220 	strbvc	r6, [r1, #-544]!	; 0x220
  301ba8:	64253a74 	strtvs	r3, [r5], #-2676	; 0xa74
  301bac:	0000000a 	andeq	r0, r0, sl

00301bb0 <pll_init>:
  301bb0:	b510      	push	{r4, lr}
  301bb2:	4c06      	ldr	r4, [pc, #24]	; (301bcc <pll_init+0x1c>)
  301bb4:	4620      	mov	r0, r4
  301bb6:	f000 f993 	bl	301ee0 <pll1_set_rate_kHz>
  301bba:	4805      	ldr	r0, [pc, #20]	; (301bd0 <pll_init+0x20>)
  301bbc:	f000 f9ee 	bl	301f9c <pll2_set_rate_kHz>
  301bc0:	4620      	mov	r0, r4
  301bc2:	e8bd 4010 	ldmia.w	sp!, {r4, lr}
  301bc6:	f000 ba45 	b.w	302054 <pll3_set_rate_kHz>
  301bca:	bf00      	nop
  301bcc:	000c3500 	andeq	r3, ip, r0, lsl #10
  301bd0:	00116520 	andseq	r6, r1, r0, lsr #10

00301bd4 <pll_print>:
  301bd4:	b510      	push	{r4, lr}
  301bd6:	4c11      	ldr	r4, [pc, #68]	; (301c1c <pll_print+0x48>)
  301bd8:	4811      	ldr	r0, [pc, #68]	; (301c20 <pll_print+0x4c>)
  301bda:	6961      	ldr	r1, [r4, #20]
  301bdc:	f002 fbf6 	bl	3043cc <printf>
  301be0:	69a1      	ldr	r1, [r4, #24]
  301be2:	4810      	ldr	r0, [pc, #64]	; (301c24 <pll_print+0x50>)
  301be4:	f002 fbf2 	bl	3043cc <printf>
  301be8:	f000 f964 	bl	301eb4 <pll0_get_rate_kHz>
  301bec:	4601      	mov	r1, r0
  301bee:	480e      	ldr	r0, [pc, #56]	; (301c28 <pll_print+0x54>)
  301bf0:	f002 fbec 	bl	3043cc <printf>
  301bf4:	f000 f9ba 	bl	301f6c <pll1_get_rate_kHz>
  301bf8:	4601      	mov	r1, r0
  301bfa:	480c      	ldr	r0, [pc, #48]	; (301c2c <pll_print+0x58>)
  301bfc:	f002 fbe6 	bl	3043cc <printf>
  301c00:	f000 fa12 	bl	302028 <pll2_get_rate_kHz>
  301c04:	4601      	mov	r1, r0
  301c06:	480a      	ldr	r0, [pc, #40]	; (301c30 <pll_print+0x5c>)
  301c08:	f002 fbe0 	bl	3043cc <printf>
  301c0c:	f000 fa6e 	bl	3020ec <pll3_get_rate_kHz>
  301c10:	e8bd 4010 	ldmia.w	sp!, {r4, lr}
  301c14:	4601      	mov	r1, r0
  301c16:	4807      	ldr	r0, [pc, #28]	; (301c34 <pll_print+0x60>)
  301c18:	f002 bbd8 	b.w	3043cc <printf>
  301c1c:	c01d0000 	andsgt	r0, sp, r0
  301c20:	003008bd 	ldrhteq	r0, [r0], -sp
  301c24:	003008d0 	ldrsbteq	r0, [r0], -r0
  301c28:	003008e3 	eorseq	r0, r0, r3, ror #17
  301c2c:	003008f0 	ldrshteq	r0, [r0], -r0
  301c30:	003008fd 	ldrshteq	r0, [r0], -sp
  301c34:	0030090a 	eorseq	r0, r0, sl, lsl #18

00301c38 <pll_test>:
  301c38:	b538      	push	{r3, r4, r5, lr}
  301c3a:	4c0c      	ldr	r4, [pc, #48]	; (301c6c <pll_test+0x34>)
  301c3c:	4d0c      	ldr	r5, [pc, #48]	; (301c70 <pll_test+0x38>)
  301c3e:	480d      	ldr	r0, [pc, #52]	; (301c74 <pll_test+0x3c>)
  301c40:	f002 fbc4 	bl	3043cc <printf>
  301c44:	4620      	mov	r0, r4
  301c46:	f000 f94b 	bl	301ee0 <pll1_set_rate_kHz>
  301c4a:	4620      	mov	r0, r4
  301c4c:	f000 f9a6 	bl	301f9c <pll2_set_rate_kHz>
  301c50:	4620      	mov	r0, r4
  301c52:	f504 34c3 	add.w	r4, r4, #99840	; 0x18600
  301c56:	f000 f9fd 	bl	302054 <pll3_set_rate_kHz>
  301c5a:	34a0      	adds	r4, #160	; 0xa0
  301c5c:	f7ff ffba 	bl	301bd4 <pll_print>
  301c60:	4804      	ldr	r0, [pc, #16]	; (301c74 <pll_test+0x3c>)
  301c62:	f002 fbb3 	bl	3043cc <printf>
  301c66:	42ac      	cmp	r4, r5
  301c68:	d1e9      	bne.n	301c3e <pll_test+0x6>
  301c6a:	bd38      	pop	{r3, r4, r5, pc}
  301c6c:	0007a120 	andeq	sl, r7, r0, lsr #2
  301c70:	00186a00 	andseq	r6, r8, r0, lsl #20
  301c74:	00300917 	eorseq	r0, r0, r7, lsl r9

00301c78 <clk_en_set>:
  301c78:	b508      	push	{r3, lr}
  301c7a:	200b      	movs	r0, #11
  301c7c:	f005 fc40 	bl	307500 <clk_enable>
  301c80:	200d      	movs	r0, #13
  301c82:	f005 fc3d 	bl	307500 <clk_enable>
  301c86:	200f      	movs	r0, #15
  301c88:	f005 fc3a 	bl	307500 <clk_enable>
  301c8c:	2010      	movs	r0, #16
  301c8e:	f005 fc37 	bl	307500 <clk_enable>
  301c92:	2015      	movs	r0, #21
  301c94:	e8bd 4008 	ldmia.w	sp!, {r3, lr}
  301c98:	f005 bc32 	b.w	307500 <clk_enable>

00301c9c <pin_mux_set>:
  301c9c:	4770      	bx	lr

00301c9e <prcm_init>:
  301c9e:	f7ff bf87 	b.w	301bb0 <pll_init>

00301ca2 <chip_early_init_f>:
  301ca2:	b508      	push	{r3, lr}
  301ca4:	f7ff ffe8 	bl	301c78 <clk_en_set>
  301ca8:	f44f 30e1 	mov.w	r0, #115200	; 0x1c200
  301cac:	f002 fcca 	bl	304644 <dbg_serial_init>
  301cb0:	f7fe fab7 	bl	300222 <arch_timer_starting_cpu>
  301cb4:	2000      	movs	r0, #0
  301cb6:	bd08      	pop	{r3, pc}

00301cb8 <early_system_init>:
  301cb8:	b508      	push	{r3, lr}
  301cba:	f44f 2061 	mov.w	r0, #921600	; 0xe1000
  301cbe:	f002 fcc6 	bl	30464e <upv_serial_init>
  301cc2:	f7fe fc23 	bl	30050c <mmu_setup>
  301cc6:	f006 f8f3 	bl	307eb0 <ddrc_init>
  301cca:	2000      	movs	r0, #0
  301ccc:	f004 fa8c 	bl	3061e8 <dma_deinit>
  301cd0:	2000      	movs	r0, #0
  301cd2:	f004 fa7c 	bl	3061ce <dma_init>
  301cd6:	2000      	movs	r0, #0
  301cd8:	e8bd 4008 	ldmia.w	sp!, {r3, lr}
  301cdc:	f004 bd8b 	b.w	3067f6 <dmac_int_disable>

00301ce0 <get_strip_refclk_rate_kHz>:
  301ce0:	4b06      	ldr	r3, [pc, #24]	; (301cfc <get_strip_refclk_rate_kHz+0x1c>)
  301ce2:	6edb      	ldr	r3, [r3, #108]	; 0x6c
  301ce4:	f003 030c 	and.w	r3, r3, #12
  301ce8:	2b08      	cmp	r3, #8
  301cea:	d803      	bhi.n	301cf4 <get_strip_refclk_rate_kHz+0x14>
  301cec:	4a04      	ldr	r2, [pc, #16]	; (301d00 <get_strip_refclk_rate_kHz+0x20>)
  301cee:	f852 0023 	ldr.w	r0, [r2, r3, lsl #2]
  301cf2:	4770      	bx	lr
  301cf4:	f04f 30ff 	mov.w	r0, #4294967295	; 0xffffffff
  301cf8:	4770      	bx	lr
  301cfa:	bf00      	nop
  301cfc:	c01d0000 	andsgt	r0, sp, r0
  301d00:	003005a0 	eorseq	r0, r0, r0, lsr #11

00301d04 <pow>:
  301d04:	b141      	cbz	r1, 301d18 <pow+0x14>
  301d06:	2301      	movs	r3, #1
  301d08:	461a      	mov	r2, r3
  301d0a:	428b      	cmp	r3, r1
  301d0c:	d802      	bhi.n	301d14 <pow+0x10>
  301d0e:	4342      	muls	r2, r0
  301d10:	3301      	adds	r3, #1
  301d12:	e7fa      	b.n	301d0a <pow+0x6>
  301d14:	4610      	mov	r0, r2
  301d16:	4770      	bx	lr
  301d18:	2001      	movs	r0, #1
  301d1a:	4770      	bx	lr

00301d1c <get_M_N_NO>:
  301d1c:	e92d 4ff0 	stmdb	sp!, {r4, r5, r6, r7, r8, r9, sl, fp, lr}
  301d20:	b08d      	sub	sp, #52	; 0x34
  301d22:	460e      	mov	r6, r1
  301d24:	4607      	mov	r7, r0
  301d26:	9303      	str	r3, [sp, #12]
  301d28:	ad04      	add	r5, sp, #16
  301d2a:	4b33      	ldr	r3, [pc, #204]	; (301df8 <get_M_N_NO+0xdc>)
  301d2c:	f10d 0820 	add.w	r8, sp, #32
  301d30:	9202      	str	r2, [sp, #8]
  301d32:	cb0f      	ldmia	r3, {r0, r1, r2, r3}
  301d34:	e885 000f 	stmia.w	r5, {r0, r1, r2, r3}
  301d38:	2210      	movs	r2, #16
  301d3a:	4640      	mov	r0, r8
  301d3c:	2100      	movs	r1, #0
  301d3e:	f001 f875 	bl	302e2c <memset>
  301d42:	f5a6 4374 	sub.w	r3, r6, #62464	; 0xf400
  301d46:	4a2d      	ldr	r2, [pc, #180]	; (301dfc <get_M_N_NO+0xe0>)
  301d48:	3b24      	subs	r3, #36	; 0x24
  301d4a:	4293      	cmp	r3, r2
  301d4c:	d902      	bls.n	301d54 <get_M_N_NO+0x38>
  301d4e:	482c      	ldr	r0, [pc, #176]	; (301e00 <get_M_N_NO+0xe4>)
  301d50:	4631      	mov	r1, r6
  301d52:	e049      	b.n	301de8 <get_M_N_NO+0xcc>
  301d54:	492b      	ldr	r1, [pc, #172]	; (301e04 <get_M_N_NO+0xe8>)
  301d56:	2400      	movs	r4, #0
  301d58:	46a1      	mov	r9, r4
  301d5a:	f855 2024 	ldr.w	r2, [r5, r4, lsl #2]
  301d5e:	4372      	muls	r2, r6
  301d60:	f5a2 22f4 	sub.w	r2, r2, #499712	; 0x7a000
  301d64:	f5a2 7290 	sub.w	r2, r2, #288	; 0x120
  301d68:	428a      	cmp	r2, r1
  301d6a:	d806      	bhi.n	301d7a <get_M_N_NO+0x5e>
  301d6c:	ab0c      	add	r3, sp, #48	; 0x30
  301d6e:	eb03 0289 	add.w	r2, r3, r9, lsl #2
  301d72:	f109 0901 	add.w	r9, r9, #1
  301d76:	f842 4c10 	str.w	r4, [r2, #-16]
  301d7a:	3401      	adds	r4, #1
  301d7c:	2c04      	cmp	r4, #4
  301d7e:	d1ec      	bne.n	301d5a <get_M_N_NO+0x3e>
  301d80:	f1b9 0f00 	cmp.w	r9, #0
  301d84:	d101      	bne.n	301d8a <get_M_N_NO+0x6e>
  301d86:	4820      	ldr	r0, [pc, #128]	; (301e08 <get_M_N_NO+0xec>)
  301d88:	e02d      	b.n	301de6 <get_M_N_NO+0xca>
  301d8a:	f04f 0a00 	mov.w	sl, #0
  301d8e:	f64b 7b68 	movw	fp, #49000	; 0xbf68
  301d92:	f858 502a 	ldr.w	r5, [r8, sl, lsl #2]
  301d96:	2401      	movs	r4, #1
  301d98:	4629      	mov	r1, r5
  301d9a:	2002      	movs	r0, #2
  301d9c:	f7ff ffb2 	bl	301d04 <pow>
  301da0:	4639      	mov	r1, r7
  301da2:	4360      	muls	r0, r4
  301da4:	4370      	muls	r0, r6
  301da6:	f006 f899 	bl	307edc <__aeabi_uidiv>
  301daa:	1e81      	subs	r1, r0, #2
  301dac:	4603      	mov	r3, r0
  301dae:	29fd      	cmp	r1, #253	; 0xfd
  301db0:	d811      	bhi.n	301dd6 <get_M_N_NO+0xba>
  301db2:	4638      	mov	r0, r7
  301db4:	4621      	mov	r1, r4
  301db6:	9301      	str	r3, [sp, #4]
  301db8:	f006 f890 	bl	307edc <__aeabi_uidiv>
  301dbc:	9b01      	ldr	r3, [sp, #4]
  301dbe:	f5a0 707a 	sub.w	r0, r0, #1000	; 0x3e8
  301dc2:	4558      	cmp	r0, fp
  301dc4:	d807      	bhi.n	301dd6 <get_M_N_NO+0xba>
  301dc6:	9a02      	ldr	r2, [sp, #8]
  301dc8:	2000      	movs	r0, #0
  301dca:	6013      	str	r3, [r2, #0]
  301dcc:	9b03      	ldr	r3, [sp, #12]
  301dce:	601c      	str	r4, [r3, #0]
  301dd0:	9b16      	ldr	r3, [sp, #88]	; 0x58
  301dd2:	601d      	str	r5, [r3, #0]
  301dd4:	e00c      	b.n	301df0 <get_M_N_NO+0xd4>
  301dd6:	3401      	adds	r4, #1
  301dd8:	2c10      	cmp	r4, #16
  301dda:	d1dd      	bne.n	301d98 <get_M_N_NO+0x7c>
  301ddc:	f10a 0a01 	add.w	sl, sl, #1
  301de0:	45ca      	cmp	sl, r9
  301de2:	dbd6      	blt.n	301d92 <get_M_N_NO+0x76>
  301de4:	4809      	ldr	r0, [pc, #36]	; (301e0c <get_M_N_NO+0xf0>)
  301de6:	490a      	ldr	r1, [pc, #40]	; (301e10 <get_M_N_NO+0xf4>)
  301de8:	f002 faf0 	bl	3043cc <printf>
  301dec:	f04f 30ff 	mov.w	r0, #4294967295	; 0xffffffff
  301df0:	b00d      	add	sp, #52	; 0x34
  301df2:	e8bd 8ff0 	ldmia.w	sp!, {r4, r5, r6, r7, r8, r9, sl, fp, pc}
  301df6:	bf00      	nop
  301df8:	003005c4 	eorseq	r0, r0, r4, asr #11
  301dfc:	0015ef3c 	andseq	lr, r5, ip, lsr pc
  301e00:	00300941 	eorseq	r0, r0, r1, asr #18
  301e04:	000f4240 	andeq	r4, pc, r0, asr #4
  301e08:	00300981 	eorseq	r0, r0, r1, lsl #19
  301e0c:	00300994 	mlaseq	r0, r4, r9, r0
  301e10:	003005d4 	ldrsbteq	r0, [r0], -r4

00301e14 <pll0_set_rate_kHz>:
  301e14:	b570      	push	{r4, r5, r6, lr}
  301e16:	b086      	sub	sp, #24
  301e18:	2302      	movs	r3, #2
  301e1a:	4606      	mov	r6, r0
  301e1c:	9303      	str	r3, [sp, #12]
  301e1e:	2500      	movs	r5, #0
  301e20:	230f      	movs	r3, #15
  301e22:	9505      	str	r5, [sp, #20]
  301e24:	9304      	str	r3, [sp, #16]
  301e26:	f7ff ff5b 	bl	301ce0 <get_strip_refclk_rate_kHz>
  301e2a:	1c42      	adds	r2, r0, #1
  301e2c:	4604      	mov	r4, r0
  301e2e:	d101      	bne.n	301e34 <pll0_set_rate_kHz+0x20>
  301e30:	481d      	ldr	r0, [pc, #116]	; (301ea8 <pll0_set_rate_kHz+0x94>)
  301e32:	e00a      	b.n	301e4a <pll0_set_rate_kHz+0x36>
  301e34:	ab03      	add	r3, sp, #12
  301e36:	4631      	mov	r1, r6
  301e38:	9300      	str	r3, [sp, #0]
  301e3a:	aa05      	add	r2, sp, #20
  301e3c:	ab04      	add	r3, sp, #16
  301e3e:	f7ff ff6d 	bl	301d1c <get_M_N_NO>
  301e42:	1c43      	adds	r3, r0, #1
  301e44:	4604      	mov	r4, r0
  301e46:	d104      	bne.n	301e52 <pll0_set_rate_kHz+0x3e>
  301e48:	4818      	ldr	r0, [pc, #96]	; (301eac <pll0_set_rate_kHz+0x98>)
  301e4a:	f002 fabf 	bl	3043cc <printf>
  301e4e:	4620      	mov	r0, r4
  301e50:	e027      	b.n	301ea2 <pll0_set_rate_kHz+0x8e>
  301e52:	9b03      	ldr	r3, [sp, #12]
  301e54:	f44f 702f 	mov.w	r0, #700	; 0x2bc
  301e58:	4c15      	ldr	r4, [pc, #84]	; (301eb0 <pll0_set_rate_kHz+0x9c>)
  301e5a:	031a      	lsls	r2, r3, #12
  301e5c:	9b05      	ldr	r3, [sp, #20]
  301e5e:	ea42 1203 	orr.w	r2, r2, r3, lsl #4
  301e62:	9b04      	ldr	r3, [sp, #16]
  301e64:	431a      	orrs	r2, r3
  301e66:	6863      	ldr	r3, [r4, #4]
  301e68:	f043 0303 	orr.w	r3, r3, #3
  301e6c:	6063      	str	r3, [r4, #4]
  301e6e:	6963      	ldr	r3, [r4, #20]
  301e70:	f443 4380 	orr.w	r3, r3, #16384	; 0x4000
  301e74:	6163      	str	r3, [r4, #20]
  301e76:	6963      	ldr	r3, [r4, #20]
  301e78:	f423 537f 	bic.w	r3, r3, #16320	; 0x3fc0
  301e7c:	f023 033f 	bic.w	r3, r3, #63	; 0x3f
  301e80:	4313      	orrs	r3, r2
  301e82:	6163      	str	r3, [r4, #20]
  301e84:	6963      	ldr	r3, [r4, #20]
  301e86:	9305      	str	r3, [sp, #20]
  301e88:	f423 4380 	bic.w	r3, r3, #16384	; 0x4000
  301e8c:	9304      	str	r3, [sp, #16]
  301e8e:	6163      	str	r3, [r4, #20]
  301e90:	f002 fc45 	bl	30471e <udelay>
  301e94:	6863      	ldr	r3, [r4, #4]
  301e96:	4628      	mov	r0, r5
  301e98:	f023 0303 	bic.w	r3, r3, #3
  301e9c:	f043 0301 	orr.w	r3, r3, #1
  301ea0:	6063      	str	r3, [r4, #4]
  301ea2:	b006      	add	sp, #24
  301ea4:	bd70      	pop	{r4, r5, r6, pc}
  301ea6:	bf00      	nop
  301ea8:	003009ab 	eorseq	r0, r0, fp, lsr #19
  301eac:	003009c3 	eorseq	r0, r0, r3, asr #19
  301eb0:	c01d0000 	andsgt	r0, sp, r0

00301eb4 <pll0_get_rate_kHz>:
  301eb4:	b538      	push	{r3, r4, r5, lr}
  301eb6:	2002      	movs	r0, #2
  301eb8:	4b08      	ldr	r3, [pc, #32]	; (301edc <pll0_get_rate_kHz+0x28>)
  301eba:	695c      	ldr	r4, [r3, #20]
  301ebc:	f3c4 3101 	ubfx	r1, r4, #12, #2
  301ec0:	f7ff ff20 	bl	301d04 <pow>
  301ec4:	4605      	mov	r5, r0
  301ec6:	f7ff ff0b 	bl	301ce0 <get_strip_refclk_rate_kHz>
  301eca:	f3c4 1307 	ubfx	r3, r4, #4, #8
  301ece:	f004 010f 	and.w	r1, r4, #15
  301ed2:	4369      	muls	r1, r5
  301ed4:	4358      	muls	r0, r3
  301ed6:	f006 f801 	bl	307edc <__aeabi_uidiv>
  301eda:	bd38      	pop	{r3, r4, r5, pc}
  301edc:	c01d0000 	andsgt	r0, sp, r0

00301ee0 <pll1_set_rate_kHz>:
  301ee0:	b570      	push	{r4, r5, r6, lr}
  301ee2:	b086      	sub	sp, #24
  301ee4:	2302      	movs	r3, #2
  301ee6:	4606      	mov	r6, r0
  301ee8:	9303      	str	r3, [sp, #12]
  301eea:	2400      	movs	r4, #0
  301eec:	230f      	movs	r3, #15
  301eee:	9405      	str	r4, [sp, #20]
  301ef0:	9304      	str	r3, [sp, #16]
  301ef2:	f7ff fef5 	bl	301ce0 <get_strip_refclk_rate_kHz>
  301ef6:	1c43      	adds	r3, r0, #1
  301ef8:	4605      	mov	r5, r0
  301efa:	d101      	bne.n	301f00 <pll1_set_rate_kHz+0x20>
  301efc:	4818      	ldr	r0, [pc, #96]	; (301f60 <pll1_set_rate_kHz+0x80>)
  301efe:	e00a      	b.n	301f16 <pll1_set_rate_kHz+0x36>
  301f00:	ab03      	add	r3, sp, #12
  301f02:	4631      	mov	r1, r6
  301f04:	9300      	str	r3, [sp, #0]
  301f06:	aa05      	add	r2, sp, #20
  301f08:	ab04      	add	r3, sp, #16
  301f0a:	f7ff ff07 	bl	301d1c <get_M_N_NO>
  301f0e:	1c41      	adds	r1, r0, #1
  301f10:	4605      	mov	r5, r0
  301f12:	d104      	bne.n	301f1e <pll1_set_rate_kHz+0x3e>
  301f14:	4813      	ldr	r0, [pc, #76]	; (301f64 <pll1_set_rate_kHz+0x84>)
  301f16:	f002 fa59 	bl	3043cc <printf>
  301f1a:	4628      	mov	r0, r5
  301f1c:	e01e      	b.n	301f5c <pll1_set_rate_kHz+0x7c>
  301f1e:	9b05      	ldr	r3, [sp, #20]
  301f20:	f44f 702f 	mov.w	r0, #700	; 0x2bc
  301f24:	0119      	lsls	r1, r3, #4
  301f26:	9b03      	ldr	r3, [sp, #12]
  301f28:	ea41 3103 	orr.w	r1, r1, r3, lsl #12
  301f2c:	9b04      	ldr	r3, [sp, #16]
  301f2e:	4319      	orrs	r1, r3
  301f30:	4b0d      	ldr	r3, [pc, #52]	; (301f68 <pll1_set_rate_kHz+0x88>)
  301f32:	695a      	ldr	r2, [r3, #20]
  301f34:	f042 4280 	orr.w	r2, r2, #1073741824	; 0x40000000
  301f38:	615a      	str	r2, [r3, #20]
  301f3a:	695a      	ldr	r2, [r3, #20]
  301f3c:	f022 527f 	bic.w	r2, r2, #1069547520	; 0x3fc00000
  301f40:	f422 127c 	bic.w	r2, r2, #4128768	; 0x3f0000
  301f44:	ea42 4201 	orr.w	r2, r2, r1, lsl #16
  301f48:	615a      	str	r2, [r3, #20]
  301f4a:	695a      	ldr	r2, [r3, #20]
  301f4c:	9205      	str	r2, [sp, #20]
  301f4e:	f022 4280 	bic.w	r2, r2, #1073741824	; 0x40000000
  301f52:	9204      	str	r2, [sp, #16]
  301f54:	615a      	str	r2, [r3, #20]
  301f56:	f002 fbe2 	bl	30471e <udelay>
  301f5a:	4620      	mov	r0, r4
  301f5c:	b006      	add	sp, #24
  301f5e:	bd70      	pop	{r4, r5, r6, pc}
  301f60:	003009ab 	eorseq	r0, r0, fp, lsr #19
  301f64:	003009c3 	eorseq	r0, r0, r3, asr #19
  301f68:	c01d0000 	andsgt	r0, sp, r0

00301f6c <pll1_get_rate_kHz>:
  301f6c:	4b0a      	ldr	r3, [pc, #40]	; (301f98 <pll1_get_rate_kHz+0x2c>)
  301f6e:	2002      	movs	r0, #2
  301f70:	b570      	push	{r4, r5, r6, lr}
  301f72:	695c      	ldr	r4, [r3, #20]
  301f74:	f3c4 7101 	ubfx	r1, r4, #28, #2
  301f78:	f7ff fec4 	bl	301d04 <pow>
  301f7c:	0c25      	lsrs	r5, r4, #16
  301f7e:	f3c4 5407 	ubfx	r4, r4, #20, #8
  301f82:	4606      	mov	r6, r0
  301f84:	f7ff feac 	bl	301ce0 <get_strip_refclk_rate_kHz>
  301f88:	f005 010f 	and.w	r1, r5, #15
  301f8c:	4371      	muls	r1, r6
  301f8e:	4360      	muls	r0, r4
  301f90:	f005 ffa4 	bl	307edc <__aeabi_uidiv>
  301f94:	bd70      	pop	{r4, r5, r6, pc}
  301f96:	bf00      	nop
  301f98:	c01d0000 	andsgt	r0, sp, r0

00301f9c <pll2_set_rate_kHz>:
  301f9c:	b570      	push	{r4, r5, r6, lr}
  301f9e:	b086      	sub	sp, #24
  301fa0:	2303      	movs	r3, #3
  301fa2:	4606      	mov	r6, r0
  301fa4:	9303      	str	r3, [sp, #12]
  301fa6:	2400      	movs	r4, #0
  301fa8:	230f      	movs	r3, #15
  301faa:	9405      	str	r4, [sp, #20]
  301fac:	9304      	str	r3, [sp, #16]
  301fae:	f7ff fe97 	bl	301ce0 <get_strip_refclk_rate_kHz>
  301fb2:	1c41      	adds	r1, r0, #1
  301fb4:	4605      	mov	r5, r0
  301fb6:	d101      	bne.n	301fbc <pll2_set_rate_kHz+0x20>
  301fb8:	4818      	ldr	r0, [pc, #96]	; (30201c <pll2_set_rate_kHz+0x80>)
  301fba:	e00a      	b.n	301fd2 <pll2_set_rate_kHz+0x36>
  301fbc:	ab03      	add	r3, sp, #12
  301fbe:	aa05      	add	r2, sp, #20
  301fc0:	9300      	str	r3, [sp, #0]
  301fc2:	4631      	mov	r1, r6
  301fc4:	ab04      	add	r3, sp, #16
  301fc6:	f7ff fea9 	bl	301d1c <get_M_N_NO>
  301fca:	1c42      	adds	r2, r0, #1
  301fcc:	4605      	mov	r5, r0
  301fce:	d104      	bne.n	301fda <pll2_set_rate_kHz+0x3e>
  301fd0:	4813      	ldr	r0, [pc, #76]	; (302020 <pll2_set_rate_kHz+0x84>)
  301fd2:	f002 f9fb 	bl	3043cc <printf>
  301fd6:	4628      	mov	r0, r5
  301fd8:	e01d      	b.n	302016 <pll2_set_rate_kHz+0x7a>
  301fda:	9b05      	ldr	r3, [sp, #20]
  301fdc:	f44f 702f 	mov.w	r0, #700	; 0x2bc
  301fe0:	0119      	lsls	r1, r3, #4
  301fe2:	9b03      	ldr	r3, [sp, #12]
  301fe4:	ea41 3103 	orr.w	r1, r1, r3, lsl #12
  301fe8:	9b04      	ldr	r3, [sp, #16]
  301fea:	4319      	orrs	r1, r3
  301fec:	4b0d      	ldr	r3, [pc, #52]	; (302024 <pll2_set_rate_kHz+0x88>)
  301fee:	699a      	ldr	r2, [r3, #24]
  301ff0:	f442 4280 	orr.w	r2, r2, #16384	; 0x4000
  301ff4:	619a      	str	r2, [r3, #24]
  301ff6:	699a      	ldr	r2, [r3, #24]
  301ff8:	f422 527f 	bic.w	r2, r2, #16320	; 0x3fc0
  301ffc:	f022 023f 	bic.w	r2, r2, #63	; 0x3f
  302000:	430a      	orrs	r2, r1
  302002:	619a      	str	r2, [r3, #24]
  302004:	699a      	ldr	r2, [r3, #24]
  302006:	9205      	str	r2, [sp, #20]
  302008:	f422 4280 	bic.w	r2, r2, #16384	; 0x4000
  30200c:	9204      	str	r2, [sp, #16]
  30200e:	619a      	str	r2, [r3, #24]
  302010:	f002 fb85 	bl	30471e <udelay>
  302014:	4620      	mov	r0, r4
  302016:	b006      	add	sp, #24
  302018:	bd70      	pop	{r4, r5, r6, pc}
  30201a:	bf00      	nop
  30201c:	003009ab 	eorseq	r0, r0, fp, lsr #19
  302020:	003009c3 	eorseq	r0, r0, r3, asr #19
  302024:	c01d0000 	andsgt	r0, sp, r0

00302028 <pll2_get_rate_kHz>:
  302028:	b538      	push	{r3, r4, r5, lr}
  30202a:	2002      	movs	r0, #2
  30202c:	4b08      	ldr	r3, [pc, #32]	; (302050 <pll2_get_rate_kHz+0x28>)
  30202e:	699c      	ldr	r4, [r3, #24]
  302030:	f3c4 3101 	ubfx	r1, r4, #12, #2
  302034:	f7ff fe66 	bl	301d04 <pow>
  302038:	4605      	mov	r5, r0
  30203a:	f7ff fe51 	bl	301ce0 <get_strip_refclk_rate_kHz>
  30203e:	f3c4 1307 	ubfx	r3, r4, #4, #8
  302042:	f004 010f 	and.w	r1, r4, #15
  302046:	4369      	muls	r1, r5
  302048:	4358      	muls	r0, r3
  30204a:	f005 ff47 	bl	307edc <__aeabi_uidiv>
  30204e:	bd38      	pop	{r3, r4, r5, pc}
  302050:	c01d0000 	andsgt	r0, sp, r0

00302054 <pll3_set_rate_kHz>:
  302054:	b5f0      	push	{r4, r5, r6, r7, lr}
  302056:	b087      	sub	sp, #28
  302058:	4e1f      	ldr	r6, [pc, #124]	; (3020d8 <pll3_set_rate_kHz+0x84>)
  30205a:	ac06      	add	r4, sp, #24
  30205c:	4607      	mov	r7, r0
  30205e:	491f      	ldr	r1, [pc, #124]	; (3020dc <pll3_set_rate_kHz+0x88>)
  302060:	481f      	ldr	r0, [pc, #124]	; (3020e0 <pll3_set_rate_kHz+0x8c>)
  302062:	2302      	movs	r3, #2
  302064:	6832      	ldr	r2, [r6, #0]
  302066:	2500      	movs	r5, #0
  302068:	9303      	str	r3, [sp, #12]
  30206a:	230f      	movs	r3, #15
  30206c:	f844 5d04 	str.w	r5, [r4, #-4]!
  302070:	9304      	str	r3, [sp, #16]
  302072:	f002 f9ab 	bl	3043cc <printf>
  302076:	ab03      	add	r3, sp, #12
  302078:	4622      	mov	r2, r4
  30207a:	9300      	str	r3, [sp, #0]
  30207c:	4639      	mov	r1, r7
  30207e:	6830      	ldr	r0, [r6, #0]
  302080:	ab04      	add	r3, sp, #16
  302082:	f7ff fe4b 	bl	301d1c <get_M_N_NO>
  302086:	4604      	mov	r4, r0
  302088:	3001      	adds	r0, #1
  30208a:	d104      	bne.n	302096 <pll3_set_rate_kHz+0x42>
  30208c:	4815      	ldr	r0, [pc, #84]	; (3020e4 <pll3_set_rate_kHz+0x90>)
  30208e:	f002 f99d 	bl	3043cc <printf>
  302092:	4620      	mov	r0, r4
  302094:	e01e      	b.n	3020d4 <pll3_set_rate_kHz+0x80>
  302096:	9b05      	ldr	r3, [sp, #20]
  302098:	f44f 702f 	mov.w	r0, #700	; 0x2bc
  30209c:	0119      	lsls	r1, r3, #4
  30209e:	9b03      	ldr	r3, [sp, #12]
  3020a0:	ea41 3103 	orr.w	r1, r1, r3, lsl #12
  3020a4:	9b04      	ldr	r3, [sp, #16]
  3020a6:	4319      	orrs	r1, r3
  3020a8:	4b0f      	ldr	r3, [pc, #60]	; (3020e8 <pll3_set_rate_kHz+0x94>)
  3020aa:	699a      	ldr	r2, [r3, #24]
  3020ac:	f042 4280 	orr.w	r2, r2, #1073741824	; 0x40000000
  3020b0:	619a      	str	r2, [r3, #24]
  3020b2:	699a      	ldr	r2, [r3, #24]
  3020b4:	f022 527f 	bic.w	r2, r2, #1069547520	; 0x3fc00000
  3020b8:	f422 127c 	bic.w	r2, r2, #4128768	; 0x3f0000
  3020bc:	ea42 4201 	orr.w	r2, r2, r1, lsl #16
  3020c0:	619a      	str	r2, [r3, #24]
  3020c2:	699a      	ldr	r2, [r3, #24]
  3020c4:	9205      	str	r2, [sp, #20]
  3020c6:	f022 4280 	bic.w	r2, r2, #1073741824	; 0x40000000
  3020ca:	9204      	str	r2, [sp, #16]
  3020cc:	619a      	str	r2, [r3, #24]
  3020ce:	f002 fb26 	bl	30471e <udelay>
  3020d2:	4628      	mov	r0, r5
  3020d4:	b007      	add	sp, #28
  3020d6:	bdf0      	pop	{r4, r5, r6, r7, pc}
  3020d8:	00308094 	mlaseq	r0, r4, r0, r8
  3020dc:	003005df 	ldrsbteq	r0, [r0], -pc
  3020e0:	003009df 	ldrsbteq	r0, [r0], -pc
  3020e4:	003009c3 	eorseq	r0, r0, r3, asr #19
  3020e8:	c01d0000 	andsgt	r0, sp, r0

003020ec <pll3_get_rate_kHz>:
  3020ec:	b570      	push	{r4, r5, r6, lr}
  3020ee:	4d0d      	ldr	r5, [pc, #52]	; (302124 <pll3_get_rate_kHz+0x38>)
  3020f0:	490d      	ldr	r1, [pc, #52]	; (302128 <pll3_get_rate_kHz+0x3c>)
  3020f2:	480e      	ldr	r0, [pc, #56]	; (30212c <pll3_get_rate_kHz+0x40>)
  3020f4:	682a      	ldr	r2, [r5, #0]
  3020f6:	f002 f969 	bl	3043cc <printf>
  3020fa:	4b0d      	ldr	r3, [pc, #52]	; (302130 <pll3_get_rate_kHz+0x44>)
  3020fc:	2002      	movs	r0, #2
  3020fe:	699c      	ldr	r4, [r3, #24]
  302100:	f3c4 7101 	ubfx	r1, r4, #28, #2
  302104:	f7ff fdfe 	bl	301d04 <pow>
  302108:	0c26      	lsrs	r6, r4, #16
  30210a:	682b      	ldr	r3, [r5, #0]
  30210c:	f3c4 5407 	ubfx	r4, r4, #20, #8
  302110:	f006 060f 	and.w	r6, r6, #15
  302114:	fb06 f100 	mul.w	r1, r6, r0
  302118:	fb03 f004 	mul.w	r0, r3, r4
  30211c:	f005 fede 	bl	307edc <__aeabi_uidiv>
  302120:	bd70      	pop	{r4, r5, r6, pc}
  302122:	bf00      	nop
  302124:	00308094 	mlaseq	r0, r4, r0, r8
  302128:	003005f1 	ldrshteq	r0, [r0], -r1
  30212c:	003009df 	ldrsbteq	r0, [r0], -pc
  302130:	c01d0000 	andsgt	r0, sp, r0

00302134 <do_go_exec>:
  302134:	b508      	push	{r3, lr}
  302136:	4603      	mov	r3, r0
  302138:	2000      	movs	r0, #0
  30213a:	4798      	blx	r3
  30213c:	bd08      	pop	{r3, pc}

0030213e <check_bl2fw_hdr>:
  30213e:	e92d 41f3 	stmdb	sp!, {r0, r1, r4, r5, r6, r7, r8, lr}
  302142:	4616      	mov	r6, r2
  302144:	4605      	mov	r5, r0
  302146:	4688      	mov	r8, r1
  302148:	f000 fc36 	bl	3029b8 <get_bl2fw_hdr_dbuf>
  30214c:	4631      	mov	r1, r6
  30214e:	aa01      	add	r2, sp, #4
  302150:	4607      	mov	r7, r0
  302152:	4628      	mov	r0, r5
  302154:	f000 fa1c 	bl	302590 <get_flash_mbr>
  302158:	4604      	mov	r4, r0
  30215a:	b908      	cbnz	r0, 302160 <check_bl2fw_hdr+0x22>
  30215c:	4813      	ldr	r0, [pc, #76]	; (3021ac <check_bl2fw_hdr+0x6e>)
  30215e:	e01d      	b.n	30219c <check_bl2fw_hdr+0x5e>
  302160:	f89d 3004 	ldrb.w	r3, [sp, #4]
  302164:	b12b      	cbz	r3, 302172 <check_bl2fw_hdr+0x34>
  302166:	4812      	ldr	r0, [pc, #72]	; (3021b0 <check_bl2fw_hdr+0x72>)
  302168:	4629      	mov	r1, r5
  30216a:	f002 f92f 	bl	3043cc <printf>
  30216e:	2400      	movs	r4, #0
  302170:	e017      	b.n	3021a2 <check_bl2fw_hdr+0x64>
  302172:	4639      	mov	r1, r7
  302174:	f44f 7280 	mov.w	r2, #256	; 0x100
  302178:	6830      	ldr	r0, [r6, #0]
  30217a:	f003 fc99 	bl	305ab0 <spinor_hw_read_page>
  30217e:	6830      	ldr	r0, [r6, #0]
  302180:	f507 7180 	add.w	r1, r7, #256	; 0x100
  302184:	f44f 7280 	mov.w	r2, #256	; 0x100
  302188:	f500 7080 	add.w	r0, r0, #256	; 0x100
  30218c:	f003 fc90 	bl	305ab0 <spinor_hw_read_page>
  302190:	4640      	mov	r0, r8
  302192:	f000 fb5b 	bl	30284c <is_bl2fw_hdr_valid>
  302196:	4604      	mov	r4, r0
  302198:	b918      	cbnz	r0, 3021a2 <check_bl2fw_hdr+0x64>
  30219a:	4806      	ldr	r0, [pc, #24]	; (3021b4 <check_bl2fw_hdr+0x76>)
  30219c:	4629      	mov	r1, r5
  30219e:	f002 f915 	bl	3043cc <printf>
  3021a2:	4620      	mov	r0, r4
  3021a4:	b002      	add	sp, #8
  3021a6:	e8bd 81f0 	ldmia.w	sp!, {r4, r5, r6, r7, r8, pc}
  3021aa:	bf00      	nop
  3021ac:	00300a01 	eorseq	r0, r0, r1, lsl #20
  3021b0:	00300a1c 	eorseq	r0, r0, ip, lsl sl
  3021b4:	00300a3a 	eorseq	r0, r0, sl, lsr sl

003021b8 <check_bl2fw_sign_async>:
  3021b8:	e92d 4ff0 	stmdb	sp!, {r4, r5, r6, r7, r8, r9, sl, fp, lr}
  3021bc:	b087      	sub	sp, #28
  3021be:	4615      	mov	r5, r2
  3021c0:	aa05      	add	r2, sp, #20
  3021c2:	9003      	str	r0, [sp, #12]
  3021c4:	f7ff ffbb 	bl	30213e <check_bl2fw_hdr>
  3021c8:	4604      	mov	r4, r0
  3021ca:	2800      	cmp	r0, #0
  3021cc:	f000 8081 	beq.w	3022d2 <check_bl2fw_sign_async+0x11a>
  3021d0:	9c05      	ldr	r4, [sp, #20]
  3021d2:	f000 fbd1 	bl	302978 <get_bl2fw_hdr_fls_addr>
  3021d6:	f04f 0900 	mov.w	r9, #0
  3021da:	2601      	movs	r6, #1
  3021dc:	4420      	add	r0, r4
  3021de:	9005      	str	r0, [sp, #20]
  3021e0:	f000 fbd0 	bl	302984 <get_bl2fw_hdr_fls_size>
  3021e4:	4c3d      	ldr	r4, [pc, #244]	; (3022dc <check_bl2fw_sign_async+0x124>)
  3021e6:	4683      	mov	fp, r0
  3021e8:	f000 fbd2 	bl	302990 <get_bl2fw_hdr_load_addr>
  3021ec:	ea4f 231b 	mov.w	r3, fp, lsr #8
  3021f0:	9302      	str	r3, [sp, #8]
  3021f2:	4607      	mov	r7, r0
  3021f4:	f44f 7080 	mov.w	r0, #256	; 0x100
  3021f8:	f004 fa4e 	bl	306698 <flash_read_dma_init_once>
  3021fc:	f44f 7180 	mov.w	r1, #256	; 0x100
  302200:	220f      	movs	r2, #15
  302202:	20eb      	movs	r0, #235	; 0xeb
  302204:	f002 ff06 	bl	305014 <qspi_dma_read_start_once>
  302208:	4934      	ldr	r1, [pc, #208]	; (3022dc <check_bl2fw_sign_async+0x124>)
  30220a:	f44f 7280 	mov.w	r2, #256	; 0x100
  30220e:	9805      	ldr	r0, [sp, #20]
  302210:	f004 fa7a 	bl	306708 <flash_dma_read_start>
  302214:	46b8      	mov	r8, r7
  302216:	f004 fa8f 	bl	306738 <flash_dma_read_wait_done>
  30221a:	4b31      	ldr	r3, [pc, #196]	; (3022e0 <check_bl2fw_sign_async+0x128>)
  30221c:	46a4      	mov	ip, r4
  30221e:	9a02      	ldr	r2, [sp, #8]
  302220:	4296      	cmp	r6, r2
  302222:	da2b      	bge.n	30227c <check_bl2fw_sign_async+0xc4>
  302224:	f016 0f01 	tst.w	r6, #1
  302228:	9805      	ldr	r0, [sp, #20]
  30222a:	bf14      	ite	ne
  30222c:	469a      	movne	sl, r3
  30222e:	46e2      	moveq	sl, ip
  302230:	f44f 7280 	mov.w	r2, #256	; 0x100
  302234:	eb00 2006 	add.w	r0, r0, r6, lsl #8
  302238:	9301      	str	r3, [sp, #4]
  30223a:	4651      	mov	r1, sl
  30223c:	f8cd c000 	str.w	ip, [sp]
  302240:	f004 fa62 	bl	306708 <flash_dma_read_start>
  302244:	4620      	mov	r0, r4
  302246:	f504 7180 	add.w	r1, r4, #256	; 0x100
  30224a:	3601      	adds	r6, #1
  30224c:	f7fe e884 	blx	300358 <v7_dma_inv_range>
  302250:	4621      	mov	r1, r4
  302252:	4640      	mov	r0, r8
  302254:	f44f 7280 	mov.w	r2, #256	; 0x100
  302258:	f000 fe13 	bl	302e82 <memcpy>
  30225c:	4621      	mov	r1, r4
  30225e:	4648      	mov	r0, r9
  302260:	f44f 7280 	mov.w	r2, #256	; 0x100
  302264:	f001 fc40 	bl	303ae8 <crc32>
  302268:	f508 7880 	add.w	r8, r8, #256	; 0x100
  30226c:	4654      	mov	r4, sl
  30226e:	4681      	mov	r9, r0
  302270:	f004 fa62 	bl	306738 <flash_dma_read_wait_done>
  302274:	f8dd c000 	ldr.w	ip, [sp]
  302278:	9b01      	ldr	r3, [sp, #4]
  30227a:	e7d0      	b.n	30221e <check_bl2fw_sign_async+0x66>
  30227c:	4620      	mov	r0, r4
  30227e:	f504 7180 	add.w	r1, r4, #256	; 0x100
  302282:	f7fe e86a 	blx	300358 <v7_dma_inv_range>
  302286:	4621      	mov	r1, r4
  302288:	f44f 7280 	mov.w	r2, #256	; 0x100
  30228c:	4640      	mov	r0, r8
  30228e:	f000 fdf8 	bl	302e82 <memcpy>
  302292:	4621      	mov	r1, r4
  302294:	22fc      	movs	r2, #252	; 0xfc
  302296:	4648      	mov	r0, r9
  302298:	f001 fc26 	bl	303ae8 <crc32>
  30229c:	4604      	mov	r4, r0
  30229e:	f004 fa57 	bl	306750 <flash_dma_read_finished>
  3022a2:	4620      	mov	r0, r4
  3022a4:	4639      	mov	r1, r7
  3022a6:	465a      	mov	r2, fp
  3022a8:	2300      	movs	r3, #0
  3022aa:	f000 fab1 	bl	302810 <is_bl2fw_data_valid_new>
  3022ae:	4604      	mov	r4, r0
  3022b0:	b920      	cbnz	r0, 3022bc <check_bl2fw_sign_async+0x104>
  3022b2:	9903      	ldr	r1, [sp, #12]
  3022b4:	480b      	ldr	r0, [pc, #44]	; (3022e4 <check_bl2fw_sign_async+0x12c>)
  3022b6:	f002 f889 	bl	3043cc <printf>
  3022ba:	e00a      	b.n	3022d2 <check_bl2fw_sign_async+0x11a>
  3022bc:	2301      	movs	r3, #1
  3022be:	826b      	strh	r3, [r5, #18]
  3022c0:	9b05      	ldr	r3, [sp, #20]
  3022c2:	602f      	str	r7, [r5, #0]
  3022c4:	606f      	str	r7, [r5, #4]
  3022c6:	60ab      	str	r3, [r5, #8]
  3022c8:	f8c5 b00c 	str.w	fp, [r5, #12]
  3022cc:	f000 fb6c 	bl	3029a8 <get_bl2fw_hdr_flags>
  3022d0:	8228      	strh	r0, [r5, #16]
  3022d2:	4620      	mov	r0, r4
  3022d4:	b007      	add	sp, #28
  3022d6:	e8bd 8ff0 	ldmia.w	sp!, {r4, r5, r6, r7, r8, r9, sl, fp, pc}
  3022da:	bf00      	nop
  3022dc:	0030a240 	eorseq	sl, r0, r0, asr #4
  3022e0:	0030a140 	eorseq	sl, r0, r0, asr #2
  3022e4:	00300a58 	eorseq	r0, r0, r8, asr sl

003022e8 <check_bl2fw_sign>:
  3022e8:	e92d 47ff 	stmdb	sp!, {r0, r1, r2, r3, r4, r5, r6, r7, r8, r9, sl, lr}
  3022ec:	4614      	mov	r4, r2
  3022ee:	aa03      	add	r2, sp, #12
  3022f0:	4682      	mov	sl, r0
  3022f2:	f7ff ff24 	bl	30213e <check_bl2fw_hdr>
  3022f6:	4606      	mov	r6, r0
  3022f8:	2800      	cmp	r0, #0
  3022fa:	d041      	beq.n	302380 <check_bl2fw_sign+0x98>
  3022fc:	9d03      	ldr	r5, [sp, #12]
  3022fe:	f000 fb3b 	bl	302978 <get_bl2fw_hdr_fls_addr>
  302302:	2600      	movs	r6, #0
  302304:	4428      	add	r0, r5
  302306:	9003      	str	r0, [sp, #12]
  302308:	f000 fb3c 	bl	302984 <get_bl2fw_hdr_fls_size>
  30230c:	4607      	mov	r7, r0
  30230e:	f000 fb3f 	bl	302990 <get_bl2fw_hdr_load_addr>
  302312:	ea4f 2817 	mov.w	r8, r7, lsr #8
  302316:	491c      	ldr	r1, [pc, #112]	; (302388 <check_bl2fw_sign+0xa0>)
  302318:	9a03      	ldr	r2, [sp, #12]
  30231a:	4643      	mov	r3, r8
  30231c:	9000      	str	r0, [sp, #0]
  30231e:	4605      	mov	r5, r0
  302320:	481a      	ldr	r0, [pc, #104]	; (30238c <check_bl2fw_sign+0xa4>)
  302322:	f002 f853 	bl	3043cc <printf>
  302326:	4546      	cmp	r6, r8
  302328:	da11      	bge.n	30234e <check_bl2fw_sign+0x66>
  30232a:	9803      	ldr	r0, [sp, #12]
  30232c:	ea4f 2906 	mov.w	r9, r6, lsl #8
  302330:	4917      	ldr	r1, [pc, #92]	; (302390 <check_bl2fw_sign+0xa8>)
  302332:	f44f 7280 	mov.w	r2, #256	; 0x100
  302336:	4448      	add	r0, r9
  302338:	3601      	adds	r6, #1
  30233a:	f003 fbb9 	bl	305ab0 <spinor_hw_read_page>
  30233e:	eb09 0005 	add.w	r0, r9, r5
  302342:	4913      	ldr	r1, [pc, #76]	; (302390 <check_bl2fw_sign+0xa8>)
  302344:	f44f 7280 	mov.w	r2, #256	; 0x100
  302348:	f000 fd9b 	bl	302e82 <memcpy>
  30234c:	e7eb      	b.n	302326 <check_bl2fw_sign+0x3e>
  30234e:	2000      	movs	r0, #0
  302350:	4629      	mov	r1, r5
  302352:	463a      	mov	r2, r7
  302354:	4603      	mov	r3, r0
  302356:	f000 fa29 	bl	3027ac <is_bl2fw_data_valid>
  30235a:	4606      	mov	r6, r0
  30235c:	b920      	cbnz	r0, 302368 <check_bl2fw_sign+0x80>
  30235e:	4651      	mov	r1, sl
  302360:	480c      	ldr	r0, [pc, #48]	; (302394 <check_bl2fw_sign+0xac>)
  302362:	f002 f833 	bl	3043cc <printf>
  302366:	e00b      	b.n	302380 <check_bl2fw_sign+0x98>
  302368:	2301      	movs	r3, #1
  30236a:	8263      	strh	r3, [r4, #18]
  30236c:	9b03      	ldr	r3, [sp, #12]
  30236e:	6025      	str	r5, [r4, #0]
  302370:	60a3      	str	r3, [r4, #8]
  302372:	f000 fb13 	bl	30299c <get_bl2fw_hdr_exec_addr>
  302376:	60e7      	str	r7, [r4, #12]
  302378:	6060      	str	r0, [r4, #4]
  30237a:	f000 fb15 	bl	3029a8 <get_bl2fw_hdr_flags>
  30237e:	8220      	strh	r0, [r4, #16]
  302380:	4630      	mov	r0, r6
  302382:	b004      	add	sp, #16
  302384:	e8bd 87f0 	ldmia.w	sp!, {r4, r5, r6, r7, r8, r9, sl, pc}
  302388:	00300604 	eorseq	r0, r0, r4, lsl #12
  30238c:	00300a83 	eorseq	r0, r0, r3, lsl #21
  302390:	003081c0 	eorseq	r8, r0, r0, asr #3
  302394:	00300a58 	eorseq	r0, r0, r8, asr sl

00302398 <boot_bb_fw_speed>:
  302398:	b538      	push	{r3, r4, r5, lr}
  30239a:	2102      	movs	r1, #2
  30239c:	4812      	ldr	r0, [pc, #72]	; (3023e8 <boot_bb_fw_speed+0x50>)
  30239e:	4a13      	ldr	r2, [pc, #76]	; (3023ec <boot_bb_fw_speed+0x54>)
  3023a0:	f7ff ff0a 	bl	3021b8 <check_bl2fw_sign_async>
  3023a4:	4c11      	ldr	r4, [pc, #68]	; (3023ec <boot_bb_fw_speed+0x54>)
  3023a6:	b938      	cbnz	r0, 3023b8 <boot_bb_fw_speed+0x20>
  3023a8:	4811      	ldr	r0, [pc, #68]	; (3023f0 <boot_bb_fw_speed+0x58>)
  3023aa:	2102      	movs	r1, #2
  3023ac:	4622      	mov	r2, r4
  3023ae:	f7ff ff03 	bl	3021b8 <check_bl2fw_sign_async>
  3023b2:	b1b8      	cbz	r0, 3023e4 <boot_bb_fw_speed+0x4c>
  3023b4:	2501      	movs	r5, #1
  3023b6:	e000      	b.n	3023ba <boot_bb_fw_speed+0x22>
  3023b8:	2500      	movs	r5, #0
  3023ba:	6860      	ldr	r0, [r4, #4]
  3023bc:	68e1      	ldr	r1, [r4, #12]
  3023be:	4401      	add	r1, r0
  3023c0:	f7fe e808 	blx	3003d4 <v7_dma_flush_range>
  3023c4:	6860      	ldr	r0, [r4, #4]
  3023c6:	68e1      	ldr	r1, [r4, #12]
  3023c8:	462b      	mov	r3, r5
  3023ca:	68a2      	ldr	r2, [r4, #8]
  3023cc:	f002 fa1c 	bl	304808 <fastboot_save_para>
  3023d0:	6861      	ldr	r1, [r4, #4]
  3023d2:	4808      	ldr	r0, [pc, #32]	; (3023f4 <boot_bb_fw_speed+0x5c>)
  3023d4:	f001 fffa 	bl	3043cc <printf>
  3023d8:	6860      	ldr	r0, [r4, #4]
  3023da:	2100      	movs	r1, #0
  3023dc:	e8bd 4038 	ldmia.w	sp!, {r3, r4, r5, lr}
  3023e0:	f7ff bea8 	b.w	302134 <do_go_exec>
  3023e4:	bd38      	pop	{r3, r4, r5, pc}
  3023e6:	bf00      	nop
  3023e8:	00300aaa 	eorseq	r0, r0, sl, lsr #21
  3023ec:	0030a358 	eorseq	sl, r0, r8, asr r3
  3023f0:	00300ab6 	ldrhteq	r0, [r0], -r6
  3023f4:	00300ac5 	eorseq	r0, r0, r5, asr #21

003023f8 <boot_bb_fw>:
  3023f8:	b538      	push	{r3, r4, r5, lr}
  3023fa:	2102      	movs	r1, #2
  3023fc:	4812      	ldr	r0, [pc, #72]	; (302448 <boot_bb_fw+0x50>)
  3023fe:	4a13      	ldr	r2, [pc, #76]	; (30244c <boot_bb_fw+0x54>)
  302400:	f7ff ff72 	bl	3022e8 <check_bl2fw_sign>
  302404:	4c11      	ldr	r4, [pc, #68]	; (30244c <boot_bb_fw+0x54>)
  302406:	b938      	cbnz	r0, 302418 <boot_bb_fw+0x20>
  302408:	4811      	ldr	r0, [pc, #68]	; (302450 <boot_bb_fw+0x58>)
  30240a:	2102      	movs	r1, #2
  30240c:	4622      	mov	r2, r4
  30240e:	f7ff ff6b 	bl	3022e8 <check_bl2fw_sign>
  302412:	b1b8      	cbz	r0, 302444 <boot_bb_fw+0x4c>
  302414:	2501      	movs	r5, #1
  302416:	e000      	b.n	30241a <boot_bb_fw+0x22>
  302418:	2500      	movs	r5, #0
  30241a:	6860      	ldr	r0, [r4, #4]
  30241c:	68e1      	ldr	r1, [r4, #12]
  30241e:	4401      	add	r1, r0
  302420:	f7fd efd8 	blx	3003d4 <v7_dma_flush_range>
  302424:	6860      	ldr	r0, [r4, #4]
  302426:	68e1      	ldr	r1, [r4, #12]
  302428:	462b      	mov	r3, r5
  30242a:	68a2      	ldr	r2, [r4, #8]
  30242c:	f002 f9ec 	bl	304808 <fastboot_save_para>
  302430:	6861      	ldr	r1, [r4, #4]
  302432:	4808      	ldr	r0, [pc, #32]	; (302454 <boot_bb_fw+0x5c>)
  302434:	f001 ffca 	bl	3043cc <printf>
  302438:	6860      	ldr	r0, [r4, #4]
  30243a:	2100      	movs	r1, #0
  30243c:	e8bd 4038 	ldmia.w	sp!, {r3, r4, r5, lr}
  302440:	f7ff be78 	b.w	302134 <do_go_exec>
  302444:	bd38      	pop	{r3, r4, r5, pc}
  302446:	bf00      	nop
  302448:	00300aaa 	eorseq	r0, r0, sl, lsr #21
  30244c:	0030a358 	eorseq	sl, r0, r8, asr r3
  302450:	00300ab6 	ldrhteq	r0, [r0], -r6
  302454:	00300ac5 	eorseq	r0, r0, r5, asr #21

00302458 <print_bl2fw_info>:
  302458:	b570      	push	{r4, r5, r6, lr}
  30245a:	4605      	mov	r5, r0
  30245c:	460c      	mov	r4, r1
  30245e:	482b      	ldr	r0, [pc, #172]	; (30250c <print_bl2fw_info+0xb4>)
  302460:	4611      	mov	r1, r2
  302462:	4616      	mov	r6, r2
  302464:	f001 ffb2 	bl	3043cc <printf>
  302468:	68a9      	ldr	r1, [r5, #8]
  30246a:	4829      	ldr	r0, [pc, #164]	; (302510 <print_bl2fw_info+0xb8>)
  30246c:	f001 ffae 	bl	3043cc <printf>
  302470:	68e9      	ldr	r1, [r5, #12]
  302472:	4828      	ldr	r0, [pc, #160]	; (302514 <print_bl2fw_info+0xbc>)
  302474:	0a8a      	lsrs	r2, r1, #10
  302476:	f001 ffa9 	bl	3043cc <printf>
  30247a:	6829      	ldr	r1, [r5, #0]
  30247c:	4826      	ldr	r0, [pc, #152]	; (302518 <print_bl2fw_info+0xc0>)
  30247e:	f001 ffa5 	bl	3043cc <printf>
  302482:	6869      	ldr	r1, [r5, #4]
  302484:	4825      	ldr	r0, [pc, #148]	; (30251c <print_bl2fw_info+0xc4>)
  302486:	f001 ffa1 	bl	3043cc <printf>
  30248a:	8a29      	ldrh	r1, [r5, #16]
  30248c:	4824      	ldr	r0, [pc, #144]	; (302520 <print_bl2fw_info+0xc8>)
  30248e:	f001 ff9d 	bl	3043cc <printf>
  302492:	4b24      	ldr	r3, [pc, #144]	; (302524 <print_bl2fw_info+0xcc>)
  302494:	4924      	ldr	r1, [pc, #144]	; (302528 <print_bl2fw_info+0xd0>)
  302496:	4825      	ldr	r0, [pc, #148]	; (30252c <print_bl2fw_info+0xd4>)
  302498:	2c00      	cmp	r4, #0
  30249a:	bf18      	it	ne
  30249c:	4619      	movne	r1, r3
  30249e:	f001 ff95 	bl	3043cc <printf>
  3024a2:	8a69      	ldrh	r1, [r5, #18]
  3024a4:	2901      	cmp	r1, #1
  3024a6:	d106      	bne.n	3024b6 <print_bl2fw_info+0x5e>
  3024a8:	696c      	ldr	r4, [r5, #20]
  3024aa:	b924      	cbnz	r4, 3024b6 <print_bl2fw_info+0x5e>
  3024ac:	4631      	mov	r1, r6
  3024ae:	4820      	ldr	r0, [pc, #128]	; (302530 <print_bl2fw_info+0xd8>)
  3024b0:	f001 ff8c 	bl	3043cc <printf>
  3024b4:	e023      	b.n	3024fe <print_bl2fw_info+0xa6>
  3024b6:	481f      	ldr	r0, [pc, #124]	; (302534 <print_bl2fw_info+0xdc>)
  3024b8:	696a      	ldr	r2, [r5, #20]
  3024ba:	f001 ff87 	bl	3043cc <printf>
  3024be:	696b      	ldr	r3, [r5, #20]
  3024c0:	3309      	adds	r3, #9
  3024c2:	2b08      	cmp	r3, #8
  3024c4:	d819      	bhi.n	3024fa <print_bl2fw_info+0xa2>
  3024c6:	e8df f003 	tbb	[pc, r3]
  3024ca:	0f111315 	svceq	0x00111315
  3024ce:	07090b0d 	streq	r0, [r9, -sp, lsl #22]
  3024d2:	48180005 	ldmdami	r8, {r0, r2}
  3024d6:	e00e      	b.n	3024f6 <print_bl2fw_info+0x9e>
  3024d8:	4818      	ldr	r0, [pc, #96]	; (30253c <print_bl2fw_info+0xe4>)
  3024da:	e00c      	b.n	3024f6 <print_bl2fw_info+0x9e>
  3024dc:	4818      	ldr	r0, [pc, #96]	; (302540 <print_bl2fw_info+0xe8>)
  3024de:	e00a      	b.n	3024f6 <print_bl2fw_info+0x9e>
  3024e0:	4818      	ldr	r0, [pc, #96]	; (302544 <print_bl2fw_info+0xec>)
  3024e2:	e008      	b.n	3024f6 <print_bl2fw_info+0x9e>
  3024e4:	4818      	ldr	r0, [pc, #96]	; (302548 <print_bl2fw_info+0xf0>)
  3024e6:	e006      	b.n	3024f6 <print_bl2fw_info+0x9e>
  3024e8:	4818      	ldr	r0, [pc, #96]	; (30254c <print_bl2fw_info+0xf4>)
  3024ea:	e004      	b.n	3024f6 <print_bl2fw_info+0x9e>
  3024ec:	4818      	ldr	r0, [pc, #96]	; (302550 <print_bl2fw_info+0xf8>)
  3024ee:	e002      	b.n	3024f6 <print_bl2fw_info+0x9e>
  3024f0:	4818      	ldr	r0, [pc, #96]	; (302554 <print_bl2fw_info+0xfc>)
  3024f2:	e000      	b.n	3024f6 <print_bl2fw_info+0x9e>
  3024f4:	4818      	ldr	r0, [pc, #96]	; (302558 <print_bl2fw_info+0x100>)
  3024f6:	f001 ff69 	bl	3043cc <printf>
  3024fa:	f04f 34ff 	mov.w	r4, #4294967295	; 0xffffffff
  3024fe:	4631      	mov	r1, r6
  302500:	4816      	ldr	r0, [pc, #88]	; (30255c <print_bl2fw_info+0x104>)
  302502:	f001 ff63 	bl	3043cc <printf>
  302506:	4620      	mov	r0, r4
  302508:	bd70      	pop	{r4, r5, r6, pc}
  30250a:	bf00      	nop
  30250c:	00300aed 	eorseq	r0, r0, sp, ror #21
  302510:	00300b07 	eorseq	r0, r0, r7, lsl #22
  302514:	00300b1e 	eorseq	r0, r0, lr, lsl fp
  302518:	00300b3b 	eorseq	r0, r0, fp, lsr fp
  30251c:	00300b52 	eorseq	r0, r0, r2, asr fp
  302520:	00300b69 	eorseq	r0, r0, r9, ror #22
  302524:	00300adc 	ldrsbteq	r0, [r0], -ip
  302528:	00300ae4 	eorseq	r0, r0, r4, ror #21
  30252c:	00300b80 	eorseq	r0, r0, r0, lsl #23
  302530:	00300b8e 	eorseq	r0, r0, lr, lsl #23
  302534:	00300ba5 	eorseq	r0, r0, r5, lsr #23
  302538:	00300bbb 	ldrhteq	r0, [r0], -fp
  30253c:	00300bcb 	eorseq	r0, r0, fp, asr #23
  302540:	00300bd9 	ldrsbteq	r0, [r0], -r9
  302544:	00300be7 	eorseq	r0, r0, r7, ror #23
  302548:	00300bff 	ldrshteq	r0, [r0], -pc
  30254c:	00300c0c 	eorseq	r0, r0, ip, lsl #24
  302550:	00300c24 	eorseq	r0, r0, r4, lsr #24
  302554:	00300c3d 	eorseq	r0, r0, sp, lsr ip
  302558:	00300c4f 	eorseq	r0, r0, pc, asr #24
  30255c:	00300c5e 	eorseq	r0, r0, lr, asr ip

00302560 <copy_rom_run_paramter_to_dst>:
  302560:	4803      	ldr	r0, [pc, #12]	; (302570 <copy_rom_run_paramter_to_dst+0x10>)
  302562:	f44f 11bf 	mov.w	r1, #1564672	; 0x17e000
  302566:	f44f 5200 	mov.w	r2, #8192	; 0x2000
  30256a:	f000 bc8a 	b.w	302e82 <memcpy>
  30256e:	bf00      	nop
  302570:	002fe000 	eoreq	lr, pc, r0

00302574 <boot_parse_init>:
  302574:	b508      	push	{r3, lr}
  302576:	f7ff fff3 	bl	302560 <copy_rom_run_paramter_to_dst>
  30257a:	f000 f903 	bl	302784 <copy_mbr_cfg_from_rsv>
  30257e:	e8bd 4008 	ldmia.w	sp!, {r3, lr}
  302582:	f7ff bf09 	b.w	302398 <boot_bb_fw_speed>
  302586:	bf00      	nop

00302588 <get_flash_mbr_dbuf>:
  302588:	4800      	ldr	r0, [pc, #0]	; (30258c <get_flash_mbr_dbuf+0x4>)
  30258a:	4770      	bx	lr
  30258c:	003082c0 	eorseq	r8, r0, r0, asr #5

00302590 <get_flash_mbr>:
  302590:	e92d 43f8 	stmdb	sp!, {r3, r4, r5, r6, r7, r8, r9, lr}
  302594:	460d      	mov	r5, r1
  302596:	4616      	mov	r6, r2
  302598:	4680      	mov	r8, r0
  30259a:	b910      	cbnz	r0, 3025a2 <get_flash_mbr+0x12>
  30259c:	2000      	movs	r0, #0
  30259e:	e8bd 83f8 	ldmia.w	sp!, {r3, r4, r5, r6, r7, r8, r9, pc}
  3025a2:	b109      	cbz	r1, 3025a8 <get_flash_mbr+0x18>
  3025a4:	2300      	movs	r3, #0
  3025a6:	600b      	str	r3, [r1, #0]
  3025a8:	b10e      	cbz	r6, 3025ae <get_flash_mbr+0x1e>
  3025aa:	2300      	movs	r3, #0
  3025ac:	6033      	str	r3, [r6, #0]
  3025ae:	f8df 906c 	ldr.w	r9, [pc, #108]	; 30261c <get_flash_mbr+0x8c>
  3025b2:	2700      	movs	r7, #0
  3025b4:	2300      	movs	r3, #0
  3025b6:	eb09 0407 	add.w	r4, r9, r7
  3025ba:	461a      	mov	r2, r3
  3025bc:	5ca1      	ldrb	r1, [r4, r2]
  3025be:	3201      	adds	r2, #1
  3025c0:	29ff      	cmp	r1, #255	; 0xff
  3025c2:	bf08      	it	eq
  3025c4:	3301      	addeq	r3, #1
  3025c6:	2a10      	cmp	r2, #16
  3025c8:	d1f8      	bne.n	3025bc <get_flash_mbr+0x2c>
  3025ca:	2b10      	cmp	r3, #16
  3025cc:	d0e6      	beq.n	30259c <get_flash_mbr+0xc>
  3025ce:	4620      	mov	r0, r4
  3025d0:	4641      	mov	r1, r8
  3025d2:	f000 fb68 	bl	302ca6 <strcmp>
  3025d6:	b948      	cbnz	r0, 3025ec <get_flash_mbr+0x5c>
  3025d8:	6923      	ldr	r3, [r4, #16]
  3025da:	f1b3 7f80 	cmp.w	r3, #16777216	; 0x1000000
  3025de:	d2dd      	bcs.n	30259c <get_flash_mbr+0xc>
  3025e0:	6962      	ldr	r2, [r4, #20]
  3025e2:	4413      	add	r3, r2
  3025e4:	f1b3 7f80 	cmp.w	r3, #16777216	; 0x1000000
  3025e8:	d305      	bcc.n	3025f6 <get_flash_mbr+0x66>
  3025ea:	e7d7      	b.n	30259c <get_flash_mbr+0xc>
  3025ec:	3720      	adds	r7, #32
  3025ee:	f5b7 5f80 	cmp.w	r7, #4096	; 0x1000
  3025f2:	d1df      	bne.n	3025b4 <get_flash_mbr+0x24>
  3025f4:	e7d2      	b.n	30259c <get_flash_mbr+0xc>
  3025f6:	4620      	mov	r0, r4
  3025f8:	211e      	movs	r1, #30
  3025fa:	f001 fa7b 	bl	303af4 <crc16>
  3025fe:	8ba3      	ldrh	r3, [r4, #28]
  302600:	079b      	lsls	r3, r3, #30
  302602:	d0cb      	beq.n	30259c <get_flash_mbr+0xc>
  302604:	8be3      	ldrh	r3, [r4, #30]
  302606:	4283      	cmp	r3, r0
  302608:	d1c8      	bne.n	30259c <get_flash_mbr+0xc>
  30260a:	b10d      	cbz	r5, 302610 <get_flash_mbr+0x80>
  30260c:	6923      	ldr	r3, [r4, #16]
  30260e:	602b      	str	r3, [r5, #0]
  302610:	b10e      	cbz	r6, 302616 <get_flash_mbr+0x86>
  302612:	6963      	ldr	r3, [r4, #20]
  302614:	6033      	str	r3, [r6, #0]
  302616:	2001      	movs	r0, #1
  302618:	e8bd 83f8 	ldmia.w	sp!, {r3, r4, r5, r6, r7, r8, r9, pc}
  30261c:	003082c0 	eorseq	r8, r0, r0, asr #5

00302620 <is_mbr_cfg_valid>:
  302620:	2100      	movs	r1, #0
  302622:	4802      	ldr	r0, [pc, #8]	; (30262c <is_mbr_cfg_valid+0xc>)
  302624:	460a      	mov	r2, r1
  302626:	f7ff bfb3 	b.w	302590 <get_flash_mbr>
  30262a:	bf00      	nop
  30262c:	00300c7b 	eorseq	r0, r0, fp, ror ip

00302630 <print_mbr_info>:
  302630:	e92d 47f0 	stmdb	sp!, {r4, r5, r6, r7, r8, r9, sl, lr}
  302634:	4605      	mov	r5, r0
  302636:	4832      	ldr	r0, [pc, #200]	; (302700 <print_mbr_info+0xd0>)
  302638:	460e      	mov	r6, r1
  30263a:	f001 fec7 	bl	3043cc <printf>
  30263e:	4831      	ldr	r0, [pc, #196]	; (302704 <print_mbr_info+0xd4>)
  302640:	f001 fec4 	bl	3043cc <printf>
  302644:	4c30      	ldr	r4, [pc, #192]	; (302708 <print_mbr_info+0xd8>)
  302646:	f8df 80e4 	ldr.w	r8, [pc, #228]	; 30272c <print_mbr_info+0xfc>
  30264a:	2700      	movs	r7, #0
  30264c:	f8df 90e0 	ldr.w	r9, [pc, #224]	; 302730 <print_mbr_info+0x100>
  302650:	2300      	movs	r3, #0
  302652:	461a      	mov	r2, r3
  302654:	5ca1      	ldrb	r1, [r4, r2]
  302656:	3201      	adds	r2, #1
  302658:	29ff      	cmp	r1, #255	; 0xff
  30265a:	bf08      	it	eq
  30265c:	3301      	addeq	r3, #1
  30265e:	2a10      	cmp	r2, #16
  302660:	d1f8      	bne.n	302654 <print_mbr_info+0x24>
  302662:	2b10      	cmp	r3, #16
  302664:	d043      	beq.n	3026ee <print_mbr_info+0xbe>
  302666:	4620      	mov	r0, r4
  302668:	211e      	movs	r1, #30
  30266a:	f001 fa43 	bl	303af4 <crc16>
  30266e:	8ba3      	ldrh	r3, [r4, #28]
  302670:	079a      	lsls	r2, r3, #30
  302672:	4682      	mov	sl, r0
  302674:	d036      	beq.n	3026e4 <print_mbr_info+0xb4>
  302676:	4621      	mov	r1, r4
  302678:	4824      	ldr	r0, [pc, #144]	; (30270c <print_mbr_info+0xdc>)
  30267a:	f001 fea7 	bl	3043cc <printf>
  30267e:	6921      	ldr	r1, [r4, #16]
  302680:	4823      	ldr	r0, [pc, #140]	; (302710 <print_mbr_info+0xe0>)
  302682:	f001 fea3 	bl	3043cc <printf>
  302686:	6961      	ldr	r1, [r4, #20]
  302688:	4822      	ldr	r0, [pc, #136]	; (302714 <print_mbr_info+0xe4>)
  30268a:	0a8a      	lsrs	r2, r1, #10
  30268c:	f001 fe9e 	bl	3043cc <printf>
  302690:	8be1      	ldrh	r1, [r4, #30]
  302692:	4821      	ldr	r0, [pc, #132]	; (302718 <print_mbr_info+0xe8>)
  302694:	f001 fe9a 	bl	3043cc <printf>
  302698:	8be1      	ldrh	r1, [r4, #30]
  30269a:	4820      	ldr	r0, [pc, #128]	; (30271c <print_mbr_info+0xec>)
  30269c:	4551      	cmp	r1, sl
  30269e:	bf14      	ite	ne
  3026a0:	4641      	movne	r1, r8
  3026a2:	4649      	moveq	r1, r9
  3026a4:	f001 fe92 	bl	3043cc <printf>
  3026a8:	4620      	mov	r0, r4
  3026aa:	491d      	ldr	r1, [pc, #116]	; (302720 <print_mbr_info+0xf0>)
  3026ac:	220c      	movs	r2, #12
  3026ae:	f000 fb07 	bl	302cc0 <strncmp>
  3026b2:	b940      	cbnz	r0, 3026c6 <print_mbr_info+0x96>
  3026b4:	6923      	ldr	r3, [r4, #16]
  3026b6:	60ab      	str	r3, [r5, #8]
  3026b8:	6963      	ldr	r3, [r4, #20]
  3026ba:	60eb      	str	r3, [r5, #12]
  3026bc:	8ba3      	ldrh	r3, [r4, #28]
  3026be:	6168      	str	r0, [r5, #20]
  3026c0:	822b      	strh	r3, [r5, #16]
  3026c2:	2301      	movs	r3, #1
  3026c4:	826b      	strh	r3, [r5, #18]
  3026c6:	4620      	mov	r0, r4
  3026c8:	4916      	ldr	r1, [pc, #88]	; (302724 <print_mbr_info+0xf4>)
  3026ca:	220f      	movs	r2, #15
  3026cc:	f000 faf8 	bl	302cc0 <strncmp>
  3026d0:	b940      	cbnz	r0, 3026e4 <print_mbr_info+0xb4>
  3026d2:	6923      	ldr	r3, [r4, #16]
  3026d4:	60b3      	str	r3, [r6, #8]
  3026d6:	6963      	ldr	r3, [r4, #20]
  3026d8:	60f3      	str	r3, [r6, #12]
  3026da:	8ba3      	ldrh	r3, [r4, #28]
  3026dc:	6170      	str	r0, [r6, #20]
  3026de:	8233      	strh	r3, [r6, #16]
  3026e0:	2301      	movs	r3, #1
  3026e2:	8273      	strh	r3, [r6, #18]
  3026e4:	3720      	adds	r7, #32
  3026e6:	3420      	adds	r4, #32
  3026e8:	f5b7 5f80 	cmp.w	r7, #4096	; 0x1000
  3026ec:	d1b0      	bne.n	302650 <print_mbr_info+0x20>
  3026ee:	0979      	lsrs	r1, r7, #5
  3026f0:	480d      	ldr	r0, [pc, #52]	; (302728 <print_mbr_info+0xf8>)
  3026f2:	f001 fe6b 	bl	3043cc <printf>
  3026f6:	4802      	ldr	r0, [pc, #8]	; (302700 <print_mbr_info+0xd0>)
  3026f8:	e8bd 47f0 	ldmia.w	sp!, {r4, r5, r6, r7, r8, r9, sl, lr}
  3026fc:	f001 be66 	b.w	3043cc <printf>
  302700:	00300c78 	eorseq	r0, r0, r8, ror ip
  302704:	00300c91 	mlaseq	r0, r1, ip, r0
  302708:	003082c0 	eorseq	r8, r0, r0, asr #5
  30270c:	00300cc2 	eorseq	r0, r0, r2, asr #25
  302710:	00300cd8 	ldrsbteq	r0, [r0], -r8
  302714:	00300cef 	eorseq	r0, r0, pc, ror #25
  302718:	00300d0c 	eorseq	r0, r0, ip, lsl #26
  30271c:	00300d23 	eorseq	r0, r0, r3, lsr #26
  302720:	00300aaa 	eorseq	r0, r0, sl, lsr #21
  302724:	00300ab6 	ldrhteq	r0, [r0], -r6
  302728:	00300d39 	eorseq	r0, r0, r9, lsr sp
  30272c:	00300c8a 	eorseq	r0, r0, sl, lsl #25
  302730:	00300c85 	eorseq	r0, r0, r5, lsl #25

00302734 <read_mbr_cfg>:
  302734:	b538      	push	{r3, r4, r5, lr}
  302736:	2500      	movs	r5, #0
  302738:	4c10      	ldr	r4, [pc, #64]	; (30277c <read_mbr_cfg+0x48>)
  30273a:	4628      	mov	r0, r5
  30273c:	4621      	mov	r1, r4
  30273e:	f44f 7280 	mov.w	r2, #256	; 0x100
  302742:	f003 f9b5 	bl	305ab0 <spinor_hw_read_page>
  302746:	2800      	cmp	r0, #0
  302748:	da04      	bge.n	302754 <read_mbr_cfg+0x20>
  30274a:	480d      	ldr	r0, [pc, #52]	; (302780 <read_mbr_cfg+0x4c>)
  30274c:	f001 fe3e 	bl	3043cc <printf>
  302750:	2000      	movs	r0, #0
  302752:	bd38      	pop	{r3, r4, r5, pc}
  302754:	4404      	add	r4, r0
  302756:	f814 3c01 	ldrb.w	r3, [r4, #-1]
  30275a:	2bff      	cmp	r3, #255	; 0xff
  30275c:	d107      	bne.n	30276e <read_mbr_cfg+0x3a>
  30275e:	f814 3c02 	ldrb.w	r3, [r4, #-2]
  302762:	2bff      	cmp	r3, #255	; 0xff
  302764:	d103      	bne.n	30276e <read_mbr_cfg+0x3a>
  302766:	f814 3c03 	ldrb.w	r3, [r4, #-3]
  30276a:	2bff      	cmp	r3, #255	; 0xff
  30276c:	d004      	beq.n	302778 <read_mbr_cfg+0x44>
  30276e:	f505 7580 	add.w	r5, r5, #256	; 0x100
  302772:	f5b5 5f80 	cmp.w	r5, #4096	; 0x1000
  302776:	d1e0      	bne.n	30273a <read_mbr_cfg+0x6>
  302778:	2001      	movs	r0, #1
  30277a:	bd38      	pop	{r3, r4, r5, pc}
  30277c:	003082c0 	eorseq	r8, r0, r0, asr #5
  302780:	00300d6b 	eorseq	r0, r0, fp, ror #26

00302784 <copy_mbr_cfg_from_rsv>:
  302784:	b508      	push	{r3, lr}
  302786:	4a05      	ldr	r2, [pc, #20]	; (30279c <copy_mbr_cfg_from_rsv+0x18>)
  302788:	4b05      	ldr	r3, [pc, #20]	; (3027a0 <copy_mbr_cfg_from_rsv+0x1c>)
  30278a:	4906      	ldr	r1, [pc, #24]	; (3027a4 <copy_mbr_cfg_from_rsv+0x20>)
  30278c:	4806      	ldr	r0, [pc, #24]	; (3027a8 <copy_mbr_cfg_from_rsv+0x24>)
  30278e:	601a      	str	r2, [r3, #0]
  302790:	f44f 5280 	mov.w	r2, #4096	; 0x1000
  302794:	f000 fb75 	bl	302e82 <memcpy>
  302798:	2001      	movs	r0, #1
  30279a:	bd08      	pop	{r3, pc}
  30279c:	002fe000 	eoreq	lr, pc, r0
  3027a0:	0030a370 	eorseq	sl, r0, r0, ror r3
  3027a4:	002fe150 	eoreq	lr, pc, r0, asr r1	; <UNPREDICTABLE>
  3027a8:	003082c0 	eorseq	r8, r0, r0, asr #5

003027ac <is_bl2fw_data_valid>:
  3027ac:	e92d 41f0 	stmdb	sp!, {r4, r5, r6, r7, r8, lr}
  3027b0:	4607      	mov	r7, r0
  3027b2:	4614      	mov	r4, r2
  3027b4:	4698      	mov	r8, r3
  3027b6:	460e      	mov	r6, r1
  3027b8:	b141      	cbz	r1, 3027cc <is_bl2fw_data_valid+0x20>
  3027ba:	2a08      	cmp	r2, #8
  3027bc:	dd02      	ble.n	3027c4 <is_bl2fw_data_valid+0x18>
  3027be:	f012 05ff 	ands.w	r5, r2, #255	; 0xff
  3027c2:	d006      	beq.n	3027d2 <is_bl2fw_data_valid+0x26>
  3027c4:	480f      	ldr	r0, [pc, #60]	; (302804 <is_bl2fw_data_valid+0x58>)
  3027c6:	4621      	mov	r1, r4
  3027c8:	f001 fe00 	bl	3043cc <printf>
  3027cc:	2000      	movs	r0, #0
  3027ce:	e8bd 81f0 	ldmia.w	sp!, {r4, r5, r6, r7, r8, pc}
  3027d2:	4628      	mov	r0, r5
  3027d4:	3a04      	subs	r2, #4
  3027d6:	f001 f987 	bl	303ae8 <crc32>
  3027da:	3c08      	subs	r4, #8
  3027dc:	1933      	adds	r3, r6, r4
  3027de:	685b      	ldr	r3, [r3, #4]
  3027e0:	4283      	cmp	r3, r0
  3027e2:	4601      	mov	r1, r0
  3027e4:	d001      	beq.n	3027ea <is_bl2fw_data_valid+0x3e>
  3027e6:	4808      	ldr	r0, [pc, #32]	; (302808 <is_bl2fw_data_valid+0x5c>)
  3027e8:	e7ee      	b.n	3027c8 <is_bl2fw_data_valid+0x1c>
  3027ea:	f1b8 0f00 	cmp.w	r8, #0
  3027ee:	d006      	beq.n	3027fe <is_bl2fw_data_valid+0x52>
  3027f0:	5933      	ldr	r3, [r6, r4]
  3027f2:	42bb      	cmp	r3, r7
  3027f4:	d003      	beq.n	3027fe <is_bl2fw_data_valid+0x52>
  3027f6:	4805      	ldr	r0, [pc, #20]	; (30280c <is_bl2fw_data_valid+0x60>)
  3027f8:	f001 fde8 	bl	3043cc <printf>
  3027fc:	e7e6      	b.n	3027cc <is_bl2fw_data_valid+0x20>
  3027fe:	2001      	movs	r0, #1
  302800:	e8bd 81f0 	ldmia.w	sp!, {r4, r5, r6, r7, r8, pc}
  302804:	00300d97 	mlaseq	r0, r7, sp, r0
  302808:	00300db3 	ldrhteq	r0, [r0], -r3
  30280c:	00300dc9 	eorseq	r0, r0, r9, asr #27

00302810 <is_bl2fw_data_valid_new>:
  302810:	b508      	push	{r3, lr}
  302812:	4603      	mov	r3, r0
  302814:	b141      	cbz	r1, 302828 <is_bl2fw_data_valid_new+0x18>
  302816:	2a08      	cmp	r2, #8
  302818:	dd02      	ble.n	302820 <is_bl2fw_data_valid_new+0x10>
  30281a:	f012 0fff 	tst.w	r2, #255	; 0xff
  30281e:	d005      	beq.n	30282c <is_bl2fw_data_valid_new+0x1c>
  302820:	4808      	ldr	r0, [pc, #32]	; (302844 <is_bl2fw_data_valid_new+0x34>)
  302822:	4611      	mov	r1, r2
  302824:	f001 fdd2 	bl	3043cc <printf>
  302828:	2000      	movs	r0, #0
  30282a:	bd08      	pop	{r3, pc}
  30282c:	440a      	add	r2, r1
  30282e:	f852 2c04 	ldr.w	r2, [r2, #-4]
  302832:	4282      	cmp	r2, r0
  302834:	d003      	beq.n	30283e <is_bl2fw_data_valid_new+0x2e>
  302836:	4804      	ldr	r0, [pc, #16]	; (302848 <is_bl2fw_data_valid_new+0x38>)
  302838:	4619      	mov	r1, r3
  30283a:	f001 fdc7 	bl	3043cc <printf>
  30283e:	2001      	movs	r0, #1
  302840:	bd08      	pop	{r3, pc}
  302842:	bf00      	nop
  302844:	00300d97 	mlaseq	r0, r7, sp, r0
  302848:	00300ddc 	ldrsbteq	r0, [r0], -ip

0030284c <is_bl2fw_hdr_valid>:
  30284c:	b538      	push	{r3, r4, r5, lr}
  30284e:	4c2a      	ldr	r4, [pc, #168]	; (3028f8 <is_bl2fw_hdr_valid+0xac>)
  302850:	6823      	ldr	r3, [r4, #0]
  302852:	f8b3 1118 	ldrh.w	r1, [r3, #280]	; 0x118
  302856:	f001 0107 	and.w	r1, r1, #7
  30285a:	2901      	cmp	r1, #1
  30285c:	d103      	bne.n	302866 <is_bl2fw_hdr_valid+0x1a>
  30285e:	681a      	ldr	r2, [r3, #0]
  302860:	4d26      	ldr	r5, [pc, #152]	; (3028fc <is_bl2fw_hdr_valid+0xb0>)
  302862:	42aa      	cmp	r2, r5
  302864:	d009      	beq.n	30287a <is_bl2fw_hdr_valid+0x2e>
  302866:	1e8a      	subs	r2, r1, #2
  302868:	2a01      	cmp	r2, #1
  30286a:	d80d      	bhi.n	302888 <is_bl2fw_hdr_valid+0x3c>
  30286c:	681a      	ldr	r2, [r3, #0]
  30286e:	4d24      	ldr	r5, [pc, #144]	; (302900 <is_bl2fw_hdr_valid+0xb4>)
  302870:	42aa      	cmp	r2, r5
  302872:	d109      	bne.n	302888 <is_bl2fw_hdr_valid+0x3c>
  302874:	e003      	b.n	30287e <is_bl2fw_hdr_valid+0x32>
  302876:	2901      	cmp	r1, #1
  302878:	d10d      	bne.n	302896 <is_bl2fw_hdr_valid+0x4a>
  30287a:	2801      	cmp	r0, #1
  30287c:	e002      	b.n	302884 <is_bl2fw_hdr_valid+0x38>
  30287e:	2902      	cmp	r1, #2
  302880:	d105      	bne.n	30288e <is_bl2fw_hdr_valid+0x42>
  302882:	2802      	cmp	r0, #2
  302884:	d107      	bne.n	302896 <is_bl2fw_hdr_valid+0x4a>
  302886:	e008      	b.n	30289a <is_bl2fw_hdr_valid+0x4e>
  302888:	481e      	ldr	r0, [pc, #120]	; (302904 <is_bl2fw_hdr_valid+0xb8>)
  30288a:	6819      	ldr	r1, [r3, #0]
  30288c:	e027      	b.n	3028de <is_bl2fw_hdr_valid+0x92>
  30288e:	2903      	cmp	r1, #3
  302890:	d1f1      	bne.n	302876 <is_bl2fw_hdr_valid+0x2a>
  302892:	2803      	cmp	r0, #3
  302894:	e7f6      	b.n	302884 <is_bl2fw_hdr_valid+0x38>
  302896:	481c      	ldr	r0, [pc, #112]	; (302908 <is_bl2fw_hdr_valid+0xbc>)
  302898:	e021      	b.n	3028de <is_bl2fw_hdr_valid+0x92>
  30289a:	481c      	ldr	r0, [pc, #112]	; (30290c <is_bl2fw_hdr_valid+0xc0>)
  30289c:	f44f 718d 	mov.w	r1, #282	; 0x11a
  3028a0:	f001 f928 	bl	303af4 <crc16>
  3028a4:	6823      	ldr	r3, [r4, #0]
  3028a6:	f8b3 211a 	ldrh.w	r2, [r3, #282]	; 0x11a
  3028aa:	4282      	cmp	r2, r0
  3028ac:	d003      	beq.n	3028b6 <is_bl2fw_hdr_valid+0x6a>
  3028ae:	4818      	ldr	r0, [pc, #96]	; (302910 <is_bl2fw_hdr_valid+0xc4>)
  3028b0:	f001 fd8c 	bl	3043cc <printf>
  3028b4:	e015      	b.n	3028e2 <is_bl2fw_hdr_valid+0x96>
  3028b6:	6899      	ldr	r1, [r3, #8]
  3028b8:	f1b1 7f80 	cmp.w	r1, #16777216	; 0x1000000
  3028bc:	d204      	bcs.n	3028c8 <is_bl2fw_hdr_valid+0x7c>
  3028be:	68db      	ldr	r3, [r3, #12]
  3028c0:	185a      	adds	r2, r3, r1
  3028c2:	f1b2 7f80 	cmp.w	r2, #16777216	; 0x1000000
  3028c6:	d30e      	bcc.n	3028e6 <is_bl2fw_hdr_valid+0x9a>
  3028c8:	4812      	ldr	r0, [pc, #72]	; (302914 <is_bl2fw_hdr_valid+0xc8>)
  3028ca:	f001 fd7f 	bl	3043cc <printf>
  3028ce:	6823      	ldr	r3, [r4, #0]
  3028d0:	4811      	ldr	r0, [pc, #68]	; (302918 <is_bl2fw_hdr_valid+0xcc>)
  3028d2:	68d9      	ldr	r1, [r3, #12]
  3028d4:	f001 fd7a 	bl	3043cc <printf>
  3028d8:	6823      	ldr	r3, [r4, #0]
  3028da:	4810      	ldr	r0, [pc, #64]	; (30291c <is_bl2fw_hdr_valid+0xd0>)
  3028dc:	6919      	ldr	r1, [r3, #16]
  3028de:	f001 fd75 	bl	3043cc <printf>
  3028e2:	2000      	movs	r0, #0
  3028e4:	bd38      	pop	{r3, r4, r5, pc}
  3028e6:	f013 0fff 	tst.w	r3, #255	; 0xff
  3028ea:	d002      	beq.n	3028f2 <is_bl2fw_hdr_valid+0xa6>
  3028ec:	480c      	ldr	r0, [pc, #48]	; (302920 <is_bl2fw_hdr_valid+0xd4>)
  3028ee:	4619      	mov	r1, r3
  3028f0:	e7f5      	b.n	3028de <is_bl2fw_hdr_valid+0x92>
  3028f2:	2001      	movs	r0, #1
  3028f4:	bd38      	pop	{r3, r4, r5, pc}
  3028f6:	bf00      	nop
  3028f8:	003092c0 	eorseq	r9, r0, r0, asr #5
  3028fc:	64616f6c 	strbtvs	r6, [r1], #-3948	; 0xf6c
  302900:	77667766 	strbvc	r7, [r6, -r6, ror #14]!
  302904:	00300e3a 	eorseq	r0, r0, sl, lsr lr
  302908:	00300e4d 	eorseq	r0, r0, sp, asr #28
  30290c:	00309300 	eorseq	r9, r0, r0, lsl #6
  302910:	00300e65 	eorseq	r0, r0, r5, ror #28
  302914:	00300e70 	eorseq	r0, r0, r0, ror lr
  302918:	00300e81 	eorseq	r0, r0, r1, lsl #29
  30291c:	00300e92 	mlaseq	r0, r2, lr, r0
  302920:	00300e14 	eorseq	r0, r0, r4, lsl lr

00302924 <get_bl2fw_hdr_aes_enkey>:
  302924:	29ff      	cmp	r1, #255	; 0xff
  302926:	b508      	push	{r3, lr}
  302928:	dd08      	ble.n	30293c <get_bl2fw_hdr_aes_enkey+0x18>
  30292a:	4b05      	ldr	r3, [pc, #20]	; (302940 <get_bl2fw_hdr_aes_enkey+0x1c>)
  30292c:	f44f 7280 	mov.w	r2, #256	; 0x100
  302930:	6819      	ldr	r1, [r3, #0]
  302932:	3118      	adds	r1, #24
  302934:	f000 faa5 	bl	302e82 <memcpy>
  302938:	2001      	movs	r0, #1
  30293a:	bd08      	pop	{r3, pc}
  30293c:	2000      	movs	r0, #0
  30293e:	bd08      	pop	{r3, pc}
  302940:	003092c0 	eorseq	r9, r0, r0, asr #5

00302944 <get_bl2fw_hdr_version>:
  302944:	4b01      	ldr	r3, [pc, #4]	; (30294c <get_bl2fw_hdr_version+0x8>)
  302946:	681b      	ldr	r3, [r3, #0]
  302948:	6858      	ldr	r0, [r3, #4]
  30294a:	4770      	bx	lr
  30294c:	003092c0 	eorseq	r9, r0, r0, asr #5

00302950 <is_bl2fw_hdr_apkey_enabled>:
  302950:	4b03      	ldr	r3, [pc, #12]	; (302960 <is_bl2fw_hdr_apkey_enabled+0x10>)
  302952:	681b      	ldr	r3, [r3, #0]
  302954:	f8b3 0118 	ldrh.w	r0, [r3, #280]	; 0x118
  302958:	f3c0 00c0 	ubfx	r0, r0, #3, #1
  30295c:	4770      	bx	lr
  30295e:	bf00      	nop
  302960:	003092c0 	eorseq	r9, r0, r0, asr #5

00302964 <is_bl2fw_hdr_linux_flags>:
  302964:	4b03      	ldr	r3, [pc, #12]	; (302974 <is_bl2fw_hdr_linux_flags+0x10>)
  302966:	681b      	ldr	r3, [r3, #0]
  302968:	f8b3 0118 	ldrh.w	r0, [r3, #280]	; 0x118
  30296c:	f3c0 1000 	ubfx	r0, r0, #4, #1
  302970:	4770      	bx	lr
  302972:	bf00      	nop
  302974:	003092c0 	eorseq	r9, r0, r0, asr #5

00302978 <get_bl2fw_hdr_fls_addr>:
  302978:	4b01      	ldr	r3, [pc, #4]	; (302980 <get_bl2fw_hdr_fls_addr+0x8>)
  30297a:	681b      	ldr	r3, [r3, #0]
  30297c:	6898      	ldr	r0, [r3, #8]
  30297e:	4770      	bx	lr
  302980:	003092c0 	eorseq	r9, r0, r0, asr #5

00302984 <get_bl2fw_hdr_fls_size>:
  302984:	4b01      	ldr	r3, [pc, #4]	; (30298c <get_bl2fw_hdr_fls_size+0x8>)
  302986:	681b      	ldr	r3, [r3, #0]
  302988:	68d8      	ldr	r0, [r3, #12]
  30298a:	4770      	bx	lr
  30298c:	003092c0 	eorseq	r9, r0, r0, asr #5

00302990 <get_bl2fw_hdr_load_addr>:
  302990:	4b01      	ldr	r3, [pc, #4]	; (302998 <get_bl2fw_hdr_load_addr+0x8>)
  302992:	681b      	ldr	r3, [r3, #0]
  302994:	6918      	ldr	r0, [r3, #16]
  302996:	4770      	bx	lr
  302998:	003092c0 	eorseq	r9, r0, r0, asr #5

0030299c <get_bl2fw_hdr_exec_addr>:
  30299c:	4b01      	ldr	r3, [pc, #4]	; (3029a4 <get_bl2fw_hdr_exec_addr+0x8>)
  30299e:	681b      	ldr	r3, [r3, #0]
  3029a0:	6958      	ldr	r0, [r3, #20]
  3029a2:	4770      	bx	lr
  3029a4:	003092c0 	eorseq	r9, r0, r0, asr #5

003029a8 <get_bl2fw_hdr_flags>:
  3029a8:	4b02      	ldr	r3, [pc, #8]	; (3029b4 <get_bl2fw_hdr_flags+0xc>)
  3029aa:	681b      	ldr	r3, [r3, #0]
  3029ac:	f8b3 0118 	ldrh.w	r0, [r3, #280]	; 0x118
  3029b0:	4770      	bx	lr
  3029b2:	bf00      	nop
  3029b4:	003092c0 	eorseq	r9, r0, r0, asr #5

003029b8 <get_bl2fw_hdr_dbuf>:
  3029b8:	4b02      	ldr	r3, [pc, #8]	; (3029c4 <get_bl2fw_hdr_dbuf+0xc>)
  3029ba:	f103 0040 	add.w	r0, r3, #64	; 0x40
  3029be:	6018      	str	r0, [r3, #0]
  3029c0:	4770      	bx	lr
  3029c2:	bf00      	nop
  3029c4:	003092c0 	eorseq	r9, r0, r0, asr #5

003029c8 <print_bl2fw_hdr_info>:
  3029c8:	b538      	push	{r3, r4, r5, lr}
  3029ca:	4c2a      	ldr	r4, [pc, #168]	; (302a74 <print_bl2fw_hdr_info+0xac>)
  3029cc:	6823      	ldr	r3, [r4, #0]
  3029ce:	f8b3 5118 	ldrh.w	r5, [r3, #280]	; 0x118
  3029d2:	f005 0507 	and.w	r5, r5, #7
  3029d6:	2d02      	cmp	r5, #2
  3029d8:	d005      	beq.n	3029e6 <print_bl2fw_hdr_info+0x1e>
  3029da:	2d03      	cmp	r5, #3
  3029dc:	d005      	beq.n	3029ea <print_bl2fw_hdr_info+0x22>
  3029de:	2d01      	cmp	r5, #1
  3029e0:	d146      	bne.n	302a70 <print_bl2fw_hdr_info+0xa8>
  3029e2:	4825      	ldr	r0, [pc, #148]	; (302a78 <print_bl2fw_hdr_info+0xb0>)
  3029e4:	e002      	b.n	3029ec <print_bl2fw_hdr_info+0x24>
  3029e6:	4825      	ldr	r0, [pc, #148]	; (302a7c <print_bl2fw_hdr_info+0xb4>)
  3029e8:	e000      	b.n	3029ec <print_bl2fw_hdr_info+0x24>
  3029ea:	4825      	ldr	r0, [pc, #148]	; (302a80 <print_bl2fw_hdr_info+0xb8>)
  3029ec:	f001 fcee 	bl	3043cc <printf>
  3029f0:	6823      	ldr	r3, [r4, #0]
  3029f2:	4824      	ldr	r0, [pc, #144]	; (302a84 <print_bl2fw_hdr_info+0xbc>)
  3029f4:	685a      	ldr	r2, [r3, #4]
  3029f6:	0c11      	lsrs	r1, r2, #16
  3029f8:	b292      	uxth	r2, r2
  3029fa:	f001 fce7 	bl	3043cc <printf>
  3029fe:	6823      	ldr	r3, [r4, #0]
  302a00:	4821      	ldr	r0, [pc, #132]	; (302a88 <print_bl2fw_hdr_info+0xc0>)
  302a02:	6899      	ldr	r1, [r3, #8]
  302a04:	f001 fce2 	bl	3043cc <printf>
  302a08:	6823      	ldr	r3, [r4, #0]
  302a0a:	4820      	ldr	r0, [pc, #128]	; (302a8c <print_bl2fw_hdr_info+0xc4>)
  302a0c:	68d9      	ldr	r1, [r3, #12]
  302a0e:	0a8a      	lsrs	r2, r1, #10
  302a10:	f001 fcdc 	bl	3043cc <printf>
  302a14:	6823      	ldr	r3, [r4, #0]
  302a16:	481e      	ldr	r0, [pc, #120]	; (302a90 <print_bl2fw_hdr_info+0xc8>)
  302a18:	6919      	ldr	r1, [r3, #16]
  302a1a:	f001 fcd7 	bl	3043cc <printf>
  302a1e:	6823      	ldr	r3, [r4, #0]
  302a20:	481c      	ldr	r0, [pc, #112]	; (302a94 <print_bl2fw_hdr_info+0xcc>)
  302a22:	6959      	ldr	r1, [r3, #20]
  302a24:	f001 fcd2 	bl	3043cc <printf>
  302a28:	6823      	ldr	r3, [r4, #0]
  302a2a:	481b      	ldr	r0, [pc, #108]	; (302a98 <print_bl2fw_hdr_info+0xd0>)
  302a2c:	f8b3 1118 	ldrh.w	r1, [r3, #280]	; 0x118
  302a30:	f001 fccc 	bl	3043cc <printf>
  302a34:	2d03      	cmp	r5, #3
  302a36:	d11b      	bne.n	302a70 <print_bl2fw_hdr_info+0xa8>
  302a38:	f7ff ff8a 	bl	302950 <is_bl2fw_hdr_apkey_enabled>
  302a3c:	4b17      	ldr	r3, [pc, #92]	; (302a9c <print_bl2fw_hdr_info+0xd4>)
  302a3e:	4918      	ldr	r1, [pc, #96]	; (302aa0 <print_bl2fw_hdr_info+0xd8>)
  302a40:	2800      	cmp	r0, #0
  302a42:	bf18      	it	ne
  302a44:	4619      	movne	r1, r3
  302a46:	4817      	ldr	r0, [pc, #92]	; (302aa4 <print_bl2fw_hdr_info+0xdc>)
  302a48:	f001 fcc0 	bl	3043cc <printf>
  302a4c:	6823      	ldr	r3, [r4, #0]
  302a4e:	f8b3 3118 	ldrh.w	r3, [r3, #280]	; 0x118
  302a52:	06da      	lsls	r2, r3, #27
  302a54:	d502      	bpl.n	302a5c <print_bl2fw_hdr_info+0x94>
  302a56:	4814      	ldr	r0, [pc, #80]	; (302aa8 <print_bl2fw_hdr_info+0xe0>)
  302a58:	f001 fcb8 	bl	3043cc <printf>
  302a5c:	6823      	ldr	r3, [r4, #0]
  302a5e:	f8b3 3118 	ldrh.w	r3, [r3, #280]	; 0x118
  302a62:	061b      	lsls	r3, r3, #24
  302a64:	d504      	bpl.n	302a70 <print_bl2fw_hdr_info+0xa8>
  302a66:	4811      	ldr	r0, [pc, #68]	; (302aac <print_bl2fw_hdr_info+0xe4>)
  302a68:	e8bd 4038 	ldmia.w	sp!, {r3, r4, r5, lr}
  302a6c:	f001 bcae 	b.w	3043cc <printf>
  302a70:	bd38      	pop	{r3, r4, r5, pc}
  302a72:	bf00      	nop
  302a74:	003092c0 	eorseq	r9, r0, r0, asr #5
  302a78:	00300ebd 	ldrhteq	r0, [r0], -sp
  302a7c:	00300ec5 	eorseq	r0, r0, r5, asr #29
  302a80:	00300ed0 	ldrsbteq	r0, [r0], -r0
  302a84:	00300edb 	ldrsbteq	r0, [r0], -fp
  302a88:	00300b07 	eorseq	r0, r0, r7, lsl #22
  302a8c:	00300b1e 	eorseq	r0, r0, lr, lsl fp
  302a90:	00300b3b 	eorseq	r0, r0, fp, lsr fp
  302a94:	00300b52 	eorseq	r0, r0, r2, asr fp
  302a98:	00300b69 	eorseq	r0, r0, r9, ror #22
  302a9c:	00300ea3 	eorseq	r0, r0, r3, lsr #29
  302aa0:	00300eb1 	ldrhteq	r0, [r0], -r1
  302aa4:	00300ef4 	ldrshteq	r0, [r0], -r4
  302aa8:	00300f09 	eorseq	r0, r0, r9, lsl #30
  302aac:	00300f3c 	eorseq	r0, r0, ip, lsr pc

00302ab0 <__div64_32>:
  302ab0:	e92d 4ff8 	stmdb	sp!, {r3, r4, r5, r6, r7, r8, r9, sl, fp, lr}
  302ab4:	4682      	mov	sl, r0
  302ab6:	e9d0 4500 	ldrd	r4, r5, [r0]
  302aba:	468b      	mov	fp, r1
  302abc:	460e      	mov	r6, r1
  302abe:	2700      	movs	r7, #0
  302ac0:	428d      	cmp	r5, r1
  302ac2:	d30c      	bcc.n	302ade <__div64_32+0x2e>
  302ac4:	4628      	mov	r0, r5
  302ac6:	f005 fa09 	bl	307edc <__aeabi_uidiv>
  302aca:	2200      	movs	r2, #0
  302acc:	4690      	mov	r8, r2
  302ace:	fb0b f900 	mul.w	r9, fp, r0
  302ad2:	4603      	mov	r3, r0
  302ad4:	ebb4 0408 	subs.w	r4, r4, r8
  302ad8:	eb65 0509 	sbc.w	r5, r5, r9
  302adc:	e001      	b.n	302ae2 <__div64_32+0x32>
  302ade:	2200      	movs	r2, #0
  302ae0:	2300      	movs	r3, #0
  302ae2:	f04f 0801 	mov.w	r8, #1
  302ae6:	f04f 0900 	mov.w	r9, #0
  302aea:	2e01      	cmp	r6, #1
  302aec:	f177 0100 	sbcs.w	r1, r7, #0
  302af0:	db0b      	blt.n	302b0a <__div64_32+0x5a>
  302af2:	42af      	cmp	r7, r5
  302af4:	bf08      	it	eq
  302af6:	42a6      	cmpeq	r6, r4
  302af8:	d207      	bcs.n	302b0a <__div64_32+0x5a>
  302afa:	19b6      	adds	r6, r6, r6
  302afc:	eb47 0707 	adc.w	r7, r7, r7
  302b00:	eb18 0808 	adds.w	r8, r8, r8
  302b04:	eb49 0909 	adc.w	r9, r9, r9
  302b08:	e7ef      	b.n	302aea <__div64_32+0x3a>
  302b0a:	42bd      	cmp	r5, r7
  302b0c:	bf08      	it	eq
  302b0e:	42b4      	cmpeq	r4, r6
  302b10:	d306      	bcc.n	302b20 <__div64_32+0x70>
  302b12:	1ba4      	subs	r4, r4, r6
  302b14:	eb65 0507 	sbc.w	r5, r5, r7
  302b18:	eb12 0208 	adds.w	r2, r2, r8
  302b1c:	eb43 0309 	adc.w	r3, r3, r9
  302b20:	087f      	lsrs	r7, r7, #1
  302b22:	ea4f 0636 	mov.w	r6, r6, rrx
  302b26:	ea5f 0959 	movs.w	r9, r9, lsr #1
  302b2a:	ea4f 0838 	mov.w	r8, r8, rrx
  302b2e:	ea58 0109 	orrs.w	r1, r8, r9
  302b32:	d1ea      	bne.n	302b0a <__div64_32+0x5a>
  302b34:	e9ca 2300 	strd	r2, r3, [sl]
  302b38:	4620      	mov	r0, r4
  302b3a:	e8bd 8ff8 	ldmia.w	sp!, {r3, r4, r5, r6, r7, r8, r9, sl, fp, pc}

00302b3e <malloc>:
  302b3e:	2000      	movs	r0, #0
  302b40:	4770      	bx	lr

00302b42 <free>:
  302b42:	4770      	bx	lr

00302b44 <set_random>:
  302b44:	b508      	push	{r3, lr}
  302b46:	f7fd fb66 	bl	300216 <arch_counter_get_cntpct>
  302b4a:	4b01      	ldr	r3, [pc, #4]	; (302b50 <set_random+0xc>)
  302b4c:	6018      	str	r0, [r3, #0]
  302b4e:	bd08      	pop	{r3, pc}
  302b50:	00308098 	mlaseq	r0, r8, r0, r8

00302b54 <hg_pseudo_random_sequence>:
  302b54:	4b06      	ldr	r3, [pc, #24]	; (302b70 <hg_pseudo_random_sequence+0x1c>)
  302b56:	f244 12a7 	movw	r2, #16807	; 0x41a7
  302b5a:	6819      	ldr	r1, [r3, #0]
  302b5c:	b288      	uxth	r0, r1
  302b5e:	0c09      	lsrs	r1, r1, #16
  302b60:	4351      	muls	r1, r2
  302b62:	ea4f 4131 	mov.w	r1, r1, ror #16
  302b66:	fb02 1000 	mla	r0, r2, r0, r1
  302b6a:	6018      	str	r0, [r3, #0]
  302b6c:	4770      	bx	lr
  302b6e:	bf00      	nop
  302b70:	00308098 	mlaseq	r0, r8, r0, r8

00302b74 <printf_buf_fmt_32bit>:
  302b74:	b5f8      	push	{r3, r4, r5, r6, r7, lr}
  302b76:	1a47      	subs	r7, r0, r1
  302b78:	4616      	mov	r6, r2
  302b7a:	460c      	mov	r4, r1
  302b7c:	2500      	movs	r5, #0
  302b7e:	42b5      	cmp	r5, r6
  302b80:	da0c      	bge.n	302b9c <printf_buf_fmt_32bit+0x28>
  302b82:	07ab      	lsls	r3, r5, #30
  302b84:	d103      	bne.n	302b8e <printf_buf_fmt_32bit+0x1a>
  302b86:	4808      	ldr	r0, [pc, #32]	; (302ba8 <printf_buf_fmt_32bit+0x34>)
  302b88:	4621      	mov	r1, r4
  302b8a:	f001 fc1f 	bl	3043cc <printf>
  302b8e:	5939      	ldr	r1, [r7, r4]
  302b90:	3501      	adds	r5, #1
  302b92:	4806      	ldr	r0, [pc, #24]	; (302bac <printf_buf_fmt_32bit+0x38>)
  302b94:	3404      	adds	r4, #4
  302b96:	f001 fc19 	bl	3043cc <printf>
  302b9a:	e7f0      	b.n	302b7e <printf_buf_fmt_32bit+0xa>
  302b9c:	4804      	ldr	r0, [pc, #16]	; (302bb0 <printf_buf_fmt_32bit+0x3c>)
  302b9e:	e8bd 40f8 	ldmia.w	sp!, {r3, r4, r5, r6, r7, lr}
  302ba2:	f001 bc13 	b.w	3043cc <printf>
  302ba6:	bf00      	nop
  302ba8:	00300f62 	eorseq	r0, r0, r2, ror #30
  302bac:	00300f6b 	eorseq	r0, r0, fp, ror #30
  302bb0:	00300c78 	eorseq	r0, r0, r8, ror ip

00302bb4 <printf_buf>:
  302bb4:	b570      	push	{r4, r5, r6, lr}
  302bb6:	4606      	mov	r6, r0
  302bb8:	460d      	mov	r5, r1
  302bba:	2400      	movs	r4, #0
  302bbc:	42ac      	cmp	r4, r5
  302bbe:	da0b      	bge.n	302bd8 <printf_buf+0x24>
  302bc0:	0722      	lsls	r2, r4, #28
  302bc2:	d103      	bne.n	302bcc <printf_buf+0x18>
  302bc4:	4807      	ldr	r0, [pc, #28]	; (302be4 <printf_buf+0x30>)
  302bc6:	4621      	mov	r1, r4
  302bc8:	f001 fc00 	bl	3043cc <printf>
  302bcc:	5d31      	ldrb	r1, [r6, r4]
  302bce:	3401      	adds	r4, #1
  302bd0:	4805      	ldr	r0, [pc, #20]	; (302be8 <printf_buf+0x34>)
  302bd2:	f001 fbfb 	bl	3043cc <printf>
  302bd6:	e7f1      	b.n	302bbc <printf_buf+0x8>
  302bd8:	4804      	ldr	r0, [pc, #16]	; (302bec <printf_buf+0x38>)
  302bda:	e8bd 4070 	ldmia.w	sp!, {r4, r5, r6, lr}
  302bde:	f001 bbf5 	b.w	3043cc <printf>
  302be2:	bf00      	nop
  302be4:	00300f62 	eorseq	r0, r0, r2, ror #30
  302be8:	00300f71 	eorseq	r0, r0, r1, ror pc
  302bec:	00300c78 	eorseq	r0, r0, r8, ror ip

00302bf0 <strncasecmp>:
  302bf0:	b5f0      	push	{r4, r5, r6, r7, lr}
  302bf2:	b1e2      	cbz	r2, 302c2e <strncasecmp+0x3e>
  302bf4:	4e10      	ldr	r6, [pc, #64]	; (302c38 <strncasecmp+0x48>)
  302bf6:	2500      	movs	r5, #0
  302bf8:	4637      	mov	r7, r6
  302bfa:	5d44      	ldrb	r4, [r0, r5]
  302bfc:	5d4b      	ldrb	r3, [r1, r5]
  302bfe:	b1c4      	cbz	r4, 302c32 <strncasecmp+0x42>
  302c00:	b1bb      	cbz	r3, 302c32 <strncasecmp+0x42>
  302c02:	429c      	cmp	r4, r3
  302c04:	d00f      	beq.n	302c26 <strncasecmp+0x36>
  302c06:	f816 c004 	ldrb.w	ip, [r6, r4]
  302c0a:	f01c 0f01 	tst.w	ip, #1
  302c0e:	f817 c003 	ldrb.w	ip, [r7, r3]
  302c12:	bf1c      	itt	ne
  302c14:	3420      	addne	r4, #32
  302c16:	b2e4      	uxtbne	r4, r4
  302c18:	f01c 0f01 	tst.w	ip, #1
  302c1c:	bf1c      	itt	ne
  302c1e:	3320      	addne	r3, #32
  302c20:	b2db      	uxtbne	r3, r3
  302c22:	429c      	cmp	r4, r3
  302c24:	d105      	bne.n	302c32 <strncasecmp+0x42>
  302c26:	3501      	adds	r5, #1
  302c28:	42aa      	cmp	r2, r5
  302c2a:	d1e6      	bne.n	302bfa <strncasecmp+0xa>
  302c2c:	e001      	b.n	302c32 <strncasecmp+0x42>
  302c2e:	4613      	mov	r3, r2
  302c30:	4614      	mov	r4, r2
  302c32:	1ae0      	subs	r0, r4, r3
  302c34:	bdf0      	pop	{r4, r5, r6, r7, pc}
  302c36:	bf00      	nop
  302c38:	00300618 	eorseq	r0, r0, r8, lsl r6

00302c3c <strcasecmp>:
  302c3c:	f04f 32ff 	mov.w	r2, #4294967295	; 0xffffffff
  302c40:	f7ff bfd6 	b.w	302bf0 <strncasecmp>

00302c44 <strcpy>:
  302c44:	2300      	movs	r3, #0
  302c46:	5cca      	ldrb	r2, [r1, r3]
  302c48:	54c2      	strb	r2, [r0, r3]
  302c4a:	3301      	adds	r3, #1
  302c4c:	2a00      	cmp	r2, #0
  302c4e:	d1fa      	bne.n	302c46 <strcpy+0x2>
  302c50:	4770      	bx	lr

00302c52 <strncpy>:
  302c52:	2300      	movs	r3, #0
  302c54:	b510      	push	{r4, lr}
  302c56:	4293      	cmp	r3, r2
  302c58:	d004      	beq.n	302c64 <strncpy+0x12>
  302c5a:	5ccc      	ldrb	r4, [r1, r3]
  302c5c:	54c4      	strb	r4, [r0, r3]
  302c5e:	3301      	adds	r3, #1
  302c60:	2c00      	cmp	r4, #0
  302c62:	d1f8      	bne.n	302c56 <strncpy+0x4>
  302c64:	bd10      	pop	{r4, pc}

00302c66 <strcat>:
  302c66:	b510      	push	{r4, lr}
  302c68:	4604      	mov	r4, r0
  302c6a:	4622      	mov	r2, r4
  302c6c:	3401      	adds	r4, #1
  302c6e:	7813      	ldrb	r3, [r2, #0]
  302c70:	2b00      	cmp	r3, #0
  302c72:	d1fa      	bne.n	302c6a <strcat+0x4>
  302c74:	5ccc      	ldrb	r4, [r1, r3]
  302c76:	54d4      	strb	r4, [r2, r3]
  302c78:	3301      	adds	r3, #1
  302c7a:	2c00      	cmp	r4, #0
  302c7c:	d1fa      	bne.n	302c74 <strcat+0xe>
  302c7e:	bd10      	pop	{r4, pc}

00302c80 <strncat>:
  302c80:	b570      	push	{r4, r5, r6, lr}
  302c82:	b17a      	cbz	r2, 302ca4 <strncat+0x24>
  302c84:	4605      	mov	r5, r0
  302c86:	462c      	mov	r4, r5
  302c88:	3501      	adds	r5, #1
  302c8a:	7823      	ldrb	r3, [r4, #0]
  302c8c:	2b00      	cmp	r3, #0
  302c8e:	d1fa      	bne.n	302c86 <strncat+0x6>
  302c90:	5ccd      	ldrb	r5, [r1, r3]
  302c92:	18e6      	adds	r6, r4, r3
  302c94:	54e5      	strb	r5, [r4, r3]
  302c96:	b12d      	cbz	r5, 302ca4 <strncat+0x24>
  302c98:	3301      	adds	r3, #1
  302c9a:	429a      	cmp	r2, r3
  302c9c:	d1f8      	bne.n	302c90 <strncat+0x10>
  302c9e:	2300      	movs	r3, #0
  302ca0:	7073      	strb	r3, [r6, #1]
  302ca2:	bd70      	pop	{r4, r5, r6, pc}
  302ca4:	bd70      	pop	{r4, r5, r6, pc}

00302ca6 <strcmp>:
  302ca6:	2300      	movs	r3, #0
  302ca8:	b510      	push	{r4, lr}
  302caa:	5cc2      	ldrb	r2, [r0, r3]
  302cac:	5ccc      	ldrb	r4, [r1, r3]
  302cae:	1b14      	subs	r4, r2, r4
  302cb0:	f014 04ff 	ands.w	r4, r4, #255	; 0xff
  302cb4:	d102      	bne.n	302cbc <strcmp+0x16>
  302cb6:	3301      	adds	r3, #1
  302cb8:	2a00      	cmp	r2, #0
  302cba:	d1f6      	bne.n	302caa <strcmp+0x4>
  302cbc:	b260      	sxtb	r0, r4
  302cbe:	bd10      	pop	{r4, pc}

00302cc0 <strncmp>:
  302cc0:	2300      	movs	r3, #0
  302cc2:	b530      	push	{r4, r5, lr}
  302cc4:	4293      	cmp	r3, r2
  302cc6:	d009      	beq.n	302cdc <strncmp+0x1c>
  302cc8:	5cc5      	ldrb	r5, [r0, r3]
  302cca:	5ccc      	ldrb	r4, [r1, r3]
  302ccc:	1b2c      	subs	r4, r5, r4
  302cce:	f014 04ff 	ands.w	r4, r4, #255	; 0xff
  302cd2:	d104      	bne.n	302cde <strncmp+0x1e>
  302cd4:	3301      	adds	r3, #1
  302cd6:	2d00      	cmp	r5, #0
  302cd8:	d1f4      	bne.n	302cc4 <strncmp+0x4>
  302cda:	e000      	b.n	302cde <strncmp+0x1e>
  302cdc:	2400      	movs	r4, #0
  302cde:	b260      	sxtb	r0, r4
  302ce0:	bd30      	pop	{r4, r5, pc}

00302ce2 <strchr>:
  302ce2:	b2c9      	uxtb	r1, r1
  302ce4:	4602      	mov	r2, r0
  302ce6:	f810 3b01 	ldrb.w	r3, [r0], #1
  302cea:	428b      	cmp	r3, r1
  302cec:	d003      	beq.n	302cf6 <strchr+0x14>
  302cee:	2b00      	cmp	r3, #0
  302cf0:	d1f8      	bne.n	302ce4 <strchr+0x2>
  302cf2:	4618      	mov	r0, r3
  302cf4:	4770      	bx	lr
  302cf6:	4610      	mov	r0, r2
  302cf8:	4770      	bx	lr

00302cfa <strlen>:
  302cfa:	4603      	mov	r3, r0
  302cfc:	461a      	mov	r2, r3
  302cfe:	3301      	adds	r3, #1
  302d00:	7811      	ldrb	r1, [r2, #0]
  302d02:	2900      	cmp	r1, #0
  302d04:	d1fa      	bne.n	302cfc <strlen+0x2>
  302d06:	1a10      	subs	r0, r2, r0
  302d08:	4770      	bx	lr

00302d0a <strrchr>:
  302d0a:	b538      	push	{r3, r4, r5, lr}
  302d0c:	4604      	mov	r4, r0
  302d0e:	460d      	mov	r5, r1
  302d10:	f7ff fff3 	bl	302cfa <strlen>
  302d14:	b2ed      	uxtb	r5, r5
  302d16:	1823      	adds	r3, r4, r0
  302d18:	4618      	mov	r0, r3
  302d1a:	3b01      	subs	r3, #1
  302d1c:	7802      	ldrb	r2, [r0, #0]
  302d1e:	42aa      	cmp	r2, r5
  302d20:	d002      	beq.n	302d28 <strrchr+0x1e>
  302d22:	429c      	cmp	r4, r3
  302d24:	d9f8      	bls.n	302d18 <strrchr+0xe>
  302d26:	2000      	movs	r0, #0
  302d28:	bd38      	pop	{r3, r4, r5, pc}

00302d2a <strnlen>:
  302d2a:	4401      	add	r1, r0
  302d2c:	4603      	mov	r3, r0
  302d2e:	b510      	push	{r4, lr}
  302d30:	428b      	cmp	r3, r1
  302d32:	461a      	mov	r2, r3
  302d34:	d101      	bne.n	302d3a <strnlen+0x10>
  302d36:	1a10      	subs	r0, r2, r0
  302d38:	bd10      	pop	{r4, pc}
  302d3a:	7814      	ldrb	r4, [r2, #0]
  302d3c:	3301      	adds	r3, #1
  302d3e:	2c00      	cmp	r4, #0
  302d40:	d1f6      	bne.n	302d30 <strnlen+0x6>
  302d42:	e7f8      	b.n	302d36 <strnlen+0xc>

00302d44 <strdup>:
  302d44:	b538      	push	{r3, r4, r5, lr}
  302d46:	4605      	mov	r5, r0
  302d48:	b150      	cbz	r0, 302d60 <strdup+0x1c>
  302d4a:	f7ff ffd6 	bl	302cfa <strlen>
  302d4e:	3001      	adds	r0, #1
  302d50:	f7ff fef5 	bl	302b3e <malloc>
  302d54:	4604      	mov	r4, r0
  302d56:	b120      	cbz	r0, 302d62 <strdup+0x1e>
  302d58:	4629      	mov	r1, r5
  302d5a:	f7ff ff73 	bl	302c44 <strcpy>
  302d5e:	e000      	b.n	302d62 <strdup+0x1e>
  302d60:	bd38      	pop	{r3, r4, r5, pc}
  302d62:	4620      	mov	r0, r4
  302d64:	bd38      	pop	{r3, r4, r5, pc}

00302d66 <strspn>:
  302d66:	2300      	movs	r3, #0
  302d68:	b530      	push	{r4, r5, lr}
  302d6a:	5cc4      	ldrb	r4, [r0, r3]
  302d6c:	b13c      	cbz	r4, 302d7e <strspn+0x18>
  302d6e:	1e4a      	subs	r2, r1, #1
  302d70:	f812 5f01 	ldrb.w	r5, [r2, #1]!
  302d74:	b11d      	cbz	r5, 302d7e <strspn+0x18>
  302d76:	42ac      	cmp	r4, r5
  302d78:	d1fa      	bne.n	302d70 <strspn+0xa>
  302d7a:	3301      	adds	r3, #1
  302d7c:	e7f5      	b.n	302d6a <strspn+0x4>
  302d7e:	4618      	mov	r0, r3
  302d80:	bd30      	pop	{r4, r5, pc}

00302d82 <strpbrk>:
  302d82:	b530      	push	{r4, r5, lr}
  302d84:	4605      	mov	r5, r0
  302d86:	f810 3b01 	ldrb.w	r3, [r0], #1
  302d8a:	b143      	cbz	r3, 302d9e <strpbrk+0x1c>
  302d8c:	1e4a      	subs	r2, r1, #1
  302d8e:	f812 4f01 	ldrb.w	r4, [r2, #1]!
  302d92:	2c00      	cmp	r4, #0
  302d94:	d0f6      	beq.n	302d84 <strpbrk+0x2>
  302d96:	42a3      	cmp	r3, r4
  302d98:	d1f9      	bne.n	302d8e <strpbrk+0xc>
  302d9a:	4628      	mov	r0, r5
  302d9c:	bd30      	pop	{r4, r5, pc}
  302d9e:	4618      	mov	r0, r3
  302da0:	bd30      	pop	{r4, r5, pc}

00302da2 <strtok>:
  302da2:	b5f8      	push	{r3, r4, r5, r6, r7, lr}
  302da4:	460f      	mov	r7, r1
  302da6:	4604      	mov	r4, r0
  302da8:	4d0e      	ldr	r5, [pc, #56]	; (302de4 <strtok+0x42>)
  302daa:	b908      	cbnz	r0, 302db0 <strtok+0xe>
  302dac:	682c      	ldr	r4, [r5, #0]
  302dae:	b1bc      	cbz	r4, 302de0 <strtok+0x3e>
  302db0:	4620      	mov	r0, r4
  302db2:	4639      	mov	r1, r7
  302db4:	f7ff ffd7 	bl	302d66 <strspn>
  302db8:	5c23      	ldrb	r3, [r4, r0]
  302dba:	1826      	adds	r6, r4, r0
  302dbc:	b913      	cbnz	r3, 302dc4 <strtok+0x22>
  302dbe:	602b      	str	r3, [r5, #0]
  302dc0:	4618      	mov	r0, r3
  302dc2:	bdf8      	pop	{r3, r4, r5, r6, r7, pc}
  302dc4:	4630      	mov	r0, r6
  302dc6:	4639      	mov	r1, r7
  302dc8:	f7ff ffdb 	bl	302d82 <strpbrk>
  302dcc:	b128      	cbz	r0, 302dda <strtok+0x38>
  302dce:	7803      	ldrb	r3, [r0, #0]
  302dd0:	b11b      	cbz	r3, 302dda <strtok+0x38>
  302dd2:	2300      	movs	r3, #0
  302dd4:	3001      	adds	r0, #1
  302dd6:	f800 3c01 	strb.w	r3, [r0, #-1]
  302dda:	6028      	str	r0, [r5, #0]
  302ddc:	4630      	mov	r0, r6
  302dde:	bdf8      	pop	{r3, r4, r5, r6, r7, pc}
  302de0:	4620      	mov	r0, r4
  302de2:	bdf8      	pop	{r3, r4, r5, r6, r7, pc}
  302de4:	00309500 	eorseq	r9, r0, r0, lsl #10

00302de8 <strsep>:
  302de8:	b538      	push	{r3, r4, r5, lr}
  302dea:	4605      	mov	r5, r0
  302dec:	6804      	ldr	r4, [r0, #0]
  302dee:	b144      	cbz	r4, 302e02 <strsep+0x1a>
  302df0:	4620      	mov	r0, r4
  302df2:	f7ff ffc6 	bl	302d82 <strpbrk>
  302df6:	b118      	cbz	r0, 302e00 <strsep+0x18>
  302df8:	2200      	movs	r2, #0
  302dfa:	3001      	adds	r0, #1
  302dfc:	f800 2c01 	strb.w	r2, [r0, #-1]
  302e00:	6028      	str	r0, [r5, #0]
  302e02:	4620      	mov	r0, r4
  302e04:	bd38      	pop	{r3, r4, r5, pc}

00302e06 <strswab>:
  302e06:	b180      	cbz	r0, 302e2a <strswab+0x24>
  302e08:	7803      	ldrb	r3, [r0, #0]
  302e0a:	b16b      	cbz	r3, 302e28 <strswab+0x22>
  302e0c:	1c83      	adds	r3, r0, #2
  302e0e:	f813 1c02 	ldrb.w	r1, [r3, #-2]
  302e12:	b151      	cbz	r1, 302e2a <strswab+0x24>
  302e14:	3302      	adds	r3, #2
  302e16:	f813 2c03 	ldrb.w	r2, [r3, #-3]
  302e1a:	b122      	cbz	r2, 302e26 <strswab+0x20>
  302e1c:	f803 2c04 	strb.w	r2, [r3, #-4]
  302e20:	f803 1c03 	strb.w	r1, [r3, #-3]
  302e24:	e7f3      	b.n	302e0e <strswab+0x8>
  302e26:	4770      	bx	lr
  302e28:	4618      	mov	r0, r3
  302e2a:	4770      	bx	lr

00302e2c <memset>:
  302e2c:	b570      	push	{r4, r5, r6, lr}
  302e2e:	f010 0403 	ands.w	r4, r0, #3
  302e32:	d114      	bne.n	302e5e <memset+0x32>
  302e34:	b2cd      	uxtb	r5, r1
  302e36:	2305      	movs	r3, #5
  302e38:	3b01      	subs	r3, #1
  302e3a:	d002      	beq.n	302e42 <memset+0x16>
  302e3c:	ea45 2404 	orr.w	r4, r5, r4, lsl #8
  302e40:	e7fa      	b.n	302e38 <memset+0xc>
  302e42:	1886      	adds	r6, r0, r2
  302e44:	4603      	mov	r3, r0
  302e46:	1af5      	subs	r5, r6, r3
  302e48:	2d03      	cmp	r5, #3
  302e4a:	d902      	bls.n	302e52 <memset+0x26>
  302e4c:	f843 4b04 	str.w	r4, [r3], #4
  302e50:	e7f9      	b.n	302e46 <memset+0x1a>
  302e52:	f022 0303 	bic.w	r3, r2, #3
  302e56:	f002 0203 	and.w	r2, r2, #3
  302e5a:	4403      	add	r3, r0
  302e5c:	e000      	b.n	302e60 <memset+0x34>
  302e5e:	4603      	mov	r3, r0
  302e60:	441a      	add	r2, r3
  302e62:	4293      	cmp	r3, r2
  302e64:	d002      	beq.n	302e6c <memset+0x40>
  302e66:	f803 1b01 	strb.w	r1, [r3], #1
  302e6a:	e7fa      	b.n	302e62 <memset+0x36>
  302e6c:	bd70      	pop	{r4, r5, r6, pc}

00302e6e <bcopy>:
  302e6e:	2300      	movs	r3, #0
  302e70:	b510      	push	{r4, lr}
  302e72:	4293      	cmp	r3, r2
  302e74:	d003      	beq.n	302e7e <bcopy+0x10>
  302e76:	5cc4      	ldrb	r4, [r0, r3]
  302e78:	54cc      	strb	r4, [r1, r3]
  302e7a:	3301      	adds	r3, #1
  302e7c:	e7f9      	b.n	302e72 <bcopy+0x4>
  302e7e:	4608      	mov	r0, r1
  302e80:	bd10      	pop	{r4, pc}

00302e82 <memcpy>:
  302e82:	4281      	cmp	r1, r0
  302e84:	b530      	push	{r4, r5, lr}
  302e86:	d01a      	beq.n	302ebe <memcpy+0x3c>
  302e88:	ea40 0301 	orr.w	r3, r0, r1
  302e8c:	f013 0303 	ands.w	r3, r3, #3
  302e90:	d10d      	bne.n	302eae <memcpy+0x2c>
  302e92:	1ad4      	subs	r4, r2, r3
  302e94:	2c03      	cmp	r4, #3
  302e96:	d903      	bls.n	302ea0 <memcpy+0x1e>
  302e98:	58cc      	ldr	r4, [r1, r3]
  302e9a:	50c4      	str	r4, [r0, r3]
  302e9c:	3304      	adds	r3, #4
  302e9e:	e7f8      	b.n	302e92 <memcpy+0x10>
  302ea0:	f022 0303 	bic.w	r3, r2, #3
  302ea4:	f002 0203 	and.w	r2, r2, #3
  302ea8:	18c4      	adds	r4, r0, r3
  302eaa:	4419      	add	r1, r3
  302eac:	e000      	b.n	302eb0 <memcpy+0x2e>
  302eae:	4604      	mov	r4, r0
  302eb0:	2300      	movs	r3, #0
  302eb2:	4293      	cmp	r3, r2
  302eb4:	d003      	beq.n	302ebe <memcpy+0x3c>
  302eb6:	5ccd      	ldrb	r5, [r1, r3]
  302eb8:	54e5      	strb	r5, [r4, r3]
  302eba:	3301      	adds	r3, #1
  302ebc:	e7f9      	b.n	302eb2 <memcpy+0x30>
  302ebe:	bd30      	pop	{r4, r5, pc}

00302ec0 <strlcpy>:
  302ec0:	b5f8      	push	{r3, r4, r5, r6, r7, lr}
  302ec2:	4606      	mov	r6, r0
  302ec4:	4608      	mov	r0, r1
  302ec6:	460f      	mov	r7, r1
  302ec8:	4615      	mov	r5, r2
  302eca:	f7ff ff16 	bl	302cfa <strlen>
  302ece:	4604      	mov	r4, r0
  302ed0:	b15d      	cbz	r5, 302eea <strlcpy+0x2a>
  302ed2:	42a8      	cmp	r0, r5
  302ed4:	4639      	mov	r1, r7
  302ed6:	bf2c      	ite	cs
  302ed8:	f105 35ff 	addcs.w	r5, r5, #4294967295	; 0xffffffff
  302edc:	4605      	movcc	r5, r0
  302ede:	4630      	mov	r0, r6
  302ee0:	462a      	mov	r2, r5
  302ee2:	f7ff ffce 	bl	302e82 <memcpy>
  302ee6:	2300      	movs	r3, #0
  302ee8:	5573      	strb	r3, [r6, r5]
  302eea:	4620      	mov	r0, r4
  302eec:	bdf8      	pop	{r3, r4, r5, r6, r7, pc}

00302eee <memmove>:
  302eee:	4281      	cmp	r1, r0
  302ef0:	b510      	push	{r4, lr}
  302ef2:	d014      	beq.n	302f1e <memmove+0x30>
  302ef4:	4288      	cmp	r0, r1
  302ef6:	d807      	bhi.n	302f08 <memmove+0x1a>
  302ef8:	2300      	movs	r3, #0
  302efa:	4293      	cmp	r3, r2
  302efc:	d003      	beq.n	302f06 <memmove+0x18>
  302efe:	5ccc      	ldrb	r4, [r1, r3]
  302f00:	54c4      	strb	r4, [r0, r3]
  302f02:	3301      	adds	r3, #1
  302f04:	e7f9      	b.n	302efa <memmove+0xc>
  302f06:	bd10      	pop	{r4, pc}
  302f08:	4253      	negs	r3, r2
  302f0a:	1884      	adds	r4, r0, r2
  302f0c:	4411      	add	r1, r2
  302f0e:	4419      	add	r1, r3
  302f10:	4423      	add	r3, r4
  302f12:	f112 32ff 	adds.w	r2, r2, #4294967295	; 0xffffffff
  302f16:	d302      	bcc.n	302f1e <memmove+0x30>
  302f18:	5c8c      	ldrb	r4, [r1, r2]
  302f1a:	549c      	strb	r4, [r3, r2]
  302f1c:	e7f9      	b.n	302f12 <memmove+0x24>
  302f1e:	bd10      	pop	{r4, pc}

00302f20 <memcmp>:
  302f20:	b570      	push	{r4, r5, r6, lr}
  302f22:	2300      	movs	r3, #0
  302f24:	4606      	mov	r6, r0
  302f26:	4293      	cmp	r3, r2
  302f28:	d005      	beq.n	302f36 <memcmp+0x16>
  302f2a:	5cf5      	ldrb	r5, [r6, r3]
  302f2c:	5ccc      	ldrb	r4, [r1, r3]
  302f2e:	3301      	adds	r3, #1
  302f30:	1b28      	subs	r0, r5, r4
  302f32:	d0f8      	beq.n	302f26 <memcmp+0x6>
  302f34:	e000      	b.n	302f38 <memcmp+0x18>
  302f36:	2000      	movs	r0, #0
  302f38:	bd70      	pop	{r4, r5, r6, pc}

00302f3a <memscan>:
  302f3a:	4402      	add	r2, r0
  302f3c:	4603      	mov	r3, r0
  302f3e:	b510      	push	{r4, lr}
  302f40:	4293      	cmp	r3, r2
  302f42:	4618      	mov	r0, r3
  302f44:	d003      	beq.n	302f4e <memscan+0x14>
  302f46:	7804      	ldrb	r4, [r0, #0]
  302f48:	3301      	adds	r3, #1
  302f4a:	428c      	cmp	r4, r1
  302f4c:	d1f8      	bne.n	302f40 <memscan+0x6>
  302f4e:	bd10      	pop	{r4, pc}

00302f50 <strstr>:
  302f50:	e92d 41f0 	stmdb	sp!, {r4, r5, r6, r7, r8, lr}
  302f54:	4606      	mov	r6, r0
  302f56:	4608      	mov	r0, r1
  302f58:	460f      	mov	r7, r1
  302f5a:	f7ff fece 	bl	302cfa <strlen>
  302f5e:	4605      	mov	r5, r0
  302f60:	4630      	mov	r0, r6
  302f62:	b1b5      	cbz	r5, 302f92 <strstr+0x42>
  302f64:	f7ff fec9 	bl	302cfa <strlen>
  302f68:	eb06 0800 	add.w	r8, r6, r0
  302f6c:	4604      	mov	r4, r0
  302f6e:	42ac      	cmp	r4, r5
  302f70:	ebc4 0608 	rsb	r6, r4, r8
  302f74:	db0a      	blt.n	302f8c <strstr+0x3c>
  302f76:	4630      	mov	r0, r6
  302f78:	4639      	mov	r1, r7
  302f7a:	462a      	mov	r2, r5
  302f7c:	3c01      	subs	r4, #1
  302f7e:	f7ff ffcf 	bl	302f20 <memcmp>
  302f82:	2800      	cmp	r0, #0
  302f84:	d1f3      	bne.n	302f6e <strstr+0x1e>
  302f86:	4630      	mov	r0, r6
  302f88:	e8bd 81f0 	ldmia.w	sp!, {r4, r5, r6, r7, r8, pc}
  302f8c:	2000      	movs	r0, #0
  302f8e:	e8bd 81f0 	ldmia.w	sp!, {r4, r5, r6, r7, r8, pc}
  302f92:	e8bd 81f0 	ldmia.w	sp!, {r4, r5, r6, r7, r8, pc}

00302f96 <memchr>:
  302f96:	4402      	add	r2, r0
  302f98:	b2c9      	uxtb	r1, r1
  302f9a:	b510      	push	{r4, lr}
  302f9c:	4290      	cmp	r0, r2
  302f9e:	d006      	beq.n	302fae <memchr+0x18>
  302fa0:	4603      	mov	r3, r0
  302fa2:	f813 4b01 	ldrb.w	r4, [r3], #1
  302fa6:	428c      	cmp	r4, r1
  302fa8:	d002      	beq.n	302fb0 <memchr+0x1a>
  302faa:	4618      	mov	r0, r3
  302fac:	e7f6      	b.n	302f9c <memchr+0x6>
  302fae:	2000      	movs	r0, #0
  302fb0:	bd10      	pop	{r4, pc}

00302fb2 <memchr_inv>:
  302fb2:	2a10      	cmp	r2, #16
  302fb4:	b2c9      	uxtb	r1, r1
  302fb6:	e92d 4ff0 	stmdb	sp!, {r4, r5, r6, r7, r8, r9, sl, fp, lr}
  302fba:	d809      	bhi.n	302fd0 <memchr_inv+0x1e>
  302fbc:	4402      	add	r2, r0
  302fbe:	4603      	mov	r3, r0
  302fc0:	4293      	cmp	r3, r2
  302fc2:	4618      	mov	r0, r3
  302fc4:	d04a      	beq.n	30305c <memchr_inv+0xaa>
  302fc6:	7804      	ldrb	r4, [r0, #0]
  302fc8:	3301      	adds	r3, #1
  302fca:	428c      	cmp	r4, r1
  302fcc:	d0f8      	beq.n	302fc0 <memchr_inv+0xe>
  302fce:	e049      	b.n	303064 <memchr_inv+0xb2>
  302fd0:	f010 0507 	ands.w	r5, r0, #7
  302fd4:	d00f      	beq.n	302ff6 <memchr_inv+0x44>
  302fd6:	f1c5 0508 	rsb	r5, r5, #8
  302fda:	4603      	mov	r3, r0
  302fdc:	1946      	adds	r6, r0, r5
  302fde:	461c      	mov	r4, r3
  302fe0:	3301      	adds	r3, #1
  302fe2:	7827      	ldrb	r7, [r4, #0]
  302fe4:	428f      	cmp	r7, r1
  302fe6:	d102      	bne.n	302fee <memchr_inv+0x3c>
  302fe8:	429e      	cmp	r6, r3
  302fea:	d1f8      	bne.n	302fde <memchr_inv+0x2c>
  302fec:	e001      	b.n	302ff2 <memchr_inv+0x40>
  302fee:	2c00      	cmp	r4, #0
  302ff0:	d137      	bne.n	303062 <memchr_inv+0xb0>
  302ff2:	4428      	add	r0, r5
  302ff4:	1b52      	subs	r2, r2, r5
  302ff6:	b2cc      	uxtb	r4, r1
  302ff8:	2500      	movs	r5, #0
  302ffa:	2700      	movs	r7, #0
  302ffc:	432f      	orrs	r7, r5
  302ffe:	0226      	lsls	r6, r4, #8
  303000:	f04f 0800 	mov.w	r8, #0
  303004:	4326      	orrs	r6, r4
  303006:	043d      	lsls	r5, r7, #16
  303008:	0434      	lsls	r4, r6, #16
  30300a:	ea45 4516 	orr.w	r5, r5, r6, lsr #16
  30300e:	4334      	orrs	r4, r6
  303010:	433d      	orrs	r5, r7
  303012:	08d6      	lsrs	r6, r2, #3
  303014:	46a1      	mov	r9, r4
  303016:	ea44 0408 	orr.w	r4, r4, r8
  30301a:	ea45 0509 	orr.w	r5, r5, r9
  30301e:	4603      	mov	r3, r0
  303020:	3008      	adds	r0, #8
  303022:	e9d3 ab00 	ldrd	sl, fp, [r3]
  303026:	45ab      	cmp	fp, r5
  303028:	bf08      	it	eq
  30302a:	45a2      	cmpeq	sl, r4
  30302c:	d008      	beq.n	303040 <memchr_inv+0x8e>
  30302e:	4602      	mov	r2, r0
  303030:	4618      	mov	r0, r3
  303032:	3301      	adds	r3, #1
  303034:	7804      	ldrb	r4, [r0, #0]
  303036:	428c      	cmp	r4, r1
  303038:	d114      	bne.n	303064 <memchr_inv+0xb2>
  30303a:	4293      	cmp	r3, r2
  30303c:	d1f8      	bne.n	303030 <memchr_inv+0x7e>
  30303e:	e00d      	b.n	30305c <memchr_inv+0xaa>
  303040:	3e01      	subs	r6, #1
  303042:	d1ec      	bne.n	30301e <memchr_inv+0x6c>
  303044:	f002 0207 	and.w	r2, r2, #7
  303048:	4603      	mov	r3, r0
  30304a:	4402      	add	r2, r0
  30304c:	4293      	cmp	r3, r2
  30304e:	4618      	mov	r0, r3
  303050:	d004      	beq.n	30305c <memchr_inv+0xaa>
  303052:	7804      	ldrb	r4, [r0, #0]
  303054:	3301      	adds	r3, #1
  303056:	428c      	cmp	r4, r1
  303058:	d0f8      	beq.n	30304c <memchr_inv+0x9a>
  30305a:	e003      	b.n	303064 <memchr_inv+0xb2>
  30305c:	2000      	movs	r0, #0
  30305e:	e8bd 8ff0 	ldmia.w	sp!, {r4, r5, r6, r7, r8, r9, sl, fp, pc}
  303062:	4620      	mov	r0, r4
  303064:	e8bd 8ff0 	ldmia.w	sp!, {r4, r5, r6, r7, r8, r9, sl, fp, pc}

00303068 <upgrade_get_serial_buffer>:
  303068:	e92d 4ff8 	stmdb	sp!, {r3, r4, r5, r6, r7, r8, r9, sl, fp, lr}
  30306c:	4682      	mov	sl, r0
  30306e:	f7fd f90f 	bl	300290 <arch_counter_get_current>
  303072:	f8df 8090 	ldr.w	r8, [pc, #144]	; 303104 <upgrade_get_serial_buffer+0x9c>
  303076:	2400      	movs	r4, #0
  303078:	f8df 90a4 	ldr.w	r9, [pc, #164]	; 303120 <upgrade_get_serial_buffer+0xb8>
  30307c:	f248 0b0a 	movw	fp, #32778	; 0x800a
  303080:	4606      	mov	r6, r0
  303082:	4607      	mov	r7, r0
  303084:	f8d8 0000 	ldr.w	r0, [r8]
  303088:	4d1e      	ldr	r5, [pc, #120]	; (303104 <upgrade_get_serial_buffer+0x9c>)
  30308a:	f003 fdbb 	bl	306c04 <__serial_tstc>
  30308e:	b1f0      	cbz	r0, 3030ce <upgrade_get_serial_buffer+0x66>
  303090:	f8d8 0000 	ldr.w	r0, [r8]
  303094:	f003 fdba 	bl	306c0c <__serial_getc_direct>
  303098:	f80a 0004 	strb.w	r0, [sl, r4]
  30309c:	3401      	adds	r4, #1
  30309e:	455c      	cmp	r4, fp
  3030a0:	d112      	bne.n	3030c8 <upgrade_get_serial_buffer+0x60>
  3030a2:	6828      	ldr	r0, [r5, #0]
  3030a4:	f003 fdae 	bl	306c04 <__serial_tstc>
  3030a8:	4e17      	ldr	r6, [pc, #92]	; (303108 <upgrade_get_serial_buffer+0xa0>)
  3030aa:	b138      	cbz	r0, 3030bc <upgrade_get_serial_buffer+0x54>
  3030ac:	6869      	ldr	r1, [r5, #4]
  3030ae:	6833      	ldr	r3, [r6, #0]
  3030b0:	3101      	adds	r1, #1
  3030b2:	6069      	str	r1, [r5, #4]
  3030b4:	b113      	cbz	r3, 3030bc <upgrade_get_serial_buffer+0x54>
  3030b6:	4815      	ldr	r0, [pc, #84]	; (30310c <upgrade_get_serial_buffer+0xa4>)
  3030b8:	f001 f988 	bl	3043cc <printf>
  3030bc:	6833      	ldr	r3, [r6, #0]
  3030be:	b1f3      	cbz	r3, 3030fe <upgrade_get_serial_buffer+0x96>
  3030c0:	4813      	ldr	r0, [pc, #76]	; (303110 <upgrade_get_serial_buffer+0xa8>)
  3030c2:	f248 010a 	movw	r1, #32778	; 0x800a
  3030c6:	e018      	b.n	3030fa <upgrade_get_serial_buffer+0x92>
  3030c8:	f7fd f8e2 	bl	300290 <arch_counter_get_current>
  3030cc:	4607      	mov	r7, r0
  3030ce:	f7fd f8df 	bl	300290 <arch_counter_get_current>
  3030d2:	b14c      	cbz	r4, 3030e8 <upgrade_get_serial_buffer+0x80>
  3030d4:	4b0f      	ldr	r3, [pc, #60]	; (303114 <upgrade_get_serial_buffer+0xac>)
  3030d6:	1bc0      	subs	r0, r0, r7
  3030d8:	4298      	cmp	r0, r3
  3030da:	d9d3      	bls.n	303084 <upgrade_get_serial_buffer+0x1c>
  3030dc:	4b0a      	ldr	r3, [pc, #40]	; (303108 <upgrade_get_serial_buffer+0xa0>)
  3030de:	681b      	ldr	r3, [r3, #0]
  3030e0:	b16b      	cbz	r3, 3030fe <upgrade_get_serial_buffer+0x96>
  3030e2:	480d      	ldr	r0, [pc, #52]	; (303118 <upgrade_get_serial_buffer+0xb0>)
  3030e4:	211e      	movs	r1, #30
  3030e6:	e008      	b.n	3030fa <upgrade_get_serial_buffer+0x92>
  3030e8:	1b80      	subs	r0, r0, r6
  3030ea:	4548      	cmp	r0, r9
  3030ec:	d9ca      	bls.n	303084 <upgrade_get_serial_buffer+0x1c>
  3030ee:	4b06      	ldr	r3, [pc, #24]	; (303108 <upgrade_get_serial_buffer+0xa0>)
  3030f0:	681b      	ldr	r3, [r3, #0]
  3030f2:	b123      	cbz	r3, 3030fe <upgrade_get_serial_buffer+0x96>
  3030f4:	4809      	ldr	r0, [pc, #36]	; (30311c <upgrade_get_serial_buffer+0xb4>)
  3030f6:	f44f 61fa 	mov.w	r1, #2000	; 0x7d0
  3030fa:	f001 f967 	bl	3043cc <printf>
  3030fe:	4620      	mov	r0, r4
  303100:	e8bd 8ff8 	ldmia.w	sp!, {r3, r4, r5, r6, r7, r8, r9, sl, fp, pc}
  303104:	00309504 	eorseq	r9, r0, r4, lsl #10
  303108:	0030809c 	mlaseq	r0, ip, r0, r8
  30310c:	00300f77 	eorseq	r0, r0, r7, ror pc
  303110:	00300f93 	mlaseq	r0, r3, pc, r0	; <UNPREDICTABLE>
  303114:	000927bf 			; <UNDEFINED> instruction: 0x000927bf
  303118:	00300fa9 	eorseq	r0, r0, r9, lsr #31
  30311c:	00300fcb 	eorseq	r0, r0, fp, asr #31
  303120:	026259ff 	rsbeq	r5, r2, #4177920	; 0x3fc000

00303124 <upgrade_get_send_buff>:
  303124:	4800      	ldr	r0, [pc, #0]	; (303128 <upgrade_get_send_buff+0x4>)
  303126:	4770      	bx	lr
  303128:	0030a374 	eorseq	sl, r0, r4, ror r3

0030312c <upgrade_package_data>:
  30312c:	b5f8      	push	{r3, r4, r5, r6, r7, lr}
  30312e:	4607      	mov	r7, r0
  303130:	4614      	mov	r4, r2
  303132:	460e      	mov	r6, r1
  303134:	b149      	cbz	r1, 30314a <upgrade_package_data+0x1e>
  303136:	2a76      	cmp	r2, #118	; 0x76
  303138:	d908      	bls.n	30314c <upgrade_package_data+0x20>
  30313a:	4b1a      	ldr	r3, [pc, #104]	; (3031a4 <upgrade_package_data+0x78>)
  30313c:	681b      	ldr	r3, [r3, #0]
  30313e:	b373      	cbz	r3, 30319e <upgrade_package_data+0x72>
  303140:	4611      	mov	r1, r2
  303142:	4819      	ldr	r0, [pc, #100]	; (3031a8 <upgrade_package_data+0x7c>)
  303144:	f001 f942 	bl	3043cc <printf>
  303148:	e029      	b.n	30319e <upgrade_package_data+0x72>
  30314a:	460c      	mov	r4, r1
  30314c:	4d17      	ldr	r5, [pc, #92]	; (3031ac <upgrade_package_data+0x80>)
  30314e:	2100      	movs	r1, #0
  303150:	2280      	movs	r2, #128	; 0x80
  303152:	4628      	mov	r0, r5
  303154:	f7ff fe6a 	bl	302e2c <memset>
  303158:	237e      	movs	r3, #126	; 0x7e
  30315a:	70af      	strb	r7, [r5, #2]
  30315c:	702b      	strb	r3, [r5, #0]
  30315e:	0a3b      	lsrs	r3, r7, #8
  303160:	712c      	strb	r4, [r5, #4]
  303162:	706b      	strb	r3, [r5, #1]
  303164:	2300      	movs	r3, #0
  303166:	70eb      	strb	r3, [r5, #3]
  303168:	b126      	cbz	r6, 303174 <upgrade_package_data+0x48>
  30316a:	1d68      	adds	r0, r5, #5
  30316c:	4631      	mov	r1, r6
  30316e:	4622      	mov	r2, r4
  303170:	f7ff fe87 	bl	302e82 <memcpy>
  303174:	1d66      	adds	r6, r4, #5
  303176:	490d      	ldr	r1, [pc, #52]	; (3031ac <upgrade_package_data+0x80>)
  303178:	2000      	movs	r0, #0
  30317a:	4632      	mov	r2, r6
  30317c:	f000 fcb4 	bl	303ae8 <crc32>
  303180:	0e03      	lsrs	r3, r0, #24
  303182:	55ab      	strb	r3, [r5, r6]
  303184:	4425      	add	r5, r4
  303186:	f3c0 4307 	ubfx	r3, r0, #16, #8
  30318a:	7228      	strb	r0, [r5, #8]
  30318c:	71ab      	strb	r3, [r5, #6]
  30318e:	f3c0 2307 	ubfx	r3, r0, #8, #8
  303192:	f104 000a 	add.w	r0, r4, #10
  303196:	71eb      	strb	r3, [r5, #7]
  303198:	237e      	movs	r3, #126	; 0x7e
  30319a:	726b      	strb	r3, [r5, #9]
  30319c:	bdf8      	pop	{r3, r4, r5, r6, r7, pc}
  30319e:	f04f 30ff 	mov.w	r0, #4294967295	; 0xffffffff
  3031a2:	bdf8      	pop	{r3, r4, r5, r6, r7, pc}
  3031a4:	0030809c 	mlaseq	r0, ip, r0, r8
  3031a8:	00300fe3 	eorseq	r0, r0, r3, ror #31
  3031ac:	0030a374 	eorseq	sl, r0, r4, ror r3

003031b0 <upgrade_send_ack>:
  3031b0:	2100      	movs	r1, #0
  3031b2:	2007      	movs	r0, #7
  3031b4:	460a      	mov	r2, r1
  3031b6:	b510      	push	{r4, lr}
  3031b8:	f7ff ffb8 	bl	30312c <upgrade_package_data>
  3031bc:	1c43      	adds	r3, r0, #1
  3031be:	4602      	mov	r2, r0
  3031c0:	d00b      	beq.n	3031da <upgrade_send_ack+0x2a>
  3031c2:	4c06      	ldr	r4, [pc, #24]	; (3031dc <upgrade_send_ack+0x2c>)
  3031c4:	4906      	ldr	r1, [pc, #24]	; (3031e0 <upgrade_send_ack+0x30>)
  3031c6:	6820      	ldr	r0, [r4, #0]
  3031c8:	f003 fcb4 	bl	306b34 <uart_send_buffer>
  3031cc:	6823      	ldr	r3, [r4, #0]
  3031ce:	b123      	cbz	r3, 3031da <upgrade_send_ack+0x2a>
  3031d0:	4804      	ldr	r0, [pc, #16]	; (3031e4 <upgrade_send_ack+0x34>)
  3031d2:	e8bd 4010 	ldmia.w	sp!, {r4, lr}
  3031d6:	f001 b8f9 	b.w	3043cc <printf>
  3031da:	bd10      	pop	{r4, pc}
  3031dc:	0030809c 	mlaseq	r0, ip, r0, r8
  3031e0:	0030a374 	eorseq	sl, r0, r4, ror r3
  3031e4:	00301007 	eorseq	r1, r0, r7

003031e8 <upgrade_send_version>:
  3031e8:	b510      	push	{r4, lr}
  3031ea:	2236      	movs	r2, #54	; 0x36
  3031ec:	4c09      	ldr	r4, [pc, #36]	; (303214 <upgrade_send_version+0x2c>)
  3031ee:	2006      	movs	r0, #6
  3031f0:	1d21      	adds	r1, r4, #4
  3031f2:	f7ff ff9b 	bl	30312c <upgrade_package_data>
  3031f6:	1c41      	adds	r1, r0, #1
  3031f8:	4602      	mov	r2, r0
  3031fa:	d00a      	beq.n	303212 <upgrade_send_version+0x2a>
  3031fc:	6820      	ldr	r0, [r4, #0]
  3031fe:	4906      	ldr	r1, [pc, #24]	; (303218 <upgrade_send_version+0x30>)
  303200:	f003 fc98 	bl	306b34 <uart_send_buffer>
  303204:	6823      	ldr	r3, [r4, #0]
  303206:	b123      	cbz	r3, 303212 <upgrade_send_version+0x2a>
  303208:	4804      	ldr	r0, [pc, #16]	; (30321c <upgrade_send_version+0x34>)
  30320a:	e8bd 4010 	ldmia.w	sp!, {r4, lr}
  30320e:	f001 b8dd 	b.w	3043cc <printf>
  303212:	bd10      	pop	{r4, pc}
  303214:	0030809c 	mlaseq	r0, ip, r0, r8
  303218:	0030a374 	eorseq	sl, r0, r4, ror r3
  30321c:	00301016 	eorseq	r1, r0, r6, lsl r0

00303220 <upgrade_get_cmd>:
  303220:	2901      	cmp	r1, #1
  303222:	b510      	push	{r4, lr}
  303224:	4c0d      	ldr	r4, [pc, #52]	; (30325c <upgrade_get_cmd+0x3c>)
  303226:	d111      	bne.n	30324c <upgrade_get_cmd+0x2c>
  303228:	7803      	ldrb	r3, [r0, #0]
  30322a:	2b7e      	cmp	r3, #126	; 0x7e
  30322c:	d10e      	bne.n	30324c <upgrade_get_cmd+0x2c>
  30322e:	4b0c      	ldr	r3, [pc, #48]	; (303260 <upgrade_get_cmd+0x40>)
  303230:	7a1b      	ldrb	r3, [r3, #8]
  303232:	f003 02ff 	and.w	r2, r3, #255	; 0xff
  303236:	b94b      	cbnz	r3, 30324c <upgrade_get_cmd+0x2c>
  303238:	4b0a      	ldr	r3, [pc, #40]	; (303264 <upgrade_get_cmd+0x44>)
  30323a:	8022      	strh	r2, [r4, #0]
  30323c:	681b      	ldr	r3, [r3, #0]
  30323e:	b153      	cbz	r3, 303256 <upgrade_get_cmd+0x36>
  303240:	8821      	ldrh	r1, [r4, #0]
  303242:	4809      	ldr	r0, [pc, #36]	; (303268 <upgrade_get_cmd+0x48>)
  303244:	b289      	uxth	r1, r1
  303246:	f001 f8c1 	bl	3043cc <printf>
  30324a:	e004      	b.n	303256 <upgrade_get_cmd+0x36>
  30324c:	7842      	ldrb	r2, [r0, #1]
  30324e:	7883      	ldrb	r3, [r0, #2]
  303250:	ea43 2302 	orr.w	r3, r3, r2, lsl #8
  303254:	8023      	strh	r3, [r4, #0]
  303256:	8820      	ldrh	r0, [r4, #0]
  303258:	b280      	uxth	r0, r0
  30325a:	bd10      	pop	{r4, pc}
  30325c:	0030a400 	eorseq	sl, r0, r0, lsl #8
  303260:	00309504 	eorseq	r9, r0, r4, lsl #10
  303264:	0030809c 	mlaseq	r0, ip, r0, r8
  303268:	00301033 	eorseq	r1, r0, r3, lsr r0

0030326c <process_start>:
  30326c:	b510      	push	{r4, lr}
  30326e:	4614      	mov	r4, r2
  303270:	f7ff ffd6 	bl	303220 <upgrade_get_cmd>
  303274:	2801      	cmp	r0, #1
  303276:	4601      	mov	r1, r0
  303278:	d102      	bne.n	303280 <process_start+0x14>
  30327a:	7020      	strb	r0, [r4, #0]
  30327c:	2000      	movs	r0, #0
  30327e:	bd10      	pop	{r4, pc}
  303280:	4b04      	ldr	r3, [pc, #16]	; (303294 <process_start+0x28>)
  303282:	681b      	ldr	r3, [r3, #0]
  303284:	b113      	cbz	r3, 30328c <process_start+0x20>
  303286:	4804      	ldr	r0, [pc, #16]	; (303298 <process_start+0x2c>)
  303288:	f001 f8a0 	bl	3043cc <printf>
  30328c:	2300      	movs	r3, #0
  30328e:	2007      	movs	r0, #7
  303290:	7023      	strb	r3, [r4, #0]
  303292:	bd10      	pop	{r4, pc}
  303294:	0030809c 	mlaseq	r0, ip, r0, r8
  303298:	00301051 	eorseq	r1, r0, r1, asr r0

0030329c <process_data>:
  30329c:	e92d 47f0 	stmdb	sp!, {r4, r5, r6, r7, r8, r9, sl, lr}
  3032a0:	4682      	mov	sl, r0
  3032a2:	4688      	mov	r8, r1
  3032a4:	4615      	mov	r5, r2
  3032a6:	f7ff ffbb 	bl	303220 <upgrade_get_cmd>
  3032aa:	1ec3      	subs	r3, r0, #3
  3032ac:	4606      	mov	r6, r0
  3032ae:	b29b      	uxth	r3, r3
  3032b0:	2b01      	cmp	r3, #1
  3032b2:	d90b      	bls.n	3032cc <process_data+0x30>
  3032b4:	4b28      	ldr	r3, [pc, #160]	; (303358 <process_data+0xbc>)
  3032b6:	681b      	ldr	r3, [r3, #0]
  3032b8:	b11b      	cbz	r3, 3032c2 <process_data+0x26>
  3032ba:	4828      	ldr	r0, [pc, #160]	; (30335c <process_data+0xc0>)
  3032bc:	4631      	mov	r1, r6
  3032be:	f001 f885 	bl	3043cc <printf>
  3032c2:	2300      	movs	r3, #0
  3032c4:	2007      	movs	r0, #7
  3032c6:	702b      	strb	r3, [r5, #0]
  3032c8:	e8bd 87f0 	ldmia.w	sp!, {r4, r5, r6, r7, r8, r9, sl, pc}
  3032cc:	4f24      	ldr	r7, [pc, #144]	; (303360 <process_data+0xc4>)
  3032ce:	f1a8 080a 	sub.w	r8, r8, #10
  3032d2:	4c24      	ldr	r4, [pc, #144]	; (303364 <process_data+0xc8>)
  3032d4:	68fb      	ldr	r3, [r7, #12]
  3032d6:	6821      	ldr	r1, [r4, #0]
  3032d8:	46a1      	mov	r9, r4
  3032da:	eb08 0203 	add.w	r2, r8, r3
  3032de:	428a      	cmp	r2, r1
  3032e0:	d908      	bls.n	3032f4 <process_data+0x58>
  3032e2:	4b1d      	ldr	r3, [pc, #116]	; (303358 <process_data+0xbc>)
  3032e4:	681b      	ldr	r3, [r3, #0]
  3032e6:	2b00      	cmp	r3, #0
  3032e8:	d02f      	beq.n	30334a <process_data+0xae>
  3032ea:	6821      	ldr	r1, [r4, #0]
  3032ec:	481e      	ldr	r0, [pc, #120]	; (303368 <process_data+0xcc>)
  3032ee:	f001 f86d 	bl	3043cc <printf>
  3032f2:	e02a      	b.n	30334a <process_data+0xae>
  3032f4:	4a1d      	ldr	r2, [pc, #116]	; (30336c <process_data+0xd0>)
  3032f6:	f10a 0105 	add.w	r1, sl, #5
  3032fa:	6810      	ldr	r0, [r2, #0]
  3032fc:	4642      	mov	r2, r8
  3032fe:	4418      	add	r0, r3
  303300:	f7ff fdbf 	bl	302e82 <memcpy>
  303304:	68fb      	ldr	r3, [r7, #12]
  303306:	6822      	ldr	r2, [r4, #0]
  303308:	4443      	add	r3, r8
  30330a:	60fb      	str	r3, [r7, #12]
  30330c:	429a      	cmp	r2, r3
  30330e:	d10b      	bne.n	303328 <process_data+0x8c>
  303310:	2e04      	cmp	r6, #4
  303312:	d109      	bne.n	303328 <process_data+0x8c>
  303314:	4b10      	ldr	r3, [pc, #64]	; (303358 <process_data+0xbc>)
  303316:	681b      	ldr	r3, [r3, #0]
  303318:	b11b      	cbz	r3, 303322 <process_data+0x86>
  30331a:	6821      	ldr	r1, [r4, #0]
  30331c:	4814      	ldr	r0, [pc, #80]	; (303370 <process_data+0xd4>)
  30331e:	f001 f855 	bl	3043cc <printf>
  303322:	2301      	movs	r3, #1
  303324:	702b      	strb	r3, [r5, #0]
  303326:	e013      	b.n	303350 <process_data+0xb4>
  303328:	f8d9 2000 	ldr.w	r2, [r9]
  30332c:	429a      	cmp	r2, r3
  30332e:	d90f      	bls.n	303350 <process_data+0xb4>
  303330:	4a09      	ldr	r2, [pc, #36]	; (303358 <process_data+0xbc>)
  303332:	6812      	ldr	r2, [r2, #0]
  303334:	b12a      	cbz	r2, 303342 <process_data+0xa6>
  303336:	4a0b      	ldr	r2, [pc, #44]	; (303364 <process_data+0xc8>)
  303338:	480e      	ldr	r0, [pc, #56]	; (303374 <process_data+0xd8>)
  30333a:	6811      	ldr	r1, [r2, #0]
  30333c:	461a      	mov	r2, r3
  30333e:	f001 f845 	bl	3043cc <printf>
  303342:	2000      	movs	r0, #0
  303344:	7028      	strb	r0, [r5, #0]
  303346:	e8bd 87f0 	ldmia.w	sp!, {r4, r5, r6, r7, r8, r9, sl, pc}
  30334a:	200a      	movs	r0, #10
  30334c:	e8bd 87f0 	ldmia.w	sp!, {r4, r5, r6, r7, r8, r9, sl, pc}
  303350:	2000      	movs	r0, #0
  303352:	e8bd 87f0 	ldmia.w	sp!, {r4, r5, r6, r7, r8, r9, sl, pc}
  303356:	bf00      	nop
  303358:	0030809c 	mlaseq	r0, ip, r0, r8
  30335c:	00301083 	eorseq	r1, r0, r3, lsl #1
  303360:	00309504 	eorseq	r9, r0, r4, lsl #10
  303364:	0030a3fc 	ldrshteq	sl, [r0], -ip
  303368:	003010b3 	ldrhteq	r1, [r0], -r3
  30336c:	0030a3f4 	ldrshteq	sl, [r0], -r4
  303370:	003010e4 	eorseq	r1, r0, r4, ror #1
  303374:	0030110b 	eorseq	r1, r0, fp, lsl #2

00303378 <upgrade_get_start_data>:
  303378:	7983      	ldrb	r3, [r0, #6]
  30337a:	7942      	ldrb	r2, [r0, #5]
  30337c:	7a81      	ldrb	r1, [r0, #10]
  30337e:	041b      	lsls	r3, r3, #16
  303380:	ea43 6302 	orr.w	r3, r3, r2, lsl #24
  303384:	7a02      	ldrb	r2, [r0, #8]
  303386:	0409      	lsls	r1, r1, #16
  303388:	4313      	orrs	r3, r2
  30338a:	79c2      	ldrb	r2, [r0, #7]
  30338c:	ea43 2302 	orr.w	r3, r3, r2, lsl #8
  303390:	4a0a      	ldr	r2, [pc, #40]	; (3033bc <upgrade_get_start_data+0x44>)
  303392:	6013      	str	r3, [r2, #0]
  303394:	7a43      	ldrb	r3, [r0, #9]
  303396:	ea41 6103 	orr.w	r1, r1, r3, lsl #24
  30339a:	7b03      	ldrb	r3, [r0, #12]
  30339c:	4319      	orrs	r1, r3
  30339e:	7ac3      	ldrb	r3, [r0, #11]
  3033a0:	ea41 2103 	orr.w	r1, r1, r3, lsl #8
  3033a4:	4b06      	ldr	r3, [pc, #24]	; (3033c0 <upgrade_get_start_data+0x48>)
  3033a6:	6019      	str	r1, [r3, #0]
  3033a8:	4906      	ldr	r1, [pc, #24]	; (3033c4 <upgrade_get_start_data+0x4c>)
  3033aa:	6809      	ldr	r1, [r1, #0]
  3033ac:	b121      	cbz	r1, 3033b8 <upgrade_get_start_data+0x40>
  3033ae:	6811      	ldr	r1, [r2, #0]
  3033b0:	4805      	ldr	r0, [pc, #20]	; (3033c8 <upgrade_get_start_data+0x50>)
  3033b2:	681a      	ldr	r2, [r3, #0]
  3033b4:	f001 b80a 	b.w	3043cc <printf>
  3033b8:	4770      	bx	lr
  3033ba:	bf00      	nop
  3033bc:	0030a3f4 	ldrshteq	sl, [r0], -r4
  3033c0:	0030a3fc 	ldrshteq	sl, [r0], -ip
  3033c4:	0030809c 	mlaseq	r0, ip, r0, r8
  3033c8:	00301133 	eorseq	r1, r0, r3, lsr r1

003033cc <upgrade_get_exec_data>:
  3033cc:	7982      	ldrb	r2, [r0, #6]
  3033ce:	7943      	ldrb	r3, [r0, #5]
  3033d0:	0412      	lsls	r2, r2, #16
  3033d2:	ea42 6203 	orr.w	r2, r2, r3, lsl #24
  3033d6:	7a03      	ldrb	r3, [r0, #8]
  3033d8:	431a      	orrs	r2, r3
  3033da:	79c3      	ldrb	r3, [r0, #7]
  3033dc:	ea42 2203 	orr.w	r2, r2, r3, lsl #8
  3033e0:	4b04      	ldr	r3, [pc, #16]	; (3033f4 <upgrade_get_exec_data+0x28>)
  3033e2:	611a      	str	r2, [r3, #16]
  3033e4:	4a04      	ldr	r2, [pc, #16]	; (3033f8 <upgrade_get_exec_data+0x2c>)
  3033e6:	6812      	ldr	r2, [r2, #0]
  3033e8:	b11a      	cbz	r2, 3033f2 <upgrade_get_exec_data+0x26>
  3033ea:	6919      	ldr	r1, [r3, #16]
  3033ec:	4803      	ldr	r0, [pc, #12]	; (3033fc <upgrade_get_exec_data+0x30>)
  3033ee:	f000 bfed 	b.w	3043cc <printf>
  3033f2:	4770      	bx	lr
  3033f4:	00309504 	eorseq	r9, r0, r4, lsl #10
  3033f8:	0030809c 	mlaseq	r0, ip, r0, r8
  3033fc:	00301161 	eorseq	r1, r0, r1, ror #2

00303400 <upgrade_start_data_valid>:
  303400:	b508      	push	{r3, lr}
  303402:	4b0e      	ldr	r3, [pc, #56]	; (30343c <upgrade_start_data_valid+0x3c>)
  303404:	681a      	ldr	r2, [r3, #0]
  303406:	f5b2 1f80 	cmp.w	r2, #1048576	; 0x100000
  30340a:	461a      	mov	r2, r3
  30340c:	d306      	bcc.n	30341c <upgrade_start_data_valid+0x1c>
  30340e:	490c      	ldr	r1, [pc, #48]	; (303440 <upgrade_start_data_valid+0x40>)
  303410:	681b      	ldr	r3, [r3, #0]
  303412:	6809      	ldr	r1, [r1, #0]
  303414:	440b      	add	r3, r1
  303416:	f5b3 1f40 	cmp.w	r3, #3145728	; 0x300000
  30341a:	d30c      	bcc.n	303436 <upgrade_start_data_valid+0x36>
  30341c:	4b09      	ldr	r3, [pc, #36]	; (303444 <upgrade_start_data_valid+0x44>)
  30341e:	6818      	ldr	r0, [r3, #0]
  303420:	b150      	cbz	r0, 303438 <upgrade_start_data_valid+0x38>
  303422:	6811      	ldr	r1, [r2, #0]
  303424:	f44f 1340 	mov.w	r3, #3145728	; 0x300000
  303428:	f44f 1280 	mov.w	r2, #1048576	; 0x100000
  30342c:	4806      	ldr	r0, [pc, #24]	; (303448 <upgrade_start_data_valid+0x48>)
  30342e:	f000 ffcd 	bl	3043cc <printf>
  303432:	2000      	movs	r0, #0
  303434:	bd08      	pop	{r3, pc}
  303436:	2001      	movs	r0, #1
  303438:	bd08      	pop	{r3, pc}
  30343a:	bf00      	nop
  30343c:	0030a3f4 	ldrshteq	sl, [r0], -r4
  303440:	0030a3fc 	ldrshteq	sl, [r0], -ip
  303444:	0030809c 	mlaseq	r0, ip, r0, r8
  303448:	00301178 	eorseq	r1, r0, r8, ror r1

0030344c <process_connected>:
  30344c:	b570      	push	{r4, r5, r6, lr}
  30344e:	4606      	mov	r6, r0
  303450:	460d      	mov	r5, r1
  303452:	4614      	mov	r4, r2
  303454:	f7ff fee4 	bl	303220 <upgrade_get_cmd>
  303458:	2802      	cmp	r0, #2
  30345a:	d118      	bne.n	30348e <process_connected+0x42>
  30345c:	4630      	mov	r0, r6
  30345e:	4629      	mov	r1, r5
  303460:	f7ff ff8a 	bl	303378 <upgrade_get_start_data>
  303464:	f7ff ffcc 	bl	303400 <upgrade_start_data_valid>
  303468:	b118      	cbz	r0, 303472 <process_connected+0x26>
  30346a:	2301      	movs	r3, #1
  30346c:	2000      	movs	r0, #0
  30346e:	7023      	strb	r3, [r4, #0]
  303470:	bd70      	pop	{r4, r5, r6, pc}
  303472:	4b0d      	ldr	r3, [pc, #52]	; (3034a8 <process_connected+0x5c>)
  303474:	681b      	ldr	r3, [r3, #0]
  303476:	b133      	cbz	r3, 303486 <process_connected+0x3a>
  303478:	4b0c      	ldr	r3, [pc, #48]	; (3034ac <process_connected+0x60>)
  30347a:	480d      	ldr	r0, [pc, #52]	; (3034b0 <process_connected+0x64>)
  30347c:	6819      	ldr	r1, [r3, #0]
  30347e:	4b0d      	ldr	r3, [pc, #52]	; (3034b4 <process_connected+0x68>)
  303480:	681a      	ldr	r2, [r3, #0]
  303482:	f000 ffa3 	bl	3043cc <printf>
  303486:	2300      	movs	r3, #0
  303488:	2008      	movs	r0, #8
  30348a:	7023      	strb	r3, [r4, #0]
  30348c:	bd70      	pop	{r4, r5, r6, pc}
  30348e:	4b06      	ldr	r3, [pc, #24]	; (3034a8 <process_connected+0x5c>)
  303490:	681b      	ldr	r3, [r3, #0]
  303492:	b12b      	cbz	r3, 3034a0 <process_connected+0x54>
  303494:	4b08      	ldr	r3, [pc, #32]	; (3034b8 <process_connected+0x6c>)
  303496:	4809      	ldr	r0, [pc, #36]	; (3034bc <process_connected+0x70>)
  303498:	8819      	ldrh	r1, [r3, #0]
  30349a:	b289      	uxth	r1, r1
  30349c:	f000 ff96 	bl	3043cc <printf>
  3034a0:	2300      	movs	r3, #0
  3034a2:	2007      	movs	r0, #7
  3034a4:	7023      	strb	r3, [r4, #0]
  3034a6:	bd70      	pop	{r4, r5, r6, pc}
  3034a8:	0030809c 	mlaseq	r0, ip, r0, r8
  3034ac:	0030a3f4 	ldrshteq	sl, [r0], -r4
  3034b0:	003011a5 	eorseq	r1, r0, r5, lsr #3
  3034b4:	0030a3fc 	ldrshteq	sl, [r0], -ip
  3034b8:	0030a400 	eorseq	sl, r0, r0, lsl #8
  3034bc:	003011d4 	ldrsbteq	r1, [r0], -r4

003034c0 <upgrade_global_para_reset>:
  3034c0:	4b06      	ldr	r3, [pc, #24]	; (3034dc <upgrade_global_para_reset+0x1c>)
  3034c2:	2200      	movs	r2, #0
  3034c4:	4806      	ldr	r0, [pc, #24]	; (3034e0 <upgrade_global_para_reset+0x20>)
  3034c6:	f04f 31ff 	mov.w	r1, #4294967295	; 0xffffffff
  3034ca:	721a      	strb	r2, [r3, #8]
  3034cc:	6001      	str	r1, [r0, #0]
  3034ce:	4805      	ldr	r0, [pc, #20]	; (3034e4 <upgrade_global_para_reset+0x24>)
  3034d0:	60da      	str	r2, [r3, #12]
  3034d2:	6001      	str	r1, [r0, #0]
  3034d4:	4804      	ldr	r0, [pc, #16]	; (3034e8 <upgrade_global_para_reset+0x28>)
  3034d6:	8001      	strh	r1, [r0, #0]
  3034d8:	615a      	str	r2, [r3, #20]
  3034da:	4770      	bx	lr
  3034dc:	00309504 	eorseq	r9, r0, r4, lsl #10
  3034e0:	0030a3fc 	ldrshteq	sl, [r0], -ip
  3034e4:	0030a3f4 	ldrshteq	sl, [r0], -r4
  3034e8:	0030a400 	eorseq	sl, r0, r0, lsl #8

003034ec <upgrade_send_nack>:
  3034ec:	b538      	push	{r3, r4, r5, lr}
  3034ee:	4b1a      	ldr	r3, [pc, #104]	; (303558 <upgrade_send_nack+0x6c>)
  3034f0:	695a      	ldr	r2, [r3, #20]
  3034f2:	461c      	mov	r4, r3
  3034f4:	3201      	adds	r2, #1
  3034f6:	615a      	str	r2, [r3, #20]
  3034f8:	695a      	ldr	r2, [r3, #20]
  3034fa:	2ac7      	cmp	r2, #199	; 0xc7
  3034fc:	d907      	bls.n	30350e <upgrade_send_nack+0x22>
  3034fe:	4b17      	ldr	r3, [pc, #92]	; (30355c <upgrade_send_nack+0x70>)
  303500:	681b      	ldr	r3, [r3, #0]
  303502:	b133      	cbz	r3, 303512 <upgrade_send_nack+0x26>
  303504:	6961      	ldr	r1, [r4, #20]
  303506:	4816      	ldr	r0, [pc, #88]	; (303560 <upgrade_send_nack+0x74>)
  303508:	f000 ff60 	bl	3043cc <printf>
  30350c:	e001      	b.n	303512 <upgrade_send_nack+0x26>
  30350e:	280a      	cmp	r0, #10
  303510:	d108      	bne.n	303524 <upgrade_send_nack+0x38>
  303512:	f7ff ffd5 	bl	3034c0 <upgrade_global_para_reset>
  303516:	4b11      	ldr	r3, [pc, #68]	; (30355c <upgrade_send_nack+0x70>)
  303518:	681b      	ldr	r3, [r3, #0]
  30351a:	b113      	cbz	r3, 303522 <upgrade_send_nack+0x36>
  30351c:	4811      	ldr	r0, [pc, #68]	; (303564 <upgrade_send_nack+0x78>)
  30351e:	f000 ff55 	bl	3043cc <printf>
  303522:	200a      	movs	r0, #10
  303524:	0200      	lsls	r0, r0, #8
  303526:	2100      	movs	r1, #0
  303528:	f400 407f 	and.w	r0, r0, #65280	; 0xff00
  30352c:	460a      	mov	r2, r1
  30352e:	f040 0008 	orr.w	r0, r0, #8
  303532:	f7ff fdfb 	bl	30312c <upgrade_package_data>
  303536:	4602      	mov	r2, r0
  303538:	3001      	adds	r0, #1
  30353a:	d00c      	beq.n	303556 <upgrade_send_nack+0x6a>
  30353c:	4d07      	ldr	r5, [pc, #28]	; (30355c <upgrade_send_nack+0x70>)
  30353e:	490a      	ldr	r1, [pc, #40]	; (303568 <upgrade_send_nack+0x7c>)
  303540:	6828      	ldr	r0, [r5, #0]
  303542:	f003 faf7 	bl	306b34 <uart_send_buffer>
  303546:	682b      	ldr	r3, [r5, #0]
  303548:	b12b      	cbz	r3, 303556 <upgrade_send_nack+0x6a>
  30354a:	6961      	ldr	r1, [r4, #20]
  30354c:	4807      	ldr	r0, [pc, #28]	; (30356c <upgrade_send_nack+0x80>)
  30354e:	e8bd 4038 	ldmia.w	sp!, {r3, r4, r5, lr}
  303552:	f000 bf3b 	b.w	3043cc <printf>
  303556:	bd38      	pop	{r3, r4, r5, pc}
  303558:	00309504 	eorseq	r9, r0, r4, lsl #10
  30355c:	0030809c 	mlaseq	r0, ip, r0, r8
  303560:	0030120c 	eorseq	r1, r0, ip, lsl #4
  303564:	00301231 	eorseq	r1, r0, r1, lsr r2
  303568:	0030a374 	eorseq	sl, r0, r4, ror r3
  30356c:	0030125b 	eorseq	r1, r0, fp, asr r2

00303570 <upgrade_flash>:
  303570:	b508      	push	{r3, lr}
  303572:	4b0a      	ldr	r3, [pc, #40]	; (30359c <upgrade_flash+0x2c>)
  303574:	6918      	ldr	r0, [r3, #16]
  303576:	4b0a      	ldr	r3, [pc, #40]	; (3035a0 <upgrade_flash+0x30>)
  303578:	f100 4070 	add.w	r0, r0, #4026531840	; 0xf0000000
  30357c:	6819      	ldr	r1, [r3, #0]
  30357e:	4b09      	ldr	r3, [pc, #36]	; (3035a4 <upgrade_flash+0x34>)
  303580:	681a      	ldr	r2, [r3, #0]
  303582:	f002 faa7 	bl	305ad4 <fl_upgrade_if>
  303586:	b918      	cbnz	r0, 303590 <upgrade_flash+0x20>
  303588:	e8bd 4008 	ldmia.w	sp!, {r3, lr}
  30358c:	f7ff be10 	b.w	3031b0 <upgrade_send_ack>
  303590:	200b      	movs	r0, #11
  303592:	e8bd 4008 	ldmia.w	sp!, {r3, lr}
  303596:	f7ff bfa9 	b.w	3034ec <upgrade_send_nack>
  30359a:	bf00      	nop
  30359c:	00309504 	eorseq	r9, r0, r4, lsl #10
  3035a0:	0030a3f4 	ldrshteq	sl, [r0], -r4
  3035a4:	0030a3fc 	ldrshteq	sl, [r0], -ip

003035a8 <process_idle>:
  3035a8:	b538      	push	{r3, r4, r5, lr}
  3035aa:	4614      	mov	r4, r2
  3035ac:	f7ff fe38 	bl	303220 <upgrade_get_cmd>
  3035b0:	4d0b      	ldr	r5, [pc, #44]	; (3035e0 <process_idle+0x38>)
  3035b2:	4601      	mov	r1, r0
  3035b4:	b950      	cbnz	r0, 3035cc <process_idle+0x24>
  3035b6:	f7ff ff83 	bl	3034c0 <upgrade_global_para_reset>
  3035ba:	682b      	ldr	r3, [r5, #0]
  3035bc:	b113      	cbz	r3, 3035c4 <process_idle+0x1c>
  3035be:	4809      	ldr	r0, [pc, #36]	; (3035e4 <process_idle+0x3c>)
  3035c0:	f000 ff04 	bl	3043cc <printf>
  3035c4:	2301      	movs	r3, #1
  3035c6:	2000      	movs	r0, #0
  3035c8:	7023      	strb	r3, [r4, #0]
  3035ca:	bd38      	pop	{r3, r4, r5, pc}
  3035cc:	682b      	ldr	r3, [r5, #0]
  3035ce:	b113      	cbz	r3, 3035d6 <process_idle+0x2e>
  3035d0:	4805      	ldr	r0, [pc, #20]	; (3035e8 <process_idle+0x40>)
  3035d2:	f000 fefb 	bl	3043cc <printf>
  3035d6:	2300      	movs	r3, #0
  3035d8:	2007      	movs	r0, #7
  3035da:	7023      	strb	r3, [r4, #0]
  3035dc:	bd38      	pop	{r3, r4, r5, pc}
  3035de:	bf00      	nop
  3035e0:	0030809c 	mlaseq	r0, ip, r0, r8
  3035e4:	00301270 	eorseq	r1, r0, r0, ror r2
  3035e8:	00301283 	eorseq	r1, r0, r3, lsl #5

003035ec <upgrade_exec_data_valid>:
  3035ec:	b538      	push	{r3, r4, r5, lr}
  3035ee:	4604      	mov	r4, r0
  3035f0:	4b0d      	ldr	r3, [pc, #52]	; (303628 <upgrade_exec_data_valid+0x3c>)
  3035f2:	681a      	ldr	r2, [r3, #0]
  3035f4:	461d      	mov	r5, r3
  3035f6:	b11a      	cbz	r2, 303600 <upgrade_exec_data_valid+0x14>
  3035f8:	480c      	ldr	r0, [pc, #48]	; (30362c <upgrade_exec_data_valid+0x40>)
  3035fa:	4621      	mov	r1, r4
  3035fc:	f000 fee6 	bl	3043cc <printf>
  303600:	f1b4 5f80 	cmp.w	r4, #268435456	; 0x10000000
  303604:	d305      	bcc.n	303612 <upgrade_exec_data_valid+0x26>
  303606:	4b0a      	ldr	r3, [pc, #40]	; (303630 <upgrade_exec_data_valid+0x44>)
  303608:	681b      	ldr	r3, [r3, #0]
  30360a:	4423      	add	r3, r4
  30360c:	f1b3 5f90 	cmp.w	r3, #301989888	; 0x12000000
  303610:	d307      	bcc.n	303622 <upgrade_exec_data_valid+0x36>
  303612:	6828      	ldr	r0, [r5, #0]
  303614:	b130      	cbz	r0, 303624 <upgrade_exec_data_valid+0x38>
  303616:	4621      	mov	r1, r4
  303618:	4806      	ldr	r0, [pc, #24]	; (303634 <upgrade_exec_data_valid+0x48>)
  30361a:	f000 fed7 	bl	3043cc <printf>
  30361e:	2000      	movs	r0, #0
  303620:	bd38      	pop	{r3, r4, r5, pc}
  303622:	2001      	movs	r0, #1
  303624:	bd38      	pop	{r3, r4, r5, pc}
  303626:	bf00      	nop
  303628:	0030809c 	mlaseq	r0, ip, r0, r8
  30362c:	003012af 	eorseq	r1, r0, pc, lsr #5
  303630:	0030a3fc 	ldrshteq	sl, [r0], -ip
  303634:	003012c9 	eorseq	r1, r0, r9, asr #5

00303638 <process_exec_data>:
  303638:	b570      	push	{r4, r5, r6, lr}
  30363a:	4606      	mov	r6, r0
  30363c:	460d      	mov	r5, r1
  30363e:	4614      	mov	r4, r2
  303640:	f7ff fdee 	bl	303220 <upgrade_get_cmd>
  303644:	2805      	cmp	r0, #5
  303646:	d117      	bne.n	303678 <process_exec_data+0x40>
  303648:	4629      	mov	r1, r5
  30364a:	4d12      	ldr	r5, [pc, #72]	; (303694 <process_exec_data+0x5c>)
  30364c:	4630      	mov	r0, r6
  30364e:	f7ff febd 	bl	3033cc <upgrade_get_exec_data>
  303652:	6928      	ldr	r0, [r5, #16]
  303654:	f7ff ffca 	bl	3035ec <upgrade_exec_data_valid>
  303658:	b118      	cbz	r0, 303662 <process_exec_data+0x2a>
  30365a:	2301      	movs	r3, #1
  30365c:	2000      	movs	r0, #0
  30365e:	7023      	strb	r3, [r4, #0]
  303660:	bd70      	pop	{r4, r5, r6, pc}
  303662:	4b0d      	ldr	r3, [pc, #52]	; (303698 <process_exec_data+0x60>)
  303664:	681b      	ldr	r3, [r3, #0]
  303666:	b11b      	cbz	r3, 303670 <process_exec_data+0x38>
  303668:	6929      	ldr	r1, [r5, #16]
  30366a:	480c      	ldr	r0, [pc, #48]	; (30369c <process_exec_data+0x64>)
  30366c:	f000 feae 	bl	3043cc <printf>
  303670:	2300      	movs	r3, #0
  303672:	2009      	movs	r0, #9
  303674:	7023      	strb	r3, [r4, #0]
  303676:	bd70      	pop	{r4, r5, r6, pc}
  303678:	4b07      	ldr	r3, [pc, #28]	; (303698 <process_exec_data+0x60>)
  30367a:	681b      	ldr	r3, [r3, #0]
  30367c:	b12b      	cbz	r3, 30368a <process_exec_data+0x52>
  30367e:	4b08      	ldr	r3, [pc, #32]	; (3036a0 <process_exec_data+0x68>)
  303680:	4808      	ldr	r0, [pc, #32]	; (3036a4 <process_exec_data+0x6c>)
  303682:	8819      	ldrh	r1, [r3, #0]
  303684:	b289      	uxth	r1, r1
  303686:	f000 fea1 	bl	3043cc <printf>
  30368a:	2300      	movs	r3, #0
  30368c:	2007      	movs	r0, #7
  30368e:	7023      	strb	r3, [r4, #0]
  303690:	bd70      	pop	{r4, r5, r6, pc}
  303692:	bf00      	nop
  303694:	00309504 	eorseq	r9, r0, r4, lsl #10
  303698:	0030809c 	mlaseq	r0, ip, r0, r8
  30369c:	003012e6 	eorseq	r1, r0, r6, ror #5
  3036a0:	0030a400 	eorseq	sl, r0, r0, lsl #8
  3036a4:	003012fd 	ldrshteq	r1, [r0], -sp

003036a8 <upgrade_data_check>:
  3036a8:	4b65      	ldr	r3, [pc, #404]	; (303840 <upgrade_data_check+0x198>)
  3036aa:	f64f 72ff 	movw	r2, #65535	; 0xffff
  3036ae:	e92d 47f0 	stmdb	sp!, {r4, r5, r6, r7, r8, r9, sl, lr}
  3036b2:	460e      	mov	r6, r1
  3036b4:	801a      	strh	r2, [r3, #0]
  3036b6:	2e01      	cmp	r6, #1
  3036b8:	4a62      	ldr	r2, [pc, #392]	; (303844 <upgrade_data_check+0x19c>)
  3036ba:	f04f 0100 	mov.w	r1, #0
  3036be:	4604      	mov	r4, r0
  3036c0:	469a      	mov	sl, r3
  3036c2:	8011      	strh	r1, [r2, #0]
  3036c4:	d109      	bne.n	3036da <upgrade_data_check+0x32>
  3036c6:	7803      	ldrb	r3, [r0, #0]
  3036c8:	2b7e      	cmp	r3, #126	; 0x7e
  3036ca:	d108      	bne.n	3036de <upgrade_data_check+0x36>
  3036cc:	4b5e      	ldr	r3, [pc, #376]	; (303848 <upgrade_data_check+0x1a0>)
  3036ce:	7a1b      	ldrb	r3, [r3, #8]
  3036d0:	f003 00ff 	and.w	r0, r3, #255	; 0xff
  3036d4:	b91b      	cbnz	r3, 3036de <upgrade_data_check+0x36>
  3036d6:	e8bd 87f0 	ldmia.w	sp!, {r4, r5, r6, r7, r8, r9, sl, pc}
  3036da:	2e09      	cmp	r6, #9
  3036dc:	d812      	bhi.n	303704 <upgrade_data_check+0x5c>
  3036de:	4b5b      	ldr	r3, [pc, #364]	; (30384c <upgrade_data_check+0x1a4>)
  3036e0:	681a      	ldr	r2, [r3, #0]
  3036e2:	461d      	mov	r5, r3
  3036e4:	b11a      	cbz	r2, 3036ee <upgrade_data_check+0x46>
  3036e6:	485a      	ldr	r0, [pc, #360]	; (303850 <upgrade_data_check+0x1a8>)
  3036e8:	4631      	mov	r1, r6
  3036ea:	f000 fe6f 	bl	3043cc <printf>
  3036ee:	682b      	ldr	r3, [r5, #0]
  3036f0:	2b00      	cmp	r3, #0
  3036f2:	f000 8096 	beq.w	303822 <upgrade_data_check+0x17a>
  3036f6:	4b54      	ldr	r3, [pc, #336]	; (303848 <upgrade_data_check+0x1a0>)
  3036f8:	7821      	ldrb	r1, [r4, #0]
  3036fa:	4856      	ldr	r0, [pc, #344]	; (303854 <upgrade_data_check+0x1ac>)
  3036fc:	7a1a      	ldrb	r2, [r3, #8]
  3036fe:	f000 fe65 	bl	3043cc <printf>
  303702:	e08e      	b.n	303822 <upgrade_data_check+0x17a>
  303704:	7803      	ldrb	r3, [r0, #0]
  303706:	4d51      	ldr	r5, [pc, #324]	; (30384c <upgrade_data_check+0x1a4>)
  303708:	2b7e      	cmp	r3, #126	; 0x7e
  30370a:	d105      	bne.n	303718 <upgrade_data_check+0x70>
  30370c:	eb00 0806 	add.w	r8, r0, r6
  303710:	f818 3c01 	ldrb.w	r3, [r8, #-1]
  303714:	2b7e      	cmp	r3, #126	; 0x7e
  303716:	d037      	beq.n	303788 <upgrade_data_check+0xe0>
  303718:	682b      	ldr	r3, [r5, #0]
  30371a:	b11b      	cbz	r3, 303724 <upgrade_data_check+0x7c>
  30371c:	484e      	ldr	r0, [pc, #312]	; (303858 <upgrade_data_check+0x1b0>)
  30371e:	4631      	mov	r1, r6
  303720:	f000 fe54 	bl	3043cc <printf>
  303724:	682b      	ldr	r3, [r5, #0]
  303726:	2e10      	cmp	r6, #16
  303728:	bf34      	ite	cc
  30372a:	46b0      	movcc	r8, r6
  30372c:	f04f 0810 	movcs.w	r8, #16
  303730:	b113      	cbz	r3, 303738 <upgrade_data_check+0x90>
  303732:	484a      	ldr	r0, [pc, #296]	; (30385c <upgrade_data_check+0x1b4>)
  303734:	f000 fe4a 	bl	3043cc <printf>
  303738:	682b      	ldr	r3, [r5, #0]
  30373a:	b113      	cbz	r3, 303742 <upgrade_data_check+0x9a>
  30373c:	4848      	ldr	r0, [pc, #288]	; (303860 <upgrade_data_check+0x1b8>)
  30373e:	f000 fe45 	bl	3043cc <printf>
  303742:	2700      	movs	r7, #0
  303744:	682b      	ldr	r3, [r5, #0]
  303746:	b11b      	cbz	r3, 303750 <upgrade_data_check+0xa8>
  303748:	4846      	ldr	r0, [pc, #280]	; (303864 <upgrade_data_check+0x1bc>)
  30374a:	5de1      	ldrb	r1, [r4, r7]
  30374c:	f000 fe3e 	bl	3043cc <printf>
  303750:	3701      	adds	r7, #1
  303752:	4547      	cmp	r7, r8
  303754:	d3f6      	bcc.n	303744 <upgrade_data_check+0x9c>
  303756:	682b      	ldr	r3, [r5, #0]
  303758:	b113      	cbz	r3, 303760 <upgrade_data_check+0xb8>
  30375a:	4843      	ldr	r0, [pc, #268]	; (303868 <upgrade_data_check+0x1c0>)
  30375c:	f000 fe36 	bl	3043cc <printf>
  303760:	ebc8 0606 	rsb	r6, r8, r6
  303764:	2700      	movs	r7, #0
  303766:	4434      	add	r4, r6
  303768:	682b      	ldr	r3, [r5, #0]
  30376a:	b11b      	cbz	r3, 303774 <upgrade_data_check+0xcc>
  30376c:	483d      	ldr	r0, [pc, #244]	; (303864 <upgrade_data_check+0x1bc>)
  30376e:	5de1      	ldrb	r1, [r4, r7]
  303770:	f000 fe2c 	bl	3043cc <printf>
  303774:	3701      	adds	r7, #1
  303776:	4547      	cmp	r7, r8
  303778:	d3f6      	bcc.n	303768 <upgrade_data_check+0xc0>
  30377a:	682b      	ldr	r3, [r5, #0]
  30377c:	2b00      	cmp	r3, #0
  30377e:	d053      	beq.n	303828 <upgrade_data_check+0x180>
  303780:	483a      	ldr	r0, [pc, #232]	; (30386c <upgrade_data_check+0x1c4>)
  303782:	f000 fe23 	bl	3043cc <printf>
  303786:	e04f      	b.n	303828 <upgrade_data_check+0x180>
  303788:	7847      	ldrb	r7, [r0, #1]
  30378a:	7883      	ldrb	r3, [r0, #2]
  30378c:	f890 9003 	ldrb.w	r9, [r0, #3]
  303790:	ea43 2707 	orr.w	r7, r3, r7, lsl #8
  303794:	7903      	ldrb	r3, [r0, #4]
  303796:	ea43 2909 	orr.w	r9, r3, r9, lsl #8
  30379a:	682b      	ldr	r3, [r5, #0]
  30379c:	b12b      	cbz	r3, 3037aa <upgrade_data_check+0x102>
  30379e:	4834      	ldr	r0, [pc, #208]	; (303870 <upgrade_data_check+0x1c8>)
  3037a0:	4649      	mov	r1, r9
  3037a2:	4632      	mov	r2, r6
  3037a4:	463b      	mov	r3, r7
  3037a6:	f000 fe11 	bl	3043cc <printf>
  3037aa:	f109 030a 	add.w	r3, r9, #10
  3037ae:	42b3      	cmp	r3, r6
  3037b0:	d008      	beq.n	3037c4 <upgrade_data_check+0x11c>
  3037b2:	682b      	ldr	r3, [r5, #0]
  3037b4:	2b00      	cmp	r3, #0
  3037b6:	d03a      	beq.n	30382e <upgrade_data_check+0x186>
  3037b8:	4649      	mov	r1, r9
  3037ba:	4632      	mov	r2, r6
  3037bc:	482d      	ldr	r0, [pc, #180]	; (303874 <upgrade_data_check+0x1cc>)
  3037be:	f000 fe05 	bl	3043cc <printf>
  3037c2:	e034      	b.n	30382e <upgrade_data_check+0x186>
  3037c4:	2f09      	cmp	r7, #9
  3037c6:	d907      	bls.n	3037d8 <upgrade_data_check+0x130>
  3037c8:	682b      	ldr	r3, [r5, #0]
  3037ca:	b39b      	cbz	r3, 303834 <upgrade_data_check+0x18c>
  3037cc:	4639      	mov	r1, r7
  3037ce:	2209      	movs	r2, #9
  3037d0:	4829      	ldr	r0, [pc, #164]	; (303878 <upgrade_data_check+0x1d0>)
  3037d2:	f000 fdfb 	bl	3043cc <printf>
  3037d6:	e02d      	b.n	303834 <upgrade_data_check+0x18c>
  3037d8:	f109 0205 	add.w	r2, r9, #5
  3037dc:	f818 6c04 	ldrb.w	r6, [r8, #-4]
  3037e0:	2000      	movs	r0, #0
  3037e2:	4621      	mov	r1, r4
  3037e4:	5ca3      	ldrb	r3, [r4, r2]
  3037e6:	0436      	lsls	r6, r6, #16
  3037e8:	ea46 6603 	orr.w	r6, r6, r3, lsl #24
  3037ec:	f818 3c02 	ldrb.w	r3, [r8, #-2]
  3037f0:	431e      	orrs	r6, r3
  3037f2:	f818 3c03 	ldrb.w	r3, [r8, #-3]
  3037f6:	ea46 2603 	orr.w	r6, r6, r3, lsl #8
  3037fa:	f000 f975 	bl	303ae8 <crc32>
  3037fe:	682b      	ldr	r3, [r5, #0]
  303800:	4286      	cmp	r6, r0
  303802:	d004      	beq.n	30380e <upgrade_data_check+0x166>
  303804:	b1cb      	cbz	r3, 30383a <upgrade_data_check+0x192>
  303806:	481d      	ldr	r0, [pc, #116]	; (30387c <upgrade_data_check+0x1d4>)
  303808:	f000 fde0 	bl	3043cc <printf>
  30380c:	e015      	b.n	30383a <upgrade_data_check+0x192>
  30380e:	b11b      	cbz	r3, 303818 <upgrade_data_check+0x170>
  303810:	481b      	ldr	r0, [pc, #108]	; (303880 <upgrade_data_check+0x1d8>)
  303812:	4639      	mov	r1, r7
  303814:	f000 fdda 	bl	3043cc <printf>
  303818:	f8aa 7000 	strh.w	r7, [sl]
  30381c:	2000      	movs	r0, #0
  30381e:	e8bd 87f0 	ldmia.w	sp!, {r4, r5, r6, r7, r8, r9, sl, pc}
  303822:	2002      	movs	r0, #2
  303824:	e8bd 87f0 	ldmia.w	sp!, {r4, r5, r6, r7, r8, r9, sl, pc}
  303828:	2003      	movs	r0, #3
  30382a:	e8bd 87f0 	ldmia.w	sp!, {r4, r5, r6, r7, r8, r9, sl, pc}
  30382e:	2004      	movs	r0, #4
  303830:	e8bd 87f0 	ldmia.w	sp!, {r4, r5, r6, r7, r8, r9, sl, pc}
  303834:	2005      	movs	r0, #5
  303836:	e8bd 87f0 	ldmia.w	sp!, {r4, r5, r6, r7, r8, r9, sl, pc}
  30383a:	2006      	movs	r0, #6
  30383c:	e8bd 87f0 	ldmia.w	sp!, {r4, r5, r6, r7, r8, r9, sl, pc}
  303840:	0030a400 	eorseq	sl, r0, r0, lsl #8
  303844:	0030a3f8 	ldrshteq	sl, [r0], -r8
  303848:	00309504 	eorseq	r9, r0, r4, lsl #10
  30384c:	0030809c 	mlaseq	r0, ip, r0, r8
  303850:	00301335 	eorseq	r1, r0, r5, lsr r3
  303854:	00301348 	eorseq	r1, r0, r8, asr #6
  303858:	00301369 	eorseq	r1, r0, r9, ror #6
  30385c:	0030137b 	eorseq	r1, r0, fp, ror r3
  303860:	00301394 	mlaseq	r0, r4, r3, r1
  303864:	003013a2 	eorseq	r1, r0, r2, lsr #7
  303868:	003013a8 	eorseq	r1, r0, r8, lsr #7
  30386c:	003013b7 	ldrhteq	r1, [r0], -r7
  303870:	003013ca 	eorseq	r1, r0, sl, asr #7
  303874:	003013f6 	ldrshteq	r1, [r0], -r6
  303878:	0030141f 	eorseq	r1, r0, pc, lsl r4
  30387c:	00300e65 	eorseq	r0, r0, r5, ror #28
  303880:	0030143a 	eorseq	r1, r0, sl, lsr r4

00303884 <upgrade_stat_m_init>:
  303884:	4b11      	ldr	r3, [pc, #68]	; (3038cc <upgrade_stat_m_init+0x48>)
  303886:	2200      	movs	r2, #0
  303888:	4911      	ldr	r1, [pc, #68]	; (3038d0 <upgrade_stat_m_init+0x4c>)
  30388a:	2002      	movs	r0, #2
  30388c:	619a      	str	r2, [r3, #24]
  30388e:	61d9      	str	r1, [r3, #28]
  303890:	4910      	ldr	r1, [pc, #64]	; (3038d4 <upgrade_stat_m_init+0x50>)
  303892:	625a      	str	r2, [r3, #36]	; 0x24
  303894:	2201      	movs	r2, #1
  303896:	6398      	str	r0, [r3, #56]	; 0x38
  303898:	6219      	str	r1, [r3, #32]
  30389a:	490f      	ldr	r1, [pc, #60]	; (3038d8 <upgrade_stat_m_init+0x54>)
  30389c:	480f      	ldr	r0, [pc, #60]	; (3038dc <upgrade_stat_m_init+0x58>)
  30389e:	629a      	str	r2, [r3, #40]	; 0x28
  3038a0:	6319      	str	r1, [r3, #48]	; 0x30
  3038a2:	4a0f      	ldr	r2, [pc, #60]	; (3038e0 <upgrade_stat_m_init+0x5c>)
  3038a4:	6419      	str	r1, [r3, #64]	; 0x40
  3038a6:	6519      	str	r1, [r3, #80]	; 0x50
  3038a8:	2104      	movs	r1, #4
  3038aa:	6599      	str	r1, [r3, #88]	; 0x58
  3038ac:	490d      	ldr	r1, [pc, #52]	; (3038e4 <upgrade_stat_m_init+0x60>)
  3038ae:	62da      	str	r2, [r3, #44]	; 0x2c
  3038b0:	63d8      	str	r0, [r3, #60]	; 0x3c
  3038b2:	2003      	movs	r0, #3
  3038b4:	4a0c      	ldr	r2, [pc, #48]	; (3038e8 <upgrade_stat_m_init+0x64>)
  3038b6:	6498      	str	r0, [r3, #72]	; 0x48
  3038b8:	65d9      	str	r1, [r3, #92]	; 0x5c
  3038ba:	480c      	ldr	r0, [pc, #48]	; (3038ec <upgrade_stat_m_init+0x68>)
  3038bc:	490c      	ldr	r1, [pc, #48]	; (3038f0 <upgrade_stat_m_init+0x6c>)
  3038be:	635a      	str	r2, [r3, #52]	; 0x34
  3038c0:	645a      	str	r2, [r3, #68]	; 0x44
  3038c2:	64d8      	str	r0, [r3, #76]	; 0x4c
  3038c4:	655a      	str	r2, [r3, #84]	; 0x54
  3038c6:	6619      	str	r1, [r3, #96]	; 0x60
  3038c8:	665a      	str	r2, [r3, #100]	; 0x64
  3038ca:	4770      	bx	lr
  3038cc:	00309504 	eorseq	r9, r0, r4, lsl #10
  3038d0:	003035a9 	eorseq	r3, r0, r9, lsr #11
  3038d4:	003031e9 	eorseq	r3, r0, r9, ror #3
  3038d8:	003031b1 	ldrhteq	r3, [r0], -r1
  3038dc:	0030344d 	eorseq	r3, r0, sp, asr #8
  3038e0:	0030326d 	eorseq	r3, r0, sp, ror #4
  3038e4:	00303639 	eorseq	r3, r0, r9, lsr r6
  3038e8:	003034ed 	eorseq	r3, r0, sp, ror #9
  3038ec:	0030329d 	mlaseq	r0, sp, r2, r3
  3038f0:	00303571 	eorseq	r3, r0, r1, ror r5

003038f4 <upgrade_processing>:
  3038f4:	e92d 41f3 	stmdb	sp!, {r0, r1, r4, r5, r6, r7, r8, lr}
  3038f8:	f7ff ffc4 	bl	303884 <upgrade_stat_m_init>
  3038fc:	2500      	movs	r5, #0
  3038fe:	4e41      	ldr	r6, [pc, #260]	; (303a04 <upgrade_processing+0x110>)
  303900:	f7ff fdde 	bl	3034c0 <upgrade_global_para_reset>
  303904:	4c40      	ldr	r4, [pc, #256]	; (303a08 <upgrade_processing+0x114>)
  303906:	6830      	ldr	r0, [r6, #0]
  303908:	4637      	mov	r7, r6
  30390a:	f003 f899 	bl	306a40 <serial_reset_rx_fifo>
  30390e:	2001      	movs	r0, #1
  303910:	f000 fef8 	bl	304704 <mdelay>
  303914:	6833      	ldr	r3, [r6, #0]
  303916:	b11b      	cbz	r3, 303920 <upgrade_processing+0x2c>
  303918:	7a21      	ldrb	r1, [r4, #8]
  30391a:	483c      	ldr	r0, [pc, #240]	; (303a0c <upgrade_processing+0x118>)
  30391c:	f000 fd56 	bl	3043cc <printf>
  303920:	7a23      	ldrb	r3, [r4, #8]
  303922:	2b04      	cmp	r3, #4
  303924:	d90b      	bls.n	30393e <upgrade_processing+0x4a>
  303926:	6833      	ldr	r3, [r6, #0]
  303928:	b11b      	cbz	r3, 303932 <upgrade_processing+0x3e>
  30392a:	7a21      	ldrb	r1, [r4, #8]
  30392c:	4838      	ldr	r0, [pc, #224]	; (303a10 <upgrade_processing+0x11c>)
  30392e:	f000 fd4d 	bl	3043cc <printf>
  303932:	f7ff fdc5 	bl	3034c0 <upgrade_global_para_reset>
  303936:	200a      	movs	r0, #10
  303938:	f7ff fdd8 	bl	3034ec <upgrade_send_nack>
  30393c:	e7ea      	b.n	303914 <upgrade_processing+0x20>
  30393e:	6c70      	ldr	r0, [r6, #68]	; 0x44
  303940:	f7ff fb92 	bl	303068 <upgrade_get_serial_buffer>
  303944:	4680      	mov	r8, r0
  303946:	b9b0      	cbnz	r0, 303976 <upgrade_processing+0x82>
  303948:	3501      	adds	r5, #1
  30394a:	2d05      	cmp	r5, #5
  30394c:	d10b      	bne.n	303966 <upgrade_processing+0x72>
  30394e:	f7ff fdb7 	bl	3034c0 <upgrade_global_para_reset>
  303952:	683b      	ldr	r3, [r7, #0]
  303954:	b90b      	cbnz	r3, 30395a <upgrade_processing+0x66>
  303956:	2500      	movs	r5, #0
  303958:	e7dc      	b.n	303914 <upgrade_processing+0x20>
  30395a:	482e      	ldr	r0, [pc, #184]	; (303a14 <upgrade_processing+0x120>)
  30395c:	4641      	mov	r1, r8
  30395e:	f000 fd35 	bl	3043cc <printf>
  303962:	4645      	mov	r5, r8
  303964:	e7d6      	b.n	303914 <upgrade_processing+0x20>
  303966:	683b      	ldr	r3, [r7, #0]
  303968:	2b00      	cmp	r3, #0
  30396a:	d0d3      	beq.n	303914 <upgrade_processing+0x20>
  30396c:	4629      	mov	r1, r5
  30396e:	482a      	ldr	r0, [pc, #168]	; (303a18 <upgrade_processing+0x124>)
  303970:	f000 fd2c 	bl	3043cc <printf>
  303974:	e7ce      	b.n	303914 <upgrade_processing+0x20>
  303976:	6c78      	ldr	r0, [r7, #68]	; 0x44
  303978:	4641      	mov	r1, r8
  30397a:	f7ff fe95 	bl	3036a8 <upgrade_data_check>
  30397e:	4605      	mov	r5, r0
  303980:	b138      	cbz	r0, 303992 <upgrade_processing+0x9e>
  303982:	f7ff fdb3 	bl	3034ec <upgrade_send_nack>
  303986:	683b      	ldr	r3, [r7, #0]
  303988:	2b00      	cmp	r3, #0
  30398a:	d0e4      	beq.n	303956 <upgrade_processing+0x62>
  30398c:	4823      	ldr	r0, [pc, #140]	; (303a1c <upgrade_processing+0x128>)
  30398e:	4629      	mov	r1, r5
  303990:	e02c      	b.n	3039ec <upgrade_processing+0xf8>
  303992:	6c78      	ldr	r0, [r7, #68]	; 0x44
  303994:	4641      	mov	r1, r8
  303996:	f7ff fc43 	bl	303220 <upgrade_get_cmd>
  30399a:	b930      	cbnz	r0, 3039aa <upgrade_processing+0xb6>
  30399c:	683b      	ldr	r3, [r7, #0]
  30399e:	b113      	cbz	r3, 3039a6 <upgrade_processing+0xb2>
  3039a0:	481f      	ldr	r0, [pc, #124]	; (303a20 <upgrade_processing+0x12c>)
  3039a2:	f000 fd13 	bl	3043cc <printf>
  3039a6:	f7ff fd8b 	bl	3034c0 <upgrade_global_para_reset>
  3039aa:	7a23      	ldrb	r3, [r4, #8]
  3039ac:	4641      	mov	r1, r8
  3039ae:	6c70      	ldr	r0, [r6, #68]	; 0x44
  3039b0:	f10d 0207 	add.w	r2, sp, #7
  3039b4:	eb04 1303 	add.w	r3, r4, r3, lsl #4
  3039b8:	69db      	ldr	r3, [r3, #28]
  3039ba:	4798      	blx	r3
  3039bc:	7a23      	ldrb	r3, [r4, #8]
  3039be:	eb04 1303 	add.w	r3, r4, r3, lsl #4
  3039c2:	b9b0      	cbnz	r0, 3039f2 <upgrade_processing+0xfe>
  3039c4:	6a1b      	ldr	r3, [r3, #32]
  3039c6:	b123      	cbz	r3, 3039d2 <upgrade_processing+0xde>
  3039c8:	7a23      	ldrb	r3, [r4, #8]
  3039ca:	eb04 1303 	add.w	r3, r4, r3, lsl #4
  3039ce:	6a1b      	ldr	r3, [r3, #32]
  3039d0:	4798      	blx	r3
  3039d2:	f89d 3007 	ldrb.w	r3, [sp, #7]
  3039d6:	2b00      	cmp	r3, #0
  3039d8:	d0bd      	beq.n	303956 <upgrade_processing+0x62>
  3039da:	7a23      	ldrb	r3, [r4, #8]
  3039dc:	3301      	adds	r3, #1
  3039de:	b2db      	uxtb	r3, r3
  3039e0:	7223      	strb	r3, [r4, #8]
  3039e2:	6833      	ldr	r3, [r6, #0]
  3039e4:	2b00      	cmp	r3, #0
  3039e6:	d0b6      	beq.n	303956 <upgrade_processing+0x62>
  3039e8:	7a21      	ldrb	r1, [r4, #8]
  3039ea:	480e      	ldr	r0, [pc, #56]	; (303a24 <upgrade_processing+0x130>)
  3039ec:	f000 fcee 	bl	3043cc <printf>
  3039f0:	e7b1      	b.n	303956 <upgrade_processing+0x62>
  3039f2:	6a5b      	ldr	r3, [r3, #36]	; 0x24
  3039f4:	2b00      	cmp	r3, #0
  3039f6:	d0ae      	beq.n	303956 <upgrade_processing+0x62>
  3039f8:	7a23      	ldrb	r3, [r4, #8]
  3039fa:	eb04 1303 	add.w	r3, r4, r3, lsl #4
  3039fe:	6a5b      	ldr	r3, [r3, #36]	; 0x24
  303a00:	4798      	blx	r3
  303a02:	e7a8      	b.n	303956 <upgrade_processing+0x62>
  303a04:	0030809c 	mlaseq	r0, ip, r0, r8
  303a08:	00309504 	eorseq	r9, r0, r4, lsl #10
  303a0c:	00301515 	eorseq	r1, r0, r5, lsl r5
  303a10:	0030144c 	eorseq	r1, r0, ip, asr #8
  303a14:	00301483 	eorseq	r1, r0, r3, lsl #9
  303a18:	003014a3 	eorseq	r1, r0, r3, lsr #9
  303a1c:	003014c2 	eorseq	r1, r0, r2, asr #9
  303a20:	003014e9 	eorseq	r1, r0, r9, ror #9
  303a24:	00301510 	eorseq	r1, r0, r0, lsl r5

00303a28 <upgrade_start>:
  303a28:	b573      	push	{r0, r1, r4, r5, r6, lr}
  303a2a:	f241 3188 	movw	r1, #5000	; 0x1388
  303a2e:	4668      	mov	r0, sp
  303a30:	4d1c      	ldr	r5, [pc, #112]	; (303aa4 <upgrade_start+0x7c>)
  303a32:	f000 fe43 	bl	3046bc <timeout_setup_ms>
  303a36:	2400      	movs	r4, #0
  303a38:	f04f 4640 	mov.w	r6, #3221225472	; 0xc0000000
  303a3c:	f04f 4040 	mov.w	r0, #3221225472	; 0xc0000000
  303a40:	3401      	adds	r4, #1
  303a42:	602e      	str	r6, [r5, #0]
  303a44:	f003 f8de 	bl	306c04 <__serial_tstc>
  303a48:	b130      	cbz	r0, 303a58 <upgrade_start+0x30>
  303a4a:	6828      	ldr	r0, [r5, #0]
  303a4c:	f003 f8de 	bl	306c0c <__serial_getc_direct>
  303a50:	287e      	cmp	r0, #126	; 0x7e
  303a52:	d101      	bne.n	303a58 <upgrade_start+0x30>
  303a54:	2200      	movs	r2, #0
  303a56:	e00b      	b.n	303a70 <upgrade_start+0x48>
  303a58:	4813      	ldr	r0, [pc, #76]	; (303aa8 <upgrade_start+0x80>)
  303a5a:	4b12      	ldr	r3, [pc, #72]	; (303aa4 <upgrade_start+0x7c>)
  303a5c:	6018      	str	r0, [r3, #0]
  303a5e:	f003 f8d1 	bl	306c04 <__serial_tstc>
  303a62:	b170      	cbz	r0, 303a82 <upgrade_start+0x5a>
  303a64:	6828      	ldr	r0, [r5, #0]
  303a66:	f003 f8d1 	bl	306c0c <__serial_getc_direct>
  303a6a:	287e      	cmp	r0, #126	; 0x7e
  303a6c:	d109      	bne.n	303a82 <upgrade_start+0x5a>
  303a6e:	2206      	movs	r2, #6
  303a70:	4b0e      	ldr	r3, [pc, #56]	; (303aac <upgrade_start+0x84>)
  303a72:	601a      	str	r2, [r3, #0]
  303a74:	4b0d      	ldr	r3, [pc, #52]	; (303aac <upgrade_start+0x84>)
  303a76:	6819      	ldr	r1, [r3, #0]
  303a78:	b181      	cbz	r1, 303a9c <upgrade_start+0x74>
  303a7a:	480d      	ldr	r0, [pc, #52]	; (303ab0 <upgrade_start+0x88>)
  303a7c:	f000 fca6 	bl	3043cc <printf>
  303a80:	e00c      	b.n	303a9c <upgrade_start+0x74>
  303a82:	4668      	mov	r0, sp
  303a84:	f000 fe31 	bl	3046ea <timeout_check>
  303a88:	2800      	cmp	r0, #0
  303a8a:	d0d7      	beq.n	303a3c <upgrade_start+0x14>
  303a8c:	4b07      	ldr	r3, [pc, #28]	; (303aac <upgrade_start+0x84>)
  303a8e:	681b      	ldr	r3, [r3, #0]
  303a90:	b133      	cbz	r3, 303aa0 <upgrade_start+0x78>
  303a92:	4621      	mov	r1, r4
  303a94:	4807      	ldr	r0, [pc, #28]	; (303ab4 <upgrade_start+0x8c>)
  303a96:	f000 fc99 	bl	3043cc <printf>
  303a9a:	e001      	b.n	303aa0 <upgrade_start+0x78>
  303a9c:	f7ff ff2a 	bl	3038f4 <upgrade_processing>
  303aa0:	b002      	add	sp, #8
  303aa2:	bd70      	pop	{r4, r5, r6, pc}
  303aa4:	00309504 	eorseq	r9, r0, r4, lsl #10
  303aa8:	c0060000 	andgt	r0, r6, r0
  303aac:	0030809c 	mlaseq	r0, ip, r0, r8
  303ab0:	00301558 	eorseq	r1, r0, r8, asr r5
  303ab4:	00301529 	eorseq	r1, r0, r9, lsr #10

00303ab8 <crc32_no_comp>:
  303ab8:	4b0a      	ldr	r3, [pc, #40]	; (303ae4 <crc32_no_comp+0x2c>)
  303aba:	440a      	add	r2, r1
  303abc:	b510      	push	{r4, lr}
  303abe:	4291      	cmp	r1, r2
  303ac0:	d00f      	beq.n	303ae2 <crc32_no_comp+0x2a>
  303ac2:	f811 4b01 	ldrb.w	r4, [r1], #1
  303ac6:	4060      	eors	r0, r4
  303ac8:	f000 040f 	and.w	r4, r0, #15
  303acc:	f853 4024 	ldr.w	r4, [r3, r4, lsl #2]
  303ad0:	ea84 1010 	eor.w	r0, r4, r0, lsr #4
  303ad4:	f000 040f 	and.w	r4, r0, #15
  303ad8:	f853 4024 	ldr.w	r4, [r3, r4, lsl #2]
  303adc:	ea84 1010 	eor.w	r0, r4, r0, lsr #4
  303ae0:	e7ed      	b.n	303abe <crc32_no_comp+0x6>
  303ae2:	bd10      	pop	{r4, pc}
  303ae4:	00300718 	eorseq	r0, r0, r8, lsl r7

00303ae8 <crc32>:
  303ae8:	b508      	push	{r3, lr}
  303aea:	43c0      	mvns	r0, r0
  303aec:	f7ff ffe4 	bl	303ab8 <crc32_no_comp>
  303af0:	43c0      	mvns	r0, r0
  303af2:	bd08      	pop	{r3, pc}

00303af4 <crc16>:
  303af4:	b510      	push	{r4, lr}
  303af6:	4604      	mov	r4, r0
  303af8:	2000      	movs	r0, #0
  303afa:	4603      	mov	r3, r0
  303afc:	428b      	cmp	r3, r1
  303afe:	da0d      	bge.n	303b1c <crc16+0x28>
  303b00:	5ce2      	ldrb	r2, [r4, r3]
  303b02:	3301      	adds	r3, #1
  303b04:	ea82 2210 	eor.w	r2, r2, r0, lsr #8
  303b08:	ea82 1212 	eor.w	r2, r2, r2, lsr #4
  303b0c:	ea42 2000 	orr.w	r0, r2, r0, lsl #8
  303b10:	ea80 1042 	eor.w	r0, r0, r2, lsl #5
  303b14:	ea80 3002 	eor.w	r0, r0, r2, lsl #12
  303b18:	b280      	uxth	r0, r0
  303b1a:	e7ef      	b.n	303afc <crc16+0x8>
  303b1c:	bd10      	pop	{r4, pc}
  303b1e:	bf00      	nop

00303b20 <put_dec>:
  303b20:	e92d 4ff7 	stmdb	sp!, {r0, r1, r2, r4, r5, r6, r7, r8, r9, sl, fp, lr}
  303b24:	f10d 0b08 	add.w	fp, sp, #8
  303b28:	f8df 8170 	ldr.w	r8, [pc, #368]	; 303c9c <put_dec+0x17c>
  303b2c:	4682      	mov	sl, r0
  303b2e:	f04f 0900 	mov.w	r9, #0
  303b32:	e96b 2302 	strd	r2, r3, [fp, #-8]!
  303b36:	e9dd 4500 	ldrd	r4, r5, [sp]
  303b3a:	45a9      	cmp	r9, r5
  303b3c:	bf08      	it	eq
  303b3e:	45a0      	cmpeq	r8, r4
  303b40:	d351      	bcc.n	303be6 <put_dec+0xc6>
  303b42:	f3c4 1603 	ubfx	r6, r4, #4, #4
  303b46:	f3c4 2203 	ubfx	r2, r4, #8, #4
  303b4a:	0b23      	lsrs	r3, r4, #12
  303b4c:	18b0      	adds	r0, r6, r2
  303b4e:	f004 010f 	and.w	r1, r4, #15
  303b52:	4418      	add	r0, r3
  303b54:	2406      	movs	r4, #6
  303b56:	250a      	movs	r5, #10
  303b58:	fb04 1400 	mla	r4, r4, r0, r1
  303b5c:	21cd      	movs	r1, #205	; 0xcd
  303b5e:	fb01 f004 	mul.w	r0, r1, r4
  303b62:	0ac0      	lsrs	r0, r0, #11
  303b64:	fb05 4410 	mls	r4, r5, r0, r4
  303b68:	3430      	adds	r4, #48	; 0x30
  303b6a:	f88a 4000 	strb.w	r4, [sl]
  303b6e:	2409      	movs	r4, #9
  303b70:	fb04 6603 	mla	r6, r4, r3, r6
  303b74:	2405      	movs	r4, #5
  303b76:	fb04 6402 	mla	r4, r4, r2, r6
  303b7a:	1820      	adds	r0, r4, r0
  303b7c:	d102      	bne.n	303b84 <put_dec+0x64>
  303b7e:	f10a 0001 	add.w	r0, sl, #1
  303b82:	e086      	b.n	303c92 <put_dec+0x172>
  303b84:	4341      	muls	r1, r0
  303b86:	0ac9      	lsrs	r1, r1, #11
  303b88:	fb05 0011 	mls	r0, r5, r1, r0
  303b8c:	eb11 0242 	adds.w	r2, r1, r2, lsl #1
  303b90:	f100 0030 	add.w	r0, r0, #48	; 0x30
  303b94:	f88a 0001 	strb.w	r0, [sl, #1]
  303b98:	d103      	bne.n	303ba2 <put_dec+0x82>
  303b9a:	b913      	cbnz	r3, 303ba2 <put_dec+0x82>
  303b9c:	f10a 0002 	add.w	r0, sl, #2
  303ba0:	e077      	b.n	303c92 <put_dec+0x172>
  303ba2:	210d      	movs	r1, #13
  303ba4:	200a      	movs	r0, #10
  303ba6:	4351      	muls	r1, r2
  303ba8:	09c9      	lsrs	r1, r1, #7
  303baa:	fb00 2211 	mls	r2, r0, r1, r2
  303bae:	eb11 0383 	adds.w	r3, r1, r3, lsl #2
  303bb2:	f102 0230 	add.w	r2, r2, #48	; 0x30
  303bb6:	f88a 2002 	strb.w	r2, [sl, #2]
  303bba:	d102      	bne.n	303bc2 <put_dec+0xa2>
  303bbc:	f10a 0003 	add.w	r0, sl, #3
  303bc0:	e067      	b.n	303c92 <put_dec+0x172>
  303bc2:	22cd      	movs	r2, #205	; 0xcd
  303bc4:	435a      	muls	r2, r3
  303bc6:	0ad2      	lsrs	r2, r2, #11
  303bc8:	fb00 3312 	mls	r3, r0, r2, r3
  303bcc:	3330      	adds	r3, #48	; 0x30
  303bce:	f88a 3003 	strb.w	r3, [sl, #3]
  303bd2:	b912      	cbnz	r2, 303bda <put_dec+0xba>
  303bd4:	f10a 0004 	add.w	r0, sl, #4
  303bd8:	e05b      	b.n	303c92 <put_dec+0x172>
  303bda:	3230      	adds	r2, #48	; 0x30
  303bdc:	f10a 0005 	add.w	r0, sl, #5
  303be0:	f88a 2004 	strb.w	r2, [sl, #4]
  303be4:	e055      	b.n	303c92 <put_dec+0x172>
  303be6:	462e      	mov	r6, r5
  303be8:	2700      	movs	r7, #0
  303bea:	ea56 0307 	orrs.w	r3, r6, r7
  303bee:	d10c      	bne.n	303c0a <put_dec+0xea>
  303bf0:	4620      	mov	r0, r4
  303bf2:	4929      	ldr	r1, [pc, #164]	; (303c98 <put_dec+0x178>)
  303bf4:	f004 f9ba 	bl	307f6c <__aeabi_uidivmod>
  303bf8:	4620      	mov	r0, r4
  303bfa:	460d      	mov	r5, r1
  303bfc:	4926      	ldr	r1, [pc, #152]	; (303c98 <put_dec+0x178>)
  303bfe:	f004 f96d 	bl	307edc <__aeabi_uidiv>
  303c02:	2100      	movs	r1, #0
  303c04:	e9cd 0100 	strd	r0, r1, [sp]
  303c08:	e004      	b.n	303c14 <put_dec+0xf4>
  303c0a:	4668      	mov	r0, sp
  303c0c:	4922      	ldr	r1, [pc, #136]	; (303c98 <put_dec+0x178>)
  303c0e:	f7fe ff4f 	bl	302ab0 <__div64_32>
  303c12:	4605      	mov	r5, r0
  303c14:	f3c5 2003 	ubfx	r0, r5, #8, #4
  303c18:	f3c5 1c03 	ubfx	ip, r5, #4, #4
  303c1c:	0b29      	lsrs	r1, r5, #12
  303c1e:	eb0c 0200 	add.w	r2, ip, r0
  303c22:	440a      	add	r2, r1
  303c24:	f005 030f 	and.w	r3, r5, #15
  303c28:	2506      	movs	r5, #6
  303c2a:	f10a 0a05 	add.w	sl, sl, #5
  303c2e:	fb05 3502 	mla	r5, r5, r2, r3
  303c32:	22cd      	movs	r2, #205	; 0xcd
  303c34:	230a      	movs	r3, #10
  303c36:	fb02 f405 	mul.w	r4, r2, r5
  303c3a:	0ae4      	lsrs	r4, r4, #11
  303c3c:	fb03 5514 	mls	r5, r3, r4, r5
  303c40:	3530      	adds	r5, #48	; 0x30
  303c42:	f80a 5c05 	strb.w	r5, [sl, #-5]
  303c46:	2509      	movs	r5, #9
  303c48:	fb05 cc01 	mla	ip, r5, r1, ip
  303c4c:	2505      	movs	r5, #5
  303c4e:	fb05 c500 	mla	r5, r5, r0, ip
  303c52:	4425      	add	r5, r4
  303c54:	fb02 f405 	mul.w	r4, r2, r5
  303c58:	0ae4      	lsrs	r4, r4, #11
  303c5a:	eb04 0040 	add.w	r0, r4, r0, lsl #1
  303c5e:	fb03 5514 	mls	r5, r3, r4, r5
  303c62:	240d      	movs	r4, #13
  303c64:	4344      	muls	r4, r0
  303c66:	3530      	adds	r5, #48	; 0x30
  303c68:	f80a 5c04 	strb.w	r5, [sl, #-4]
  303c6c:	09e4      	lsrs	r4, r4, #7
  303c6e:	eb04 0181 	add.w	r1, r4, r1, lsl #2
  303c72:	fb03 0014 	mls	r0, r3, r4, r0
  303c76:	434a      	muls	r2, r1
  303c78:	3030      	adds	r0, #48	; 0x30
  303c7a:	f80a 0c03 	strb.w	r0, [sl, #-3]
  303c7e:	0ad2      	lsrs	r2, r2, #11
  303c80:	fb03 1112 	mls	r1, r3, r2, r1
  303c84:	3230      	adds	r2, #48	; 0x30
  303c86:	f80a 2c01 	strb.w	r2, [sl, #-1]
  303c8a:	3130      	adds	r1, #48	; 0x30
  303c8c:	f80a 1c02 	strb.w	r1, [sl, #-2]
  303c90:	e751      	b.n	303b36 <put_dec+0x16>
  303c92:	b003      	add	sp, #12
  303c94:	e8bd 8ff0 	ldmia.w	sp!, {r4, r5, r6, r7, r8, r9, sl, fp, pc}
  303c98:	000186a0 	andeq	r8, r1, r0, lsr #13
  303c9c:	0001869f 	muleq	r1, pc, r6	; <UNPREDICTABLE>

00303ca0 <number.isra.1>:
  303ca0:	e92d 4ff0 	stmdb	sp!, {r4, r5, r6, r7, r8, r9, sl, fp, lr}
  303ca4:	b095      	sub	sp, #84	; 0x54
  303ca6:	4604      	mov	r4, r0
  303ca8:	9d21      	ldr	r5, [sp, #132]	; 0x84
  303caa:	f8dd 8078 	ldr.w	r8, [sp, #120]	; 0x78
  303cae:	f015 0a40 	ands.w	sl, r5, #64	; 0x40
  303cb2:	9e1f      	ldr	r6, [sp, #124]	; 0x7c
  303cb4:	d004      	beq.n	303cc0 <number.isra.1+0x20>
  303cb6:	f1b8 0a0a 	subs.w	sl, r8, #10
  303cba:	bf18      	it	ne
  303cbc:	f04f 0a01 	movne.w	sl, #1
  303cc0:	06e8      	lsls	r0, r5, #27
  303cc2:	f005 0b20 	and.w	fp, r5, #32
  303cc6:	bf48      	it	mi
  303cc8:	f025 0501 	bicmi.w	r5, r5, #1
  303ccc:	f015 0902 	ands.w	r9, r5, #2
  303cd0:	fa5f fb8b 	uxtb.w	fp, fp
  303cd4:	d017      	beq.n	303d06 <number.isra.1+0x66>
  303cd6:	2a00      	cmp	r2, #0
  303cd8:	f173 0100 	sbcs.w	r1, r3, #0
  303cdc:	da06      	bge.n	303cec <number.isra.1+0x4c>
  303cde:	4252      	negs	r2, r2
  303ce0:	eb63 0343 	sbc.w	r3, r3, r3, lsl #1
  303ce4:	3e01      	subs	r6, #1
  303ce6:	f04f 092d 	mov.w	r9, #45	; 0x2d
  303cea:	e00c      	b.n	303d06 <number.isra.1+0x66>
  303cec:	0769      	lsls	r1, r5, #29
  303cee:	d503      	bpl.n	303cf8 <number.isra.1+0x58>
  303cf0:	3e01      	subs	r6, #1
  303cf2:	f04f 092b 	mov.w	r9, #43	; 0x2b
  303cf6:	e006      	b.n	303d06 <number.isra.1+0x66>
  303cf8:	f015 0908 	ands.w	r9, r5, #8
  303cfc:	bf1c      	itt	ne
  303cfe:	f106 36ff 	addne.w	r6, r6, #4294967295	; 0xffffffff
  303d02:	f04f 0920 	movne.w	r9, #32
  303d06:	f1ba 0f00 	cmp.w	sl, #0
  303d0a:	d00a      	beq.n	303d22 <number.isra.1+0x82>
  303d0c:	f1b8 0f10 	cmp.w	r8, #16
  303d10:	d001      	beq.n	303d16 <number.isra.1+0x76>
  303d12:	3e01      	subs	r6, #1
  303d14:	e005      	b.n	303d22 <number.isra.1+0x82>
  303d16:	ea52 0103 	orrs.w	r1, r2, r3
  303d1a:	f1a6 0602 	sub.w	r6, r6, #2
  303d1e:	d003      	beq.n	303d28 <number.isra.1+0x88>
  303d20:	e00a      	b.n	303d38 <number.isra.1+0x98>
  303d22:	ea52 0103 	orrs.w	r1, r2, r3
  303d26:	d104      	bne.n	303d32 <number.isra.1+0x92>
  303d28:	2330      	movs	r3, #48	; 0x30
  303d2a:	2701      	movs	r7, #1
  303d2c:	f88d 300c 	strb.w	r3, [sp, #12]
  303d30:	e030      	b.n	303d94 <number.isra.1+0xf4>
  303d32:	f1b8 0f0a 	cmp.w	r8, #10
  303d36:	d028      	beq.n	303d8a <number.isra.1+0xea>
  303d38:	f108 3cff 	add.w	ip, r8, #4294967295	; 0xffffffff
  303d3c:	2700      	movs	r7, #0
  303d3e:	f1b8 0f10 	cmp.w	r8, #16
  303d42:	bf0c      	ite	eq
  303d44:	f04f 0e04 	moveq.w	lr, #4
  303d48:	f04f 0e03 	movne.w	lr, #3
  303d4c:	f8cd e004 	str.w	lr, [sp, #4]
  303d50:	b2d1      	uxtb	r1, r2
  303d52:	f8df e104 	ldr.w	lr, [pc, #260]	; 303e58 <number.isra.1+0x1b8>
  303d56:	ea01 010c 	and.w	r1, r1, ip
  303d5a:	3701      	adds	r7, #1
  303d5c:	a803      	add	r0, sp, #12
  303d5e:	4438      	add	r0, r7
  303d60:	f81e 1001 	ldrb.w	r1, [lr, r1]
  303d64:	ea4b 0101 	orr.w	r1, fp, r1
  303d68:	f800 1c01 	strb.w	r1, [r0, #-1]
  303d6c:	4610      	mov	r0, r2
  303d6e:	4619      	mov	r1, r3
  303d70:	9a01      	ldr	r2, [sp, #4]
  303d72:	f8cd c000 	str.w	ip, [sp]
  303d76:	f004 f979 	bl	30806c <__aeabi_llsr>
  303d7a:	f8dd c000 	ldr.w	ip, [sp]
  303d7e:	4602      	mov	r2, r0
  303d80:	460b      	mov	r3, r1
  303d82:	ea52 0103 	orrs.w	r1, r2, r3
  303d86:	d1e3      	bne.n	303d50 <number.isra.1+0xb0>
  303d88:	e004      	b.n	303d94 <number.isra.1+0xf4>
  303d8a:	af03      	add	r7, sp, #12
  303d8c:	4638      	mov	r0, r7
  303d8e:	f7ff fec7 	bl	303b20 <put_dec>
  303d92:	1bc7      	subs	r7, r0, r7
  303d94:	9b20      	ldr	r3, [sp, #128]	; 0x80
  303d96:	429f      	cmp	r7, r3
  303d98:	bfa8      	it	ge
  303d9a:	463b      	movge	r3, r7
  303d9c:	f015 0f11 	tst.w	r5, #17
  303da0:	ebc3 0606 	rsb	r6, r3, r6
  303da4:	d10c      	bne.n	303dc0 <number.isra.1+0x120>
  303da6:	4632      	mov	r2, r6
  303da8:	4621      	mov	r1, r4
  303daa:	2020      	movs	r0, #32
  303dac:	3a01      	subs	r2, #1
  303dae:	d402      	bmi.n	303db6 <number.isra.1+0x116>
  303db0:	f801 0b01 	strb.w	r0, [r1], #1
  303db4:	e7fa      	b.n	303dac <number.isra.1+0x10c>
  303db6:	ea26 72e6 	bic.w	r2, r6, r6, asr #31
  303dba:	3e01      	subs	r6, #1
  303dbc:	4414      	add	r4, r2
  303dbe:	1ab6      	subs	r6, r6, r2
  303dc0:	f1b9 0f00 	cmp.w	r9, #0
  303dc4:	d002      	beq.n	303dcc <number.isra.1+0x12c>
  303dc6:	f884 9000 	strb.w	r9, [r4]
  303dca:	3401      	adds	r4, #1
  303dcc:	f1ba 0f00 	cmp.w	sl, #0
  303dd0:	d00c      	beq.n	303dec <number.isra.1+0x14c>
  303dd2:	f1b8 0f10 	cmp.w	r8, #16
  303dd6:	f04f 0230 	mov.w	r2, #48	; 0x30
  303dda:	bf08      	it	eq
  303ddc:	f04b 0b58 	orreq.w	fp, fp, #88	; 0x58
  303de0:	7022      	strb	r2, [r4, #0]
  303de2:	bf0a      	itet	eq
  303de4:	f884 b001 	strbeq.w	fp, [r4, #1]
  303de8:	3401      	addne	r4, #1
  303dea:	3402      	addeq	r4, #2
  303dec:	06ea      	lsls	r2, r5, #27
  303dee:	d410      	bmi.n	303e12 <number.isra.1+0x172>
  303df0:	f015 0f01 	tst.w	r5, #1
  303df4:	4632      	mov	r2, r6
  303df6:	bf0c      	ite	eq
  303df8:	2020      	moveq	r0, #32
  303dfa:	2030      	movne	r0, #48	; 0x30
  303dfc:	4621      	mov	r1, r4
  303dfe:	3a01      	subs	r2, #1
  303e00:	d402      	bmi.n	303e08 <number.isra.1+0x168>
  303e02:	f801 0b01 	strb.w	r0, [r1], #1
  303e06:	e7fa      	b.n	303dfe <number.isra.1+0x15e>
  303e08:	ea26 72e6 	bic.w	r2, r6, r6, asr #31
  303e0c:	3e01      	subs	r6, #1
  303e0e:	4414      	add	r4, r2
  303e10:	1ab6      	subs	r6, r6, r2
  303e12:	2230      	movs	r2, #48	; 0x30
  303e14:	3b01      	subs	r3, #1
  303e16:	429f      	cmp	r7, r3
  303e18:	dc02      	bgt.n	303e20 <number.isra.1+0x180>
  303e1a:	f804 2b01 	strb.w	r2, [r4], #1
  303e1e:	e7f9      	b.n	303e14 <number.isra.1+0x174>
  303e20:	4622      	mov	r2, r4
  303e22:	463b      	mov	r3, r7
  303e24:	3b01      	subs	r3, #1
  303e26:	d404      	bmi.n	303e32 <number.isra.1+0x192>
  303e28:	a903      	add	r1, sp, #12
  303e2a:	5c59      	ldrb	r1, [r3, r1]
  303e2c:	f804 1b01 	strb.w	r1, [r4], #1
  303e30:	e7f8      	b.n	303e24 <number.isra.1+0x184>
  303e32:	2f00      	cmp	r7, #0
  303e34:	bfac      	ite	ge
  303e36:	19d0      	addge	r0, r2, r7
  303e38:	1c10      	addlt	r0, r2, #0
  303e3a:	4633      	mov	r3, r6
  303e3c:	2120      	movs	r1, #32
  303e3e:	4602      	mov	r2, r0
  303e40:	3b01      	subs	r3, #1
  303e42:	d402      	bmi.n	303e4a <number.isra.1+0x1aa>
  303e44:	f802 1b01 	strb.w	r1, [r2], #1
  303e48:	e7fa      	b.n	303e40 <number.isra.1+0x1a0>
  303e4a:	2e00      	cmp	r6, #0
  303e4c:	bfa8      	it	ge
  303e4e:	1980      	addge	r0, r0, r6
  303e50:	b015      	add	sp, #84	; 0x54
  303e52:	e8bd 8ff0 	ldmia.w	sp!, {r4, r5, r6, r7, r8, r9, sl, fp, pc}
  303e56:	bf00      	nop
  303e58:	00300758 	eorseq	r0, r0, r8, asr r7

00303e5c <vsnprintf_internal.isra.3>:
  303e5c:	e92d 4ff0 	stmdb	sp!, {r4, r5, r6, r7, r8, r9, sl, fp, lr}
  303e60:	b085      	sub	sp, #20
  303e62:	4fb9      	ldr	r7, [pc, #740]	; (304148 <vsnprintf_internal.isra.3+0x2ec>)
  303e64:	4606      	mov	r6, r0
  303e66:	4688      	mov	r8, r1
  303e68:	4604      	mov	r4, r0
  303e6a:	f898 3000 	ldrb.w	r3, [r8]
  303e6e:	2b00      	cmp	r3, #0
  303e70:	f000 8181 	beq.w	304176 <vsnprintf_internal.isra.3+0x31a>
  303e74:	2b25      	cmp	r3, #37	; 0x25
  303e76:	f040 812b 	bne.w	3040d0 <vsnprintf_internal.isra.3+0x274>
  303e7a:	2500      	movs	r5, #0
  303e7c:	f898 3001 	ldrb.w	r3, [r8, #1]
  303e80:	f108 0101 	add.w	r1, r8, #1
  303e84:	2b2b      	cmp	r3, #43	; 0x2b
  303e86:	d012      	beq.n	303eae <vsnprintf_internal.isra.3+0x52>
  303e88:	d807      	bhi.n	303e9a <vsnprintf_internal.isra.3+0x3e>
  303e8a:	2b20      	cmp	r3, #32
  303e8c:	d012      	beq.n	303eb4 <vsnprintf_internal.isra.3+0x58>
  303e8e:	2b23      	cmp	r3, #35	; 0x23
  303e90:	d113      	bne.n	303eba <vsnprintf_internal.isra.3+0x5e>
  303e92:	f045 0540 	orr.w	r5, r5, #64	; 0x40
  303e96:	4688      	mov	r8, r1
  303e98:	e7f0      	b.n	303e7c <vsnprintf_internal.isra.3+0x20>
  303e9a:	2b2d      	cmp	r3, #45	; 0x2d
  303e9c:	d004      	beq.n	303ea8 <vsnprintf_internal.isra.3+0x4c>
  303e9e:	2b30      	cmp	r3, #48	; 0x30
  303ea0:	d10b      	bne.n	303eba <vsnprintf_internal.isra.3+0x5e>
  303ea2:	f045 0501 	orr.w	r5, r5, #1
  303ea6:	e7f6      	b.n	303e96 <vsnprintf_internal.isra.3+0x3a>
  303ea8:	f045 0510 	orr.w	r5, r5, #16
  303eac:	e7f3      	b.n	303e96 <vsnprintf_internal.isra.3+0x3a>
  303eae:	f045 0504 	orr.w	r5, r5, #4
  303eb2:	e7f0      	b.n	303e96 <vsnprintf_internal.isra.3+0x3a>
  303eb4:	f045 0508 	orr.w	r5, r5, #8
  303eb8:	e7ed      	b.n	303e96 <vsnprintf_internal.isra.3+0x3a>
  303eba:	f1a3 0030 	sub.w	r0, r3, #48	; 0x30
  303ebe:	b2c0      	uxtb	r0, r0
  303ec0:	2809      	cmp	r0, #9
  303ec2:	d813      	bhi.n	303eec <vsnprintf_internal.isra.3+0x90>
  303ec4:	460b      	mov	r3, r1
  303ec6:	f04f 0900 	mov.w	r9, #0
  303eca:	f04f 080a 	mov.w	r8, #10
  303ece:	4619      	mov	r1, r3
  303ed0:	f813 0b01 	ldrb.w	r0, [r3], #1
  303ed4:	f1a0 0c30 	sub.w	ip, r0, #48	; 0x30
  303ed8:	fa5f fc8c 	uxtb.w	ip, ip
  303edc:	f1bc 0f09 	cmp.w	ip, #9
  303ee0:	d817      	bhi.n	303f12 <vsnprintf_internal.isra.3+0xb6>
  303ee2:	fb08 0909 	mla	r9, r8, r9, r0
  303ee6:	f1a9 0930 	sub.w	r9, r9, #48	; 0x30
  303eea:	e7f0      	b.n	303ece <vsnprintf_internal.isra.3+0x72>
  303eec:	2b2a      	cmp	r3, #42	; 0x2a
  303eee:	d10c      	bne.n	303f0a <vsnprintf_internal.isra.3+0xae>
  303ef0:	f8d2 9000 	ldr.w	r9, [r2]
  303ef4:	f108 0102 	add.w	r1, r8, #2
  303ef8:	1d13      	adds	r3, r2, #4
  303efa:	f1b9 0f00 	cmp.w	r9, #0
  303efe:	da07      	bge.n	303f10 <vsnprintf_internal.isra.3+0xb4>
  303f00:	f1c9 0900 	rsb	r9, r9, #0
  303f04:	f045 0510 	orr.w	r5, r5, #16
  303f08:	e002      	b.n	303f10 <vsnprintf_internal.isra.3+0xb4>
  303f0a:	f04f 39ff 	mov.w	r9, #4294967295	; 0xffffffff
  303f0e:	e000      	b.n	303f12 <vsnprintf_internal.isra.3+0xb6>
  303f10:	461a      	mov	r2, r3
  303f12:	780b      	ldrb	r3, [r1, #0]
  303f14:	2b2e      	cmp	r3, #46	; 0x2e
  303f16:	d126      	bne.n	303f66 <vsnprintf_internal.isra.3+0x10a>
  303f18:	7848      	ldrb	r0, [r1, #1]
  303f1a:	1c4b      	adds	r3, r1, #1
  303f1c:	f1a0 0c30 	sub.w	ip, r0, #48	; 0x30
  303f20:	fa5f fc8c 	uxtb.w	ip, ip
  303f24:	f1bc 0f09 	cmp.w	ip, #9
  303f28:	d814      	bhi.n	303f54 <vsnprintf_internal.isra.3+0xf8>
  303f2a:	469c      	mov	ip, r3
  303f2c:	2100      	movs	r1, #0
  303f2e:	f04f 0a0a 	mov.w	sl, #10
  303f32:	4663      	mov	r3, ip
  303f34:	f10c 0c01 	add.w	ip, ip, #1
  303f38:	7818      	ldrb	r0, [r3, #0]
  303f3a:	f1a0 0830 	sub.w	r8, r0, #48	; 0x30
  303f3e:	fa5f f888 	uxtb.w	r8, r8
  303f42:	f1b8 0f09 	cmp.w	r8, #9
  303f46:	d803      	bhi.n	303f50 <vsnprintf_internal.isra.3+0xf4>
  303f48:	fb0a 0101 	mla	r1, sl, r1, r0
  303f4c:	3930      	subs	r1, #48	; 0x30
  303f4e:	e7f0      	b.n	303f32 <vsnprintf_internal.isra.3+0xd6>
  303f50:	4610      	mov	r0, r2
  303f52:	e006      	b.n	303f62 <vsnprintf_internal.isra.3+0x106>
  303f54:	282a      	cmp	r0, #42	; 0x2a
  303f56:	d10b      	bne.n	303f70 <vsnprintf_internal.isra.3+0x114>
  303f58:	1c8b      	adds	r3, r1, #2
  303f5a:	6811      	ldr	r1, [r2, #0]
  303f5c:	1d10      	adds	r0, r2, #4
  303f5e:	2900      	cmp	r1, #0
  303f60:	db05      	blt.n	303f6e <vsnprintf_internal.isra.3+0x112>
  303f62:	4602      	mov	r2, r0
  303f64:	e005      	b.n	303f72 <vsnprintf_internal.isra.3+0x116>
  303f66:	460b      	mov	r3, r1
  303f68:	f04f 31ff 	mov.w	r1, #4294967295	; 0xffffffff
  303f6c:	e001      	b.n	303f72 <vsnprintf_internal.isra.3+0x116>
  303f6e:	4602      	mov	r2, r0
  303f70:	2100      	movs	r1, #0
  303f72:	7818      	ldrb	r0, [r3, #0]
  303f74:	2868      	cmp	r0, #104	; 0x68
  303f76:	d009      	beq.n	303f8c <vsnprintf_internal.isra.3+0x130>
  303f78:	f000 0cdf 	and.w	ip, r0, #223	; 0xdf
  303f7c:	f1bc 0f4c 	cmp.w	ip, #76	; 0x4c
  303f80:	d004      	beq.n	303f8c <vsnprintf_internal.isra.3+0x130>
  303f82:	f1bc 0f5a 	cmp.w	ip, #90	; 0x5a
  303f86:	d001      	beq.n	303f8c <vsnprintf_internal.isra.3+0x130>
  303f88:	2874      	cmp	r0, #116	; 0x74
  303f8a:	d10c      	bne.n	303fa6 <vsnprintf_internal.isra.3+0x14a>
  303f8c:	286c      	cmp	r0, #108	; 0x6c
  303f8e:	f103 0801 	add.w	r8, r3, #1
  303f92:	d10b      	bne.n	303fac <vsnprintf_internal.isra.3+0x150>
  303f94:	f893 c001 	ldrb.w	ip, [r3, #1]
  303f98:	f1bc 0f6c 	cmp.w	ip, #108	; 0x6c
  303f9c:	d106      	bne.n	303fac <vsnprintf_internal.isra.3+0x150>
  303f9e:	f103 0802 	add.w	r8, r3, #2
  303fa2:	204c      	movs	r0, #76	; 0x4c
  303fa4:	e002      	b.n	303fac <vsnprintf_internal.isra.3+0x150>
  303fa6:	4698      	mov	r8, r3
  303fa8:	f04f 30ff 	mov.w	r0, #4294967295	; 0xffffffff
  303fac:	f898 3000 	ldrb.w	r3, [r8]
  303fb0:	2b6e      	cmp	r3, #110	; 0x6e
  303fb2:	f000 8087 	beq.w	3040c4 <vsnprintf_internal.isra.3+0x268>
  303fb6:	d810      	bhi.n	303fda <vsnprintf_internal.isra.3+0x17e>
  303fb8:	2b63      	cmp	r3, #99	; 0x63
  303fba:	d034      	beq.n	304026 <vsnprintf_internal.isra.3+0x1ca>
  303fbc:	d806      	bhi.n	303fcc <vsnprintf_internal.isra.3+0x170>
  303fbe:	2b25      	cmp	r3, #37	; 0x25
  303fc0:	f000 8086 	beq.w	3040d0 <vsnprintf_internal.isra.3+0x274>
  303fc4:	2b58      	cmp	r3, #88	; 0x58
  303fc6:	f000 809b 	beq.w	304100 <vsnprintf_internal.isra.3+0x2a4>
  303fca:	e08a      	b.n	3040e2 <vsnprintf_internal.isra.3+0x286>
  303fcc:	2b64      	cmp	r3, #100	; 0x64
  303fce:	f000 8085 	beq.w	3040dc <vsnprintf_internal.isra.3+0x280>
  303fd2:	2b69      	cmp	r3, #105	; 0x69
  303fd4:	f000 8082 	beq.w	3040dc <vsnprintf_internal.isra.3+0x280>
  303fd8:	e083      	b.n	3040e2 <vsnprintf_internal.isra.3+0x286>
  303fda:	2b73      	cmp	r3, #115	; 0x73
  303fdc:	d03c      	beq.n	304058 <vsnprintf_internal.isra.3+0x1fc>
  303fde:	d81b      	bhi.n	304018 <vsnprintf_internal.isra.3+0x1bc>
  303fe0:	2b6f      	cmp	r3, #111	; 0x6f
  303fe2:	d078      	beq.n	3040d6 <vsnprintf_internal.isra.3+0x27a>
  303fe4:	2b70      	cmp	r3, #112	; 0x70
  303fe6:	d17c      	bne.n	3040e2 <vsnprintf_internal.isra.3+0x286>
  303fe8:	f1b9 3fff 	cmp.w	r9, #4294967295	; 0xffffffff
  303fec:	f04f 0010 	mov.w	r0, #16
  303ff0:	bf12      	itee	ne
  303ff2:	f045 0520 	orrne.w	r5, r5, #32
  303ff6:	f045 0521 	orreq.w	r5, r5, #33	; 0x21
  303ffa:	f04f 0908 	moveq.w	r9, #8
  303ffe:	f102 0a04 	add.w	sl, r2, #4
  304002:	2300      	movs	r3, #0
  304004:	6812      	ldr	r2, [r2, #0]
  304006:	e88d 0201 	stmia.w	sp, {r0, r9}
  30400a:	4620      	mov	r0, r4
  30400c:	9102      	str	r1, [sp, #8]
  30400e:	9503      	str	r5, [sp, #12]
  304010:	f7ff fe46 	bl	303ca0 <number.isra.1>
  304014:	4604      	mov	r4, r0
  304016:	e04d      	b.n	3040b4 <vsnprintf_internal.isra.3+0x258>
  304018:	2b75      	cmp	r3, #117	; 0x75
  30401a:	d06e      	beq.n	3040fa <vsnprintf_internal.isra.3+0x29e>
  30401c:	2b78      	cmp	r3, #120	; 0x78
  30401e:	d160      	bne.n	3040e2 <vsnprintf_internal.isra.3+0x286>
  304020:	f045 0520 	orr.w	r5, r5, #32
  304024:	e06c      	b.n	304100 <vsnprintf_internal.isra.3+0x2a4>
  304026:	06e8      	lsls	r0, r5, #27
  304028:	d408      	bmi.n	30403c <vsnprintf_internal.isra.3+0x1e0>
  30402a:	2320      	movs	r3, #32
  30402c:	f109 39ff 	add.w	r9, r9, #4294967295	; 0xffffffff
  304030:	f1b9 0f00 	cmp.w	r9, #0
  304034:	dd02      	ble.n	30403c <vsnprintf_internal.isra.3+0x1e0>
  304036:	f804 3b01 	strb.w	r3, [r4], #1
  30403a:	e7f7      	b.n	30402c <vsnprintf_internal.isra.3+0x1d0>
  30403c:	1d13      	adds	r3, r2, #4
  30403e:	6812      	ldr	r2, [r2, #0]
  304040:	3401      	adds	r4, #1
  304042:	f804 2c01 	strb.w	r2, [r4, #-1]
  304046:	2220      	movs	r2, #32
  304048:	f109 39ff 	add.w	r9, r9, #4294967295	; 0xffffffff
  30404c:	f1b9 0f00 	cmp.w	r9, #0
  304050:	dd3c      	ble.n	3040cc <vsnprintf_internal.isra.3+0x270>
  304052:	f804 2b01 	strb.w	r2, [r4], #1
  304056:	e7f7      	b.n	304048 <vsnprintf_internal.isra.3+0x1ec>
  304058:	f8d2 a000 	ldr.w	sl, [r2]
  30405c:	f102 0b04 	add.w	fp, r2, #4
  304060:	4b3a      	ldr	r3, [pc, #232]	; (30414c <vsnprintf_internal.isra.3+0x2f0>)
  304062:	f1ba 0f00 	cmp.w	sl, #0
  304066:	bf08      	it	eq
  304068:	469a      	moveq	sl, r3
  30406a:	4650      	mov	r0, sl
  30406c:	f7fe fe5d 	bl	302d2a <strnlen>
  304070:	06e9      	lsls	r1, r5, #27
  304072:	d409      	bmi.n	304088 <vsnprintf_internal.isra.3+0x22c>
  304074:	2120      	movs	r1, #32
  304076:	f109 39ff 	add.w	r9, r9, #4294967295	; 0xffffffff
  30407a:	f109 0201 	add.w	r2, r9, #1
  30407e:	4290      	cmp	r0, r2
  304080:	da02      	bge.n	304088 <vsnprintf_internal.isra.3+0x22c>
  304082:	f804 1b01 	strb.w	r1, [r4], #1
  304086:	e7f6      	b.n	304076 <vsnprintf_internal.isra.3+0x21a>
  304088:	2200      	movs	r2, #0
  30408a:	4282      	cmp	r2, r0
  30408c:	da04      	bge.n	304098 <vsnprintf_internal.isra.3+0x23c>
  30408e:	f81a 1002 	ldrb.w	r1, [sl, r2]
  304092:	54a1      	strb	r1, [r4, r2]
  304094:	3201      	adds	r2, #1
  304096:	e7f8      	b.n	30408a <vsnprintf_internal.isra.3+0x22e>
  304098:	2800      	cmp	r0, #0
  30409a:	bfa8      	it	ge
  30409c:	1824      	addge	r4, r4, r0
  30409e:	2120      	movs	r1, #32
  3040a0:	44a1      	add	r9, r4
  3040a2:	ebc4 0209 	rsb	r2, r4, r9
  3040a6:	4290      	cmp	r0, r2
  3040a8:	da02      	bge.n	3040b0 <vsnprintf_internal.isra.3+0x254>
  3040aa:	f804 1b01 	strb.w	r1, [r4], #1
  3040ae:	e7f8      	b.n	3040a2 <vsnprintf_internal.isra.3+0x246>
  3040b0:	465a      	mov	r2, fp
  3040b2:	e05d      	b.n	304170 <vsnprintf_internal.isra.3+0x314>
  3040b4:	f898 3001 	ldrb.w	r3, [r8, #1]
  3040b8:	5cfb      	ldrb	r3, [r7, r3]
  3040ba:	075a      	lsls	r2, r3, #29
  3040bc:	d057      	beq.n	30416e <vsnprintf_internal.isra.3+0x312>
  3040be:	f108 0801 	add.w	r8, r8, #1
  3040c2:	e7f7      	b.n	3040b4 <vsnprintf_internal.isra.3+0x258>
  3040c4:	1d13      	adds	r3, r2, #4
  3040c6:	6812      	ldr	r2, [r2, #0]
  3040c8:	1ba1      	subs	r1, r4, r6
  3040ca:	6011      	str	r1, [r2, #0]
  3040cc:	461a      	mov	r2, r3
  3040ce:	e04f      	b.n	304170 <vsnprintf_internal.isra.3+0x314>
  3040d0:	7023      	strb	r3, [r4, #0]
  3040d2:	3401      	adds	r4, #1
  3040d4:	e04c      	b.n	304170 <vsnprintf_internal.isra.3+0x314>
  3040d6:	f04f 0e08 	mov.w	lr, #8
  3040da:	e013      	b.n	304104 <vsnprintf_internal.isra.3+0x2a8>
  3040dc:	f045 0502 	orr.w	r5, r5, #2
  3040e0:	e00b      	b.n	3040fa <vsnprintf_internal.isra.3+0x29e>
  3040e2:	2325      	movs	r3, #37	; 0x25
  3040e4:	7023      	strb	r3, [r4, #0]
  3040e6:	f898 3000 	ldrb.w	r3, [r8]
  3040ea:	b113      	cbz	r3, 3040f2 <vsnprintf_internal.isra.3+0x296>
  3040ec:	7063      	strb	r3, [r4, #1]
  3040ee:	3402      	adds	r4, #2
  3040f0:	e03e      	b.n	304170 <vsnprintf_internal.isra.3+0x314>
  3040f2:	3401      	adds	r4, #1
  3040f4:	f108 38ff 	add.w	r8, r8, #4294967295	; 0xffffffff
  3040f8:	e03a      	b.n	304170 <vsnprintf_internal.isra.3+0x314>
  3040fa:	f04f 0e0a 	mov.w	lr, #10
  3040fe:	e001      	b.n	304104 <vsnprintf_internal.isra.3+0x2a8>
  304100:	f04f 0e10 	mov.w	lr, #16
  304104:	284c      	cmp	r0, #76	; 0x4c
  304106:	d107      	bne.n	304118 <vsnprintf_internal.isra.3+0x2bc>
  304108:	3207      	adds	r2, #7
  30410a:	f022 0207 	bic.w	r2, r2, #7
  30410e:	f102 0a08 	add.w	sl, r2, #8
  304112:	e9d2 2300 	ldrd	r2, r3, [r2]
  304116:	e020      	b.n	30415a <vsnprintf_internal.isra.3+0x2fe>
  304118:	286c      	cmp	r0, #108	; 0x6c
  30411a:	f102 0a04 	add.w	sl, r2, #4
  30411e:	d103      	bne.n	304128 <vsnprintf_internal.isra.3+0x2cc>
  304120:	07ab      	lsls	r3, r5, #30
  304122:	6812      	ldr	r2, [r2, #0]
  304124:	d418      	bmi.n	304158 <vsnprintf_internal.isra.3+0x2fc>
  304126:	e004      	b.n	304132 <vsnprintf_internal.isra.3+0x2d6>
  304128:	f020 0320 	bic.w	r3, r0, #32
  30412c:	6812      	ldr	r2, [r2, #0]
  30412e:	2b5a      	cmp	r3, #90	; 0x5a
  304130:	d101      	bne.n	304136 <vsnprintf_internal.isra.3+0x2da>
  304132:	2300      	movs	r3, #0
  304134:	e011      	b.n	30415a <vsnprintf_internal.isra.3+0x2fe>
  304136:	2874      	cmp	r0, #116	; 0x74
  304138:	d00e      	beq.n	304158 <vsnprintf_internal.isra.3+0x2fc>
  30413a:	2868      	cmp	r0, #104	; 0x68
  30413c:	f005 0302 	and.w	r3, r5, #2
  304140:	d108      	bne.n	304154 <vsnprintf_internal.isra.3+0x2f8>
  304142:	b92b      	cbnz	r3, 304150 <vsnprintf_internal.isra.3+0x2f4>
  304144:	b292      	uxth	r2, r2
  304146:	e7f4      	b.n	304132 <vsnprintf_internal.isra.3+0x2d6>
  304148:	00300618 	eorseq	r0, r0, r8, lsl r6
  30414c:	00301577 	eorseq	r1, r0, r7, ror r5
  304150:	b212      	sxth	r2, r2
  304152:	e001      	b.n	304158 <vsnprintf_internal.isra.3+0x2fc>
  304154:	2b00      	cmp	r3, #0
  304156:	d0ec      	beq.n	304132 <vsnprintf_internal.isra.3+0x2d6>
  304158:	17d3      	asrs	r3, r2, #31
  30415a:	4620      	mov	r0, r4
  30415c:	f8cd e000 	str.w	lr, [sp]
  304160:	f8cd 9004 	str.w	r9, [sp, #4]
  304164:	9102      	str	r1, [sp, #8]
  304166:	9503      	str	r5, [sp, #12]
  304168:	f7ff fd9a 	bl	303ca0 <number.isra.1>
  30416c:	4604      	mov	r4, r0
  30416e:	4652      	mov	r2, sl
  304170:	f108 0801 	add.w	r8, r8, #1
  304174:	e679      	b.n	303e6a <vsnprintf_internal.isra.3+0xe>
  304176:	1ba0      	subs	r0, r4, r6
  304178:	7023      	strb	r3, [r4, #0]
  30417a:	b005      	add	sp, #20
  30417c:	e8bd 8ff0 	ldmia.w	sp!, {r4, r5, r6, r7, r8, r9, sl, fp, pc}

00304180 <simple_strtoul>:
  304180:	b5f0      	push	{r4, r5, r6, r7, lr}
  304182:	7803      	ldrb	r3, [r0, #0]
  304184:	4e19      	ldr	r6, [pc, #100]	; (3041ec <simple_strtoul+0x6c>)
  304186:	2b30      	cmp	r3, #48	; 0x30
  304188:	d10f      	bne.n	3041aa <simple_strtoul+0x2a>
  30418a:	7844      	ldrb	r4, [r0, #1]
  30418c:	1c43      	adds	r3, r0, #1
  30418e:	2c78      	cmp	r4, #120	; 0x78
  304190:	d107      	bne.n	3041a2 <simple_strtoul+0x22>
  304192:	7884      	ldrb	r4, [r0, #2]
  304194:	5d34      	ldrb	r4, [r6, r4]
  304196:	f014 0f44 	tst.w	r4, #68	; 0x44
  30419a:	d002      	beq.n	3041a2 <simple_strtoul+0x22>
  30419c:	1c83      	adds	r3, r0, #2
  30419e:	2210      	movs	r2, #16
  3041a0:	e022      	b.n	3041e8 <simple_strtoul+0x68>
  3041a2:	2a00      	cmp	r2, #0
  3041a4:	bf08      	it	eq
  3041a6:	2208      	moveq	r2, #8
  3041a8:	e01e      	b.n	3041e8 <simple_strtoul+0x68>
  3041aa:	2a00      	cmp	r2, #0
  3041ac:	bf08      	it	eq
  3041ae:	220a      	moveq	r2, #10
  3041b0:	4604      	mov	r4, r0
  3041b2:	2000      	movs	r0, #0
  3041b4:	4627      	mov	r7, r4
  3041b6:	f814 3b01 	ldrb.w	r3, [r4], #1
  3041ba:	5cf5      	ldrb	r5, [r6, r3]
  3041bc:	f015 0f44 	tst.w	r5, #68	; 0x44
  3041c0:	d101      	bne.n	3041c6 <simple_strtoul+0x46>
  3041c2:	b979      	cbnz	r1, 3041e4 <simple_strtoul+0x64>
  3041c4:	bdf0      	pop	{r4, r5, r6, r7, pc}
  3041c6:	f015 0f04 	tst.w	r5, #4
  3041ca:	d001      	beq.n	3041d0 <simple_strtoul+0x50>
  3041cc:	3b30      	subs	r3, #48	; 0x30
  3041ce:	e004      	b.n	3041da <simple_strtoul+0x5a>
  3041d0:	07ad      	lsls	r5, r5, #30
  3041d2:	bf44      	itt	mi
  3041d4:	3b20      	submi	r3, #32
  3041d6:	b2db      	uxtbmi	r3, r3
  3041d8:	3b37      	subs	r3, #55	; 0x37
  3041da:	4293      	cmp	r3, r2
  3041dc:	d2f1      	bcs.n	3041c2 <simple_strtoul+0x42>
  3041de:	fb02 3000 	mla	r0, r2, r0, r3
  3041e2:	e7e7      	b.n	3041b4 <simple_strtoul+0x34>
  3041e4:	600f      	str	r7, [r1, #0]
  3041e6:	bdf0      	pop	{r4, r5, r6, r7, pc}
  3041e8:	4618      	mov	r0, r3
  3041ea:	e7e1      	b.n	3041b0 <simple_strtoul+0x30>
  3041ec:	00300618 	eorseq	r0, r0, r8, lsl r6

003041f0 <strict_strtoul>:
  3041f0:	b5f7      	push	{r0, r1, r2, r4, r5, r6, r7, lr}
  3041f2:	2300      	movs	r3, #0
  3041f4:	6013      	str	r3, [r2, #0]
  3041f6:	4604      	mov	r4, r0
  3041f8:	460f      	mov	r7, r1
  3041fa:	4615      	mov	r5, r2
  3041fc:	f7fe fd7d 	bl	302cfa <strlen>
  304200:	4606      	mov	r6, r0
  304202:	b910      	cbnz	r0, 30420a <strict_strtoul+0x1a>
  304204:	f06f 0015 	mvn.w	r0, #21
  304208:	e011      	b.n	30422e <strict_strtoul+0x3e>
  30420a:	4620      	mov	r0, r4
  30420c:	a901      	add	r1, sp, #4
  30420e:	463a      	mov	r2, r7
  304210:	f7ff ffb6 	bl	304180 <simple_strtoul>
  304214:	9b01      	ldr	r3, [sp, #4]
  304216:	42a3      	cmp	r3, r4
  304218:	d0f4      	beq.n	304204 <strict_strtoul+0x14>
  30421a:	781a      	ldrb	r2, [r3, #0]
  30421c:	b12a      	cbz	r2, 30422a <strict_strtoul+0x3a>
  30421e:	1b1b      	subs	r3, r3, r4
  304220:	3301      	adds	r3, #1
  304222:	429e      	cmp	r6, r3
  304224:	d1ee      	bne.n	304204 <strict_strtoul+0x14>
  304226:	2a0a      	cmp	r2, #10
  304228:	d1ec      	bne.n	304204 <strict_strtoul+0x14>
  30422a:	6028      	str	r0, [r5, #0]
  30422c:	2000      	movs	r0, #0
  30422e:	b003      	add	sp, #12
  304230:	bdf0      	pop	{r4, r5, r6, r7, pc}

00304232 <simple_strtol>:
  304232:	b510      	push	{r4, lr}
  304234:	7804      	ldrb	r4, [r0, #0]
  304236:	2c2d      	cmp	r4, #45	; 0x2d
  304238:	d104      	bne.n	304244 <simple_strtol+0x12>
  30423a:	3001      	adds	r0, #1
  30423c:	f7ff ffa0 	bl	304180 <simple_strtoul>
  304240:	4240      	negs	r0, r0
  304242:	bd10      	pop	{r4, pc}
  304244:	e8bd 4010 	ldmia.w	sp!, {r4, lr}
  304248:	f7ff bf9a 	b.w	304180 <simple_strtoul>

0030424c <ustrtoul>:
  30424c:	b510      	push	{r4, lr}
  30424e:	460c      	mov	r4, r1
  304250:	f7ff ff96 	bl	304180 <simple_strtoul>
  304254:	6823      	ldr	r3, [r4, #0]
  304256:	781a      	ldrb	r2, [r3, #0]
  304258:	2a4b      	cmp	r2, #75	; 0x4b
  30425a:	d00a      	beq.n	304272 <ustrtoul+0x26>
  30425c:	d802      	bhi.n	304264 <ustrtoul+0x18>
  30425e:	2a47      	cmp	r2, #71	; 0x47
  304260:	d005      	beq.n	30426e <ustrtoul+0x22>
  304262:	bd10      	pop	{r4, pc}
  304264:	2a4d      	cmp	r2, #77	; 0x4d
  304266:	d003      	beq.n	304270 <ustrtoul+0x24>
  304268:	2a6b      	cmp	r2, #107	; 0x6b
  30426a:	d002      	beq.n	304272 <ustrtoul+0x26>
  30426c:	bd10      	pop	{r4, pc}
  30426e:	0280      	lsls	r0, r0, #10
  304270:	0280      	lsls	r0, r0, #10
  304272:	785a      	ldrb	r2, [r3, #1]
  304274:	0280      	lsls	r0, r0, #10
  304276:	2a69      	cmp	r2, #105	; 0x69
  304278:	d105      	bne.n	304286 <ustrtoul+0x3a>
  30427a:	789a      	ldrb	r2, [r3, #2]
  30427c:	2a42      	cmp	r2, #66	; 0x42
  30427e:	bf0c      	ite	eq
  304280:	3303      	addeq	r3, #3
  304282:	3302      	addne	r3, #2
  304284:	6023      	str	r3, [r4, #0]
  304286:	bd10      	pop	{r4, pc}

00304288 <simple_strtoull>:
  304288:	e92d 47f0 	stmdb	sp!, {r4, r5, r6, r7, r8, r9, sl, lr}
  30428c:	460b      	mov	r3, r1
  30428e:	7801      	ldrb	r1, [r0, #0]
  304290:	f8df c084 	ldr.w	ip, [pc, #132]	; 304318 <simple_strtoull+0x90>
  304294:	2930      	cmp	r1, #48	; 0x30
  304296:	d110      	bne.n	3042ba <simple_strtoull+0x32>
  304298:	7844      	ldrb	r4, [r0, #1]
  30429a:	1c41      	adds	r1, r0, #1
  30429c:	2c78      	cmp	r4, #120	; 0x78
  30429e:	d108      	bne.n	3042b2 <simple_strtoull+0x2a>
  3042a0:	7884      	ldrb	r4, [r0, #2]
  3042a2:	f81c 4004 	ldrb.w	r4, [ip, r4]
  3042a6:	f014 0f44 	tst.w	r4, #68	; 0x44
  3042aa:	d002      	beq.n	3042b2 <simple_strtoull+0x2a>
  3042ac:	1c81      	adds	r1, r0, #2
  3042ae:	2210      	movs	r2, #16
  3042b0:	e030      	b.n	304314 <simple_strtoull+0x8c>
  3042b2:	2a00      	cmp	r2, #0
  3042b4:	bf08      	it	eq
  3042b6:	2208      	moveq	r2, #8
  3042b8:	e02c      	b.n	304314 <simple_strtoull+0x8c>
  3042ba:	2a00      	cmp	r2, #0
  3042bc:	bf08      	it	eq
  3042be:	220a      	moveq	r2, #10
  3042c0:	4682      	mov	sl, r0
  3042c2:	2100      	movs	r1, #0
  3042c4:	2000      	movs	r0, #0
  3042c6:	4690      	mov	r8, r2
  3042c8:	f04f 0900 	mov.w	r9, #0
  3042cc:	4654      	mov	r4, sl
  3042ce:	f81a 6b01 	ldrb.w	r6, [sl], #1
  3042d2:	f81c 5006 	ldrb.w	r5, [ip, r6]
  3042d6:	f015 0f44 	tst.w	r5, #68	; 0x44
  3042da:	d102      	bne.n	3042e2 <simple_strtoull+0x5a>
  3042dc:	b9bb      	cbnz	r3, 30430e <simple_strtoull+0x86>
  3042de:	e8bd 87f0 	ldmia.w	sp!, {r4, r5, r6, r7, r8, r9, sl, pc}
  3042e2:	076f      	lsls	r7, r5, #29
  3042e4:	d501      	bpl.n	3042ea <simple_strtoull+0x62>
  3042e6:	3e30      	subs	r6, #48	; 0x30
  3042e8:	e004      	b.n	3042f4 <simple_strtoull+0x6c>
  3042ea:	07ad      	lsls	r5, r5, #30
  3042ec:	bf44      	itt	mi
  3042ee:	3e20      	submi	r6, #32
  3042f0:	b2f6      	uxtbmi	r6, r6
  3042f2:	3e37      	subs	r6, #55	; 0x37
  3042f4:	17f7      	asrs	r7, r6, #31
  3042f6:	454f      	cmp	r7, r9
  3042f8:	bf08      	it	eq
  3042fa:	4546      	cmpeq	r6, r8
  3042fc:	d2ee      	bcs.n	3042dc <simple_strtoull+0x54>
  3042fe:	fba0 4502 	umull	r4, r5, r0, r2
  304302:	1930      	adds	r0, r6, r4
  304304:	fb02 5501 	mla	r5, r2, r1, r5
  304308:	eb47 0105 	adc.w	r1, r7, r5
  30430c:	e7de      	b.n	3042cc <simple_strtoull+0x44>
  30430e:	601c      	str	r4, [r3, #0]
  304310:	e8bd 87f0 	ldmia.w	sp!, {r4, r5, r6, r7, r8, r9, sl, pc}
  304314:	4608      	mov	r0, r1
  304316:	e7d3      	b.n	3042c0 <simple_strtoull+0x38>
  304318:	00300618 	eorseq	r0, r0, r8, lsl r6

0030431c <ustrtoull>:
  30431c:	b510      	push	{r4, lr}
  30431e:	460c      	mov	r4, r1
  304320:	f7ff ffb2 	bl	304288 <simple_strtoull>
  304324:	6823      	ldr	r3, [r4, #0]
  304326:	781a      	ldrb	r2, [r3, #0]
  304328:	2a4b      	cmp	r2, #75	; 0x4b
  30432a:	d010      	beq.n	30434e <ustrtoull+0x32>
  30432c:	d802      	bhi.n	304334 <ustrtoull+0x18>
  30432e:	2a47      	cmp	r2, #71	; 0x47
  304330:	d005      	beq.n	30433e <ustrtoull+0x22>
  304332:	bd10      	pop	{r4, pc}
  304334:	2a4d      	cmp	r2, #77	; 0x4d
  304336:	d006      	beq.n	304346 <ustrtoull+0x2a>
  304338:	2a6b      	cmp	r2, #107	; 0x6b
  30433a:	d008      	beq.n	30434e <ustrtoull+0x32>
  30433c:	bd10      	pop	{r4, pc}
  30433e:	0289      	lsls	r1, r1, #10
  304340:	ea41 5190 	orr.w	r1, r1, r0, lsr #22
  304344:	0280      	lsls	r0, r0, #10
  304346:	0289      	lsls	r1, r1, #10
  304348:	ea41 5190 	orr.w	r1, r1, r0, lsr #22
  30434c:	0280      	lsls	r0, r0, #10
  30434e:	785a      	ldrb	r2, [r3, #1]
  304350:	0289      	lsls	r1, r1, #10
  304352:	ea41 5190 	orr.w	r1, r1, r0, lsr #22
  304356:	0280      	lsls	r0, r0, #10
  304358:	2a69      	cmp	r2, #105	; 0x69
  30435a:	d105      	bne.n	304368 <ustrtoull+0x4c>
  30435c:	789a      	ldrb	r2, [r3, #2]
  30435e:	2a42      	cmp	r2, #66	; 0x42
  304360:	bf0c      	ite	eq
  304362:	3303      	addeq	r3, #3
  304364:	3302      	addne	r3, #2
  304366:	6023      	str	r3, [r4, #0]
  304368:	bd10      	pop	{r4, pc}

0030436a <trailing_strtoln>:
  30436a:	b538      	push	{r3, r4, r5, lr}
  30436c:	4604      	mov	r4, r0
  30436e:	b911      	cbnz	r1, 304376 <trailing_strtoln+0xc>
  304370:	f7fe fcc3 	bl	302cfa <strlen>
  304374:	1821      	adds	r1, r4, r0
  304376:	4d0b      	ldr	r5, [pc, #44]	; (3043a4 <trailing_strtoln+0x3a>)
  304378:	1e4b      	subs	r3, r1, #1
  30437a:	42a3      	cmp	r3, r4
  30437c:	4618      	mov	r0, r3
  30437e:	d90e      	bls.n	30439e <trailing_strtoln+0x34>
  304380:	7802      	ldrb	r2, [r0, #0]
  304382:	3b01      	subs	r3, #1
  304384:	5caa      	ldrb	r2, [r5, r2]
  304386:	f002 0204 	and.w	r2, r2, #4
  30438a:	f002 01ff 	and.w	r1, r2, #255	; 0xff
  30438e:	2a00      	cmp	r2, #0
  304390:	d1f3      	bne.n	30437a <trailing_strtoln+0x10>
  304392:	3001      	adds	r0, #1
  304394:	220a      	movs	r2, #10
  304396:	e8bd 4038 	ldmia.w	sp!, {r3, r4, r5, lr}
  30439a:	f7ff bef1 	b.w	304180 <simple_strtoul>
  30439e:	f04f 30ff 	mov.w	r0, #4294967295	; 0xffffffff
  3043a2:	bd38      	pop	{r3, r4, r5, pc}
  3043a4:	00300618 	eorseq	r0, r0, r8, lsl r6

003043a8 <trailing_strtol>:
  3043a8:	2100      	movs	r1, #0
  3043aa:	f7ff bfde 	b.w	30436a <trailing_strtoln>

003043ae <vsprintf>:
  3043ae:	f7ff bd55 	b.w	303e5c <vsnprintf_internal.isra.3>

003043b2 <sprintf>:
  3043b2:	b40e      	push	{r1, r2, r3}
  3043b4:	b503      	push	{r0, r1, lr}
  3043b6:	aa03      	add	r2, sp, #12
  3043b8:	f852 1b04 	ldr.w	r1, [r2], #4
  3043bc:	9201      	str	r2, [sp, #4]
  3043be:	f7ff fd4d 	bl	303e5c <vsnprintf_internal.isra.3>
  3043c2:	b002      	add	sp, #8
  3043c4:	f85d eb04 	ldr.w	lr, [sp], #4
  3043c8:	b003      	add	sp, #12
  3043ca:	4770      	bx	lr

003043cc <printf>:
  3043cc:	b40f      	push	{r0, r1, r2, r3}
  3043ce:	b510      	push	{r4, lr}
  3043d0:	f5ad 6d81 	sub.w	sp, sp, #1032	; 0x408
  3043d4:	f50d 6282 	add.w	r2, sp, #1040	; 0x410
  3043d8:	a802      	add	r0, sp, #8
  3043da:	f852 1b04 	ldr.w	r1, [r2], #4
  3043de:	9201      	str	r2, [sp, #4]
  3043e0:	f7ff fd3c 	bl	303e5c <vsnprintf_internal.isra.3>
  3043e4:	4604      	mov	r4, r0
  3043e6:	a802      	add	r0, sp, #8
  3043e8:	f000 f95f 	bl	3046aa <puts>
  3043ec:	4620      	mov	r0, r4
  3043ee:	f50d 6d81 	add.w	sp, sp, #1032	; 0x408
  3043f2:	e8bd 4010 	ldmia.w	sp!, {r4, lr}
  3043f6:	b004      	add	sp, #16
  3043f8:	4770      	bx	lr

003043fa <vprintf>:
  3043fa:	b510      	push	{r4, lr}
  3043fc:	f5ad 6d80 	sub.w	sp, sp, #1024	; 0x400
  304400:	4603      	mov	r3, r0
  304402:	460a      	mov	r2, r1
  304404:	4668      	mov	r0, sp
  304406:	4619      	mov	r1, r3
  304408:	f7ff fd28 	bl	303e5c <vsnprintf_internal.isra.3>
  30440c:	4604      	mov	r4, r0
  30440e:	4668      	mov	r0, sp
  304410:	f000 f94b 	bl	3046aa <puts>
  304414:	4620      	mov	r0, r4
  304416:	f50d 6d80 	add.w	sp, sp, #1024	; 0x400
  30441a:	bd10      	pop	{r4, pc}

0030441c <panic_str>:
  30441c:	b508      	push	{r3, lr}
  30441e:	f000 f944 	bl	3046aa <puts>
  304422:	200a      	movs	r0, #10
  304424:	f000 f93f 	bl	3046a6 <putc>
  304428:	4801      	ldr	r0, [pc, #4]	; (304430 <panic_str+0x14>)
  30442a:	f000 f978 	bl	30471e <udelay>
  30442e:	e7fe      	b.n	30442e <panic_str+0x12>
  304430:	000186a0 	andeq	r8, r1, r0, lsr #13

00304434 <panic>:
  304434:	b40f      	push	{r0, r1, r2, r3}
  304436:	b507      	push	{r0, r1, r2, lr}
  304438:	a904      	add	r1, sp, #16
  30443a:	f851 0b04 	ldr.w	r0, [r1], #4
  30443e:	9101      	str	r1, [sp, #4]
  304440:	f7ff ffdb 	bl	3043fa <vprintf>
  304444:	200a      	movs	r0, #10
  304446:	f000 f92e 	bl	3046a6 <putc>
  30444a:	4802      	ldr	r0, [pc, #8]	; (304454 <panic+0x20>)
  30444c:	f000 f967 	bl	30471e <udelay>
  304450:	e7fe      	b.n	304450 <panic+0x1c>
  304452:	bf00      	nop
  304454:	000186a0 	andeq	r8, r1, r0, lsr #13

00304458 <__assert_fail>:
  304458:	b507      	push	{r0, r1, r2, lr}
  30445a:	9000      	str	r0, [sp, #0]
  30445c:	4801      	ldr	r0, [pc, #4]	; (304464 <__assert_fail+0xc>)
  30445e:	f7ff ffe9 	bl	304434 <panic>
  304462:	bf00      	nop
  304464:	0030157e 	eorseq	r1, r0, lr, ror r5

00304468 <simple_itoa>:
  304468:	b570      	push	{r4, r5, r6, lr}
  30446a:	2300      	movs	r3, #0
  30446c:	4e0a      	ldr	r6, [pc, #40]	; (304498 <simple_itoa+0x30>)
  30446e:	4604      	mov	r4, r0
  304470:	3614      	adds	r6, #20
  304472:	7073      	strb	r3, [r6, #1]
  304474:	4620      	mov	r0, r4
  304476:	210a      	movs	r1, #10
  304478:	f003 fd78 	bl	307f6c <__aeabi_uidivmod>
  30447c:	4635      	mov	r5, r6
  30447e:	4620      	mov	r0, r4
  304480:	3130      	adds	r1, #48	; 0x30
  304482:	f805 1901 	strb.w	r1, [r5], #-1
  304486:	210a      	movs	r1, #10
  304488:	f003 fd28 	bl	307edc <__aeabi_uidiv>
  30448c:	4604      	mov	r4, r0
  30448e:	b108      	cbz	r0, 304494 <simple_itoa+0x2c>
  304490:	462e      	mov	r6, r5
  304492:	e7ef      	b.n	304474 <simple_itoa+0xc>
  304494:	4630      	mov	r0, r6
  304496:	bd70      	pop	{r4, r5, r6, pc}
  304498:	0030959c 	mlaseq	r0, ip, r5, r9

0030449c <print_grouped_ull>:
  30449c:	b570      	push	{r4, r5, r6, lr}
  30449e:	4604      	mov	r4, r0
  3044a0:	b088      	sub	sp, #32
  3044a2:	460d      	mov	r5, r1
  3044a4:	1c90      	adds	r0, r2, #2
  3044a6:	2103      	movs	r1, #3
  3044a8:	f003 fd6e 	bl	307f88 <__aeabi_idiv>
  3044ac:	ae02      	add	r6, sp, #8
  3044ae:	2203      	movs	r2, #3
  3044b0:	e9cd 4500 	strd	r4, r5, [sp]
  3044b4:	490d      	ldr	r1, [pc, #52]	; (3044ec <print_grouped_ull+0x50>)
  3044b6:	4634      	mov	r4, r6
  3044b8:	4342      	muls	r2, r0
  3044ba:	4630      	mov	r0, r6
  3044bc:	f7ff ff79 	bl	3043b2 <sprintf>
  3044c0:	7823      	ldrb	r3, [r4, #0]
  3044c2:	b183      	cbz	r3, 3044e6 <print_grouped_ull+0x4a>
  3044c4:	42b4      	cmp	r4, r6
  3044c6:	d007      	beq.n	3044d8 <print_grouped_ull+0x3c>
  3044c8:	f814 0c01 	ldrb.w	r0, [r4, #-1]
  3044cc:	2820      	cmp	r0, #32
  3044ce:	bf0c      	ite	eq
  3044d0:	2020      	moveq	r0, #32
  3044d2:	202c      	movne	r0, #44	; 0x2c
  3044d4:	f000 f8e7 	bl	3046a6 <putc>
  3044d8:	4622      	mov	r2, r4
  3044da:	4805      	ldr	r0, [pc, #20]	; (3044f0 <print_grouped_ull+0x54>)
  3044dc:	2103      	movs	r1, #3
  3044de:	3403      	adds	r4, #3
  3044e0:	f7ff ff74 	bl	3043cc <printf>
  3044e4:	e7ec      	b.n	3044c0 <print_grouped_ull+0x24>
  3044e6:	b008      	add	sp, #32
  3044e8:	bd70      	pop	{r4, r5, r6, pc}
  3044ea:	bf00      	nop
  3044ec:	003015a0 	eorseq	r1, r0, r0, lsr #11
  3044f0:	003015a6 	eorseq	r1, r0, r6, lsr #11

003044f4 <str2off>:
  3044f4:	b537      	push	{r0, r1, r2, r4, r5, lr}
  3044f6:	460d      	mov	r5, r1
  3044f8:	2210      	movs	r2, #16
  3044fa:	a901      	add	r1, sp, #4
  3044fc:	4604      	mov	r4, r0
  3044fe:	f7ff fec3 	bl	304288 <simple_strtoull>
  304502:	e9c5 0100 	strd	r0, r1, [r5]
  304506:	7820      	ldrb	r0, [r4, #0]
  304508:	b128      	cbz	r0, 304516 <str2off+0x22>
  30450a:	9b01      	ldr	r3, [sp, #4]
  30450c:	7818      	ldrb	r0, [r3, #0]
  30450e:	f1d0 0001 	rsbs	r0, r0, #1
  304512:	bf38      	it	cc
  304514:	2000      	movcc	r0, #0
  304516:	f000 0001 	and.w	r0, r0, #1
  30451a:	b003      	add	sp, #12
  30451c:	bd30      	pop	{r4, r5, pc}

0030451e <str2long>:
  30451e:	b537      	push	{r0, r1, r2, r4, r5, lr}
  304520:	460d      	mov	r5, r1
  304522:	2210      	movs	r2, #16
  304524:	a901      	add	r1, sp, #4
  304526:	4604      	mov	r4, r0
  304528:	f7ff fe2a 	bl	304180 <simple_strtoul>
  30452c:	6028      	str	r0, [r5, #0]
  30452e:	7820      	ldrb	r0, [r4, #0]
  304530:	b128      	cbz	r0, 30453e <str2long+0x20>
  304532:	9b01      	ldr	r3, [sp, #4]
  304534:	7818      	ldrb	r0, [r3, #0]
  304536:	f1d0 0001 	rsbs	r0, r0, #1
  30453a:	bf38      	it	cc
  30453c:	2000      	movcc	r0, #0
  30453e:	f000 0001 	and.w	r0, r0, #1
  304542:	b003      	add	sp, #12
  304544:	bd30      	pop	{r4, r5, pc}
  304546:	bf00      	nop

00304548 <_serial_init>:
  304548:	b538      	push	{r3, r4, r5, lr}
  30454a:	4604      	mov	r4, r0
  30454c:	481f      	ldr	r0, [pc, #124]	; (3045cc <_serial_init+0x84>)
  30454e:	460d      	mov	r5, r1
  304550:	f003 fd1a 	bl	307f88 <__aeabi_idiv>
  304554:	4a1e      	ldr	r2, [pc, #120]	; (3045d0 <_serial_init+0x88>)
  304556:	fb05 f300 	mul.w	r3, r5, r0
  30455a:	ebb2 1f03 	cmp.w	r2, r3, lsl #4
  30455e:	d305      	bcc.n	30456c <_serial_init+0x24>
  304560:	005a      	lsls	r2, r3, #1
  304562:	4b1c      	ldr	r3, [pc, #112]	; (3045d4 <_serial_init+0x8c>)
  304564:	1a9b      	subs	r3, r3, r2
  304566:	42ab      	cmp	r3, r5
  304568:	bf88      	it	hi
  30456a:	3001      	addhi	r0, #1
  30456c:	4b1a      	ldr	r3, [pc, #104]	; (3045d8 <_serial_init+0x90>)
  30456e:	429c      	cmp	r4, r3
  304570:	4619      	mov	r1, r3
  304572:	d003      	beq.n	30457c <_serial_init+0x34>
  304574:	f503 3380 	add.w	r3, r3, #65536	; 0x10000
  304578:	429c      	cmp	r4, r3
  30457a:	d118      	bne.n	3045ae <_serial_init+0x66>
  30457c:	f5b5 2f61 	cmp.w	r5, #921600	; 0xe1000
  304580:	d115      	bne.n	3045ae <_serial_init+0x66>
  304582:	4a16      	ldr	r2, [pc, #88]	; (3045dc <_serial_init+0x94>)
  304584:	428c      	cmp	r4, r1
  304586:	6813      	ldr	r3, [r2, #0]
  304588:	d104      	bne.n	304594 <_serial_init+0x4c>
  30458a:	f023 737c 	bic.w	r3, r3, #66060288	; 0x3f00000
  30458e:	f443 03e0 	orr.w	r3, r3, #7340032	; 0x700000
  304592:	e006      	b.n	3045a2 <_serial_init+0x5a>
  304594:	4912      	ldr	r1, [pc, #72]	; (3045e0 <_serial_init+0x98>)
  304596:	428c      	cmp	r4, r1
  304598:	bf04      	itt	eq
  30459a:	f023 437c 	biceq.w	r3, r3, #4227858432	; 0xfc000000
  30459e:	f043 53e0 	orreq.w	r3, r3, #469762048	; 0x1c000000
  3045a2:	6013      	str	r3, [r2, #0]
  3045a4:	480f      	ldr	r0, [pc, #60]	; (3045e4 <_serial_init+0x9c>)
  3045a6:	6813      	ldr	r3, [r2, #0]
  3045a8:	f7ff ff10 	bl	3043cc <printf>
  3045ac:	200b      	movs	r0, #11
  3045ae:	2300      	movs	r3, #0
  3045b0:	6063      	str	r3, [r4, #4]
  3045b2:	2383      	movs	r3, #131	; 0x83
  3045b4:	60e3      	str	r3, [r4, #12]
  3045b6:	b2c3      	uxtb	r3, r0
  3045b8:	f3c0 2007 	ubfx	r0, r0, #8, #8
  3045bc:	6023      	str	r3, [r4, #0]
  3045be:	2303      	movs	r3, #3
  3045c0:	6060      	str	r0, [r4, #4]
  3045c2:	60e3      	str	r3, [r4, #12]
  3045c4:	2307      	movs	r3, #7
  3045c6:	60a3      	str	r3, [r4, #8]
  3045c8:	bd38      	pop	{r3, r4, r5, pc}
  3045ca:	bf00      	nop
  3045cc:	005a995c 	subseq	r9, sl, ip, asr r9
  3045d0:	05a995bf 	streq	r9, [r9, #1471]!	; 0x5bf
  3045d4:	00b532b8 	ldrhteq	r3, [r5], r8
  3045d8:	c0060000 	andgt	r0, r6, r0
  3045dc:	c01d000c 	andsgt	r0, sp, ip
  3045e0:	c0070000 	andgt	r0, r7, r0
  3045e4:	003015ab 	eorseq	r1, r0, fp, lsr #11

003045e8 <_serial_deinit>:
  3045e8:	4770      	bx	lr

003045ea <_serial_tstc>:
  3045ea:	f04f 4340 	mov.w	r3, #3221225472	; 0xc0000000
  3045ee:	6958      	ldr	r0, [r3, #20]
  3045f0:	f000 0001 	and.w	r0, r0, #1
  3045f4:	4770      	bx	lr

003045f6 <_serial_getc>:
  3045f6:	f04f 4240 	mov.w	r2, #3221225472	; 0xc0000000
  3045fa:	6953      	ldr	r3, [r2, #20]
  3045fc:	07db      	lsls	r3, r3, #31
  3045fe:	d5fc      	bpl.n	3045fa <_serial_getc+0x4>
  304600:	f04f 4340 	mov.w	r3, #3221225472	; 0xc0000000
  304604:	6818      	ldr	r0, [r3, #0]
  304606:	4770      	bx	lr

00304608 <_serial_putc_hw>:
  304608:	f04f 4240 	mov.w	r2, #3221225472	; 0xc0000000
  30460c:	6953      	ldr	r3, [r2, #20]
  30460e:	0699      	lsls	r1, r3, #26
  304610:	d5fc      	bpl.n	30460c <_serial_putc_hw+0x4>
  304612:	f04f 4340 	mov.w	r3, #3221225472	; 0xc0000000
  304616:	6018      	str	r0, [r3, #0]
  304618:	4770      	bx	lr

0030461a <_serial_putc>:
  30461a:	280a      	cmp	r0, #10
  30461c:	b510      	push	{r4, lr}
  30461e:	4604      	mov	r4, r0
  304620:	d102      	bne.n	304628 <_serial_putc+0xe>
  304622:	200d      	movs	r0, #13
  304624:	f7ff fff0 	bl	304608 <_serial_putc_hw>
  304628:	4620      	mov	r0, r4
  30462a:	e8bd 4010 	ldmia.w	sp!, {r4, lr}
  30462e:	f7ff bfeb 	b.w	304608 <_serial_putc_hw>

00304632 <_serial_puts>:
  304632:	b510      	push	{r4, lr}
  304634:	1e44      	subs	r4, r0, #1
  304636:	f814 0f01 	ldrb.w	r0, [r4, #1]!
  30463a:	b110      	cbz	r0, 304642 <_serial_puts+0x10>
  30463c:	f7ff ffed 	bl	30461a <_serial_putc>
  304640:	e7f9      	b.n	304636 <_serial_puts+0x4>
  304642:	bd10      	pop	{r4, pc}

00304644 <dbg_serial_init>:
  304644:	4601      	mov	r1, r0
  304646:	f04f 4040 	mov.w	r0, #3221225472	; 0xc0000000
  30464a:	f7ff bf7d 	b.w	304548 <_serial_init>

0030464e <upv_serial_init>:
  30464e:	4601      	mov	r1, r0
  304650:	4801      	ldr	r0, [pc, #4]	; (304658 <upv_serial_init+0xa>)
  304652:	f7ff bf79 	b.w	304548 <_serial_init>
  304656:	bf00      	nop
  304658:	c0060000 	andgt	r0, r6, r0

0030465c <serial_enable_rtscts>:
  30465c:	4770      	bx	lr

0030465e <serial_getc>:
  30465e:	f7ff bfca 	b.w	3045f6 <_serial_getc>

00304662 <serial_tstc>:
  304662:	f04f 4340 	mov.w	r3, #3221225472	; 0xc0000000
  304666:	6958      	ldr	r0, [r3, #20]
  304668:	f000 0001 	and.w	r0, r0, #1
  30466c:	4770      	bx	lr

0030466e <serial_putc>:
  30466e:	f7ff bfd4 	b.w	30461a <_serial_putc>

00304672 <serial_puts>:
  304672:	f7ff bfde 	b.w	304632 <_serial_puts>

00304676 <ctrlc>:
  304676:	b508      	push	{r3, lr}
  304678:	f04f 4340 	mov.w	r3, #3221225472	; 0xc0000000
  30467c:	6958      	ldr	r0, [r3, #20]
  30467e:	f010 0001 	ands.w	r0, r0, #1
  304682:	d007      	beq.n	304694 <ctrlc+0x1e>
  304684:	f7ff ffb7 	bl	3045f6 <_serial_getc>
  304688:	f1b0 0e03 	subs.w	lr, r0, #3
  30468c:	f1de 0000 	rsbs	r0, lr, #0
  304690:	eb50 000e 	adcs.w	r0, r0, lr
  304694:	bd08      	pop	{r3, pc}

00304696 <getc>:
  304696:	f7ff bfae 	b.w	3045f6 <_serial_getc>

0030469a <tstc>:
  30469a:	f04f 4340 	mov.w	r3, #3221225472	; 0xc0000000
  30469e:	6958      	ldr	r0, [r3, #20]
  3046a0:	f000 0001 	and.w	r0, r0, #1
  3046a4:	4770      	bx	lr

003046a6 <putc>:
  3046a6:	f7ff bfb8 	b.w	30461a <_serial_putc>

003046aa <puts>:
  3046aa:	f7ff bfc2 	b.w	304632 <_serial_puts>
  3046ae:	bf00      	nop

003046b0 <timer_get_tick32>:
  3046b0:	b508      	push	{r3, lr}
  3046b2:	f7fb fdb0 	bl	300216 <arch_counter_get_cntpct>
  3046b6:	bd08      	pop	{r3, pc}

003046b8 <timer_get_tick>:
  3046b8:	f7fb bdad 	b.w	300216 <arch_counter_get_cntpct>

003046bc <timeout_setup_ms>:
  3046bc:	b538      	push	{r3, r4, r5, lr}
  3046be:	4604      	mov	r4, r0
  3046c0:	460d      	mov	r5, r1
  3046c2:	f7fb fda8 	bl	300216 <arch_counter_get_cntpct>
  3046c6:	f644 6320 	movw	r3, #20000	; 0x4e20
  3046ca:	fbe3 0105 	umlal	r0, r1, r3, r5
  3046ce:	e9c4 0100 	strd	r0, r1, [r4]
  3046d2:	bd38      	pop	{r3, r4, r5, pc}

003046d4 <timeout_setup_us>:
  3046d4:	b538      	push	{r3, r4, r5, lr}
  3046d6:	4604      	mov	r4, r0
  3046d8:	460d      	mov	r5, r1
  3046da:	f7fb fd9c 	bl	300216 <arch_counter_get_cntpct>
  3046de:	2314      	movs	r3, #20
  3046e0:	fbe3 0105 	umlal	r0, r1, r3, r5
  3046e4:	e9c4 0100 	strd	r0, r1, [r4]
  3046e8:	bd38      	pop	{r3, r4, r5, pc}

003046ea <timeout_check>:
  3046ea:	b510      	push	{r4, lr}
  3046ec:	4604      	mov	r4, r0
  3046ee:	f7fb fd92 	bl	300216 <arch_counter_get_cntpct>
  3046f2:	e9d4 2300 	ldrd	r2, r3, [r4]
  3046f6:	428b      	cmp	r3, r1
  3046f8:	bf08      	it	eq
  3046fa:	4282      	cmpeq	r2, r0
  3046fc:	bf2c      	ite	cs
  3046fe:	2000      	movcs	r0, #0
  304700:	2001      	movcc	r0, #1
  304702:	bd10      	pop	{r4, pc}

00304704 <mdelay>:
  304704:	b507      	push	{r0, r1, r2, lr}
  304706:	4601      	mov	r1, r0
  304708:	4668      	mov	r0, sp
  30470a:	f7ff ffd7 	bl	3046bc <timeout_setup_ms>
  30470e:	4668      	mov	r0, sp
  304710:	f7ff ffeb 	bl	3046ea <timeout_check>
  304714:	2800      	cmp	r0, #0
  304716:	d0fa      	beq.n	30470e <mdelay+0xa>
  304718:	b003      	add	sp, #12
  30471a:	f85d fb04 	ldr.w	pc, [sp], #4

0030471e <udelay>:
  30471e:	b507      	push	{r0, r1, r2, lr}
  304720:	4601      	mov	r1, r0
  304722:	4668      	mov	r0, sp
  304724:	f7ff ffd6 	bl	3046d4 <timeout_setup_us>
  304728:	4668      	mov	r0, sp
  30472a:	f7ff ffde 	bl	3046ea <timeout_check>
  30472e:	2800      	cmp	r0, #0
  304730:	d0fa      	beq.n	304728 <udelay+0xa>
  304732:	b003      	add	sp, #12
  304734:	f85d fb04 	ldr.w	pc, [sp], #4

00304738 <fast_boot>:
  304738:	b5f8      	push	{r3, r4, r5, r6, r7, lr}
  30473a:	f645 225a 	movw	r2, #23130	; 0x5a5a
  30473e:	4b26      	ldr	r3, [pc, #152]	; (3047d8 <fast_boot+0xa0>)
  304740:	6819      	ldr	r1, [r3, #0]
  304742:	4291      	cmp	r1, r2
  304744:	d146      	bne.n	3047d4 <fast_boot+0x9c>
  304746:	4a25      	ldr	r2, [pc, #148]	; (3047dc <fast_boot+0xa4>)
  304748:	6852      	ldr	r2, [r2, #4]
  30474a:	2a00      	cmp	r2, #0
  30474c:	d042      	beq.n	3047d4 <fast_boot+0x9c>
  30474e:	f8d3 10f4 	ldr.w	r1, [r3, #244]	; 0xf4
  304752:	4a23      	ldr	r2, [pc, #140]	; (3047e0 <fast_boot+0xa8>)
  304754:	4291      	cmp	r1, r2
  304756:	d03d      	beq.n	3047d4 <fast_boot+0x9c>
  304758:	685a      	ldr	r2, [r3, #4]
  30475a:	689d      	ldr	r5, [r3, #8]
  30475c:	68de      	ldr	r6, [r3, #12]
  30475e:	691c      	ldr	r4, [r3, #16]
  304760:	695f      	ldr	r7, [r3, #20]
  304762:	f64a 23aa 	movw	r3, #43690	; 0xaaaa
  304766:	429a      	cmp	r2, r3
  304768:	d108      	bne.n	30477c <fast_boot+0x44>
  30476a:	f04f 4340 	mov.w	r3, #3221225472	; 0xc0000000
  30476e:	224e      	movs	r2, #78	; 0x4e
  304770:	601a      	str	r2, [r3, #0]
  304772:	220a      	movs	r2, #10
  304774:	601a      	str	r2, [r3, #0]
  304776:	220d      	movs	r2, #13
  304778:	601a      	str	r2, [r3, #0]
  30477a:	bdf8      	pop	{r3, r4, r5, r6, r7, pc}
  30477c:	f64a 2355 	movw	r3, #43605	; 0xaa55
  304780:	429a      	cmp	r2, r3
  304782:	d114      	bne.n	3047ae <fast_boot+0x76>
  304784:	f04f 4340 	mov.w	r3, #3221225472	; 0xc0000000
  304788:	2243      	movs	r2, #67	; 0x43
  30478a:	4628      	mov	r0, r5
  30478c:	601a      	str	r2, [r3, #0]
  30478e:	1961      	adds	r1, r4, r5
  304790:	220a      	movs	r2, #10
  304792:	601a      	str	r2, [r3, #0]
  304794:	220d      	movs	r2, #13
  304796:	601a      	str	r2, [r3, #0]
  304798:	f7fb edde 	blx	300358 <v7_dma_inv_range>
  30479c:	4629      	mov	r1, r5
  30479e:	4630      	mov	r0, r6
  3047a0:	4622      	mov	r2, r4
  3047a2:	f7fe fb6e 	bl	302e82 <memcpy>
  3047a6:	4630      	mov	r0, r6
  3047a8:	19a1      	adds	r1, r4, r6
  3047aa:	f7fb edfa 	blx	3003a0 <v7_dma_clean_range>
  3047ae:	4b0a      	ldr	r3, [pc, #40]	; (3047d8 <fast_boot+0xa0>)
  3047b0:	4638      	mov	r0, r7
  3047b2:	2100      	movs	r1, #0
  3047b4:	6a1a      	ldr	r2, [r3, #32]
  3047b6:	3201      	adds	r2, #1
  3047b8:	621a      	str	r2, [r3, #32]
  3047ba:	4a09      	ldr	r2, [pc, #36]	; (3047e0 <fast_boot+0xa8>)
  3047bc:	f8c3 2100 	str.w	r2, [r3, #256]	; 0x100
  3047c0:	f44f 1240 	mov.w	r2, #3145728	; 0x300000
  3047c4:	f8c3 2104 	str.w	r2, [r3, #260]	; 0x104
  3047c8:	f7fd fcb4 	bl	302134 <do_go_exec>
  3047cc:	4805      	ldr	r0, [pc, #20]	; (3047e4 <fast_boot+0xac>)
  3047ce:	f7ff fdfd 	bl	3043cc <printf>
  3047d2:	e7fb      	b.n	3047cc <fast_boot+0x94>
  3047d4:	bdf8      	pop	{r3, r4, r5, r6, r7, pc}
  3047d6:	bf00      	nop
  3047d8:	c01d1000 	andsgt	r1, sp, r0
  3047dc:	c01d1100 	andsgt	r1, sp, r0, lsl #2
  3047e0:	fabbe000 	blx	ff1fc7e8 <__bss_end__+0xfeef23e4>
  3047e4:	003015cd 	eorseq	r1, r0, sp, asr #11

003047e8 <fastboot_pll1_set>:
  3047e8:	b538      	push	{r3, r4, r5, lr}
  3047ea:	4c05      	ldr	r4, [pc, #20]	; (304800 <fastboot_pll1_set+0x18>)
  3047ec:	4d05      	ldr	r5, [pc, #20]	; (304804 <fastboot_pll1_set+0x1c>)
  3047ee:	68a3      	ldr	r3, [r4, #8]
  3047f0:	42ab      	cmp	r3, r5
  3047f2:	d003      	beq.n	3047fc <fastboot_pll1_set+0x14>
  3047f4:	f7fd fb74 	bl	301ee0 <pll1_set_rate_kHz>
  3047f8:	60a5      	str	r5, [r4, #8]
  3047fa:	bd38      	pop	{r3, r4, r5, pc}
  3047fc:	2000      	movs	r0, #0
  3047fe:	bd38      	pop	{r3, r4, r5, pc}
  304800:	c01d1100 	andsgt	r1, sp, r0, lsl #2
  304804:	fabbe000 	blx	ff1fc80c <__bss_end__+0xfeef2408>

00304808 <fastboot_save_para>:
  304808:	b570      	push	{r4, r5, r6, lr}
  30480a:	f5b1 1ff8 	cmp.w	r1, #2031616	; 0x1f0000
  30480e:	4c18      	ldr	r4, [pc, #96]	; (304870 <fastboot_save_para+0x68>)
  304810:	f645 225a 	movw	r2, #23130	; 0x5a5a
  304814:	4605      	mov	r5, r0
  304816:	460e      	mov	r6, r1
  304818:	6022      	str	r2, [r4, #0]
  30481a:	61e3      	str	r3, [r4, #28]
  30481c:	d303      	bcc.n	304826 <fastboot_save_para+0x1e>
  30481e:	f64a 23aa 	movw	r3, #43690	; 0xaaaa
  304822:	6063      	str	r3, [r4, #4]
  304824:	bd70      	pop	{r4, r5, r6, pc}
  304826:	f100 4360 	add.w	r3, r0, #3758096384	; 0xe0000000
  30482a:	f1b3 4f80 	cmp.w	r3, #1073741824	; 0x40000000
  30482e:	d212      	bcs.n	304856 <fastboot_save_para+0x4e>
  304830:	4629      	mov	r1, r5
  304832:	4632      	mov	r2, r6
  304834:	f44f 1080 	mov.w	r0, #1048576	; 0x100000
  304838:	f7fe fb23 	bl	302e82 <memcpy>
  30483c:	f44f 1080 	mov.w	r0, #1048576	; 0x100000
  304840:	1831      	adds	r1, r6, r0
  304842:	f7fb edc8 	blx	3003d4 <v7_dma_flush_range>
  304846:	f64a 2355 	movw	r3, #43605	; 0xaa55
  30484a:	6063      	str	r3, [r4, #4]
  30484c:	f44f 1380 	mov.w	r3, #1048576	; 0x100000
  304850:	60a3      	str	r3, [r4, #8]
  304852:	60e5      	str	r5, [r4, #12]
  304854:	6126      	str	r6, [r4, #16]
  304856:	4a06      	ldr	r2, [pc, #24]	; (304870 <fastboot_save_para+0x68>)
  304858:	4b06      	ldr	r3, [pc, #24]	; (304874 <fastboot_save_para+0x6c>)
  30485a:	4907      	ldr	r1, [pc, #28]	; (304878 <fastboot_save_para+0x70>)
  30485c:	6155      	str	r5, [r2, #20]
  30485e:	6019      	str	r1, [r3, #0]
  304860:	2100      	movs	r1, #0
  304862:	f8c2 10f4 	str.w	r1, [r2, #244]	; 0xf4
  304866:	f44f 1240 	mov.w	r2, #3145728	; 0x300000
  30486a:	605a      	str	r2, [r3, #4]
  30486c:	bd70      	pop	{r4, r5, r6, pc}
  30486e:	bf00      	nop
  304870:	c01d1000 	andsgt	r1, sp, r0
  304874:	c01d1100 	andsgt	r1, sp, r0, lsl #2
  304878:	fabbe000 	blx	ff1fc880 <__bss_end__+0xfeef247c>

0030487c <uart_get_input>:
  30487c:	b538      	push	{r3, r4, r5, lr}
  30487e:	4604      	mov	r4, r0
  304880:	f04f 4040 	mov.w	r0, #3221225472	; 0xc0000000
  304884:	460d      	mov	r5, r1
  304886:	f002 f9bd 	bl	306c04 <__serial_tstc>
  30488a:	b158      	cbz	r0, 3048a4 <uart_get_input+0x28>
  30488c:	f04f 4040 	mov.w	r0, #3221225472	; 0xc0000000
  304890:	f002 f9bc 	bl	306c0c <__serial_getc_direct>
  304894:	b2c0      	uxtb	r0, r0
  304896:	7028      	strb	r0, [r5, #0]
  304898:	287e      	cmp	r0, #126	; 0x7e
  30489a:	bf04      	itt	eq
  30489c:	2300      	moveq	r3, #0
  30489e:	6023      	streq	r3, [r4, #0]
  3048a0:	2001      	movs	r0, #1
  3048a2:	bd38      	pop	{r3, r4, r5, pc}
  3048a4:	4806      	ldr	r0, [pc, #24]	; (3048c0 <uart_get_input+0x44>)
  3048a6:	f002 f9ad 	bl	306c04 <__serial_tstc>
  3048aa:	b140      	cbz	r0, 3048be <uart_get_input+0x42>
  3048ac:	4804      	ldr	r0, [pc, #16]	; (3048c0 <uart_get_input+0x44>)
  3048ae:	f002 f9ad 	bl	306c0c <__serial_getc_direct>
  3048b2:	b2c0      	uxtb	r0, r0
  3048b4:	7028      	strb	r0, [r5, #0]
  3048b6:	287e      	cmp	r0, #126	; 0x7e
  3048b8:	d1f2      	bne.n	3048a0 <uart_get_input+0x24>
  3048ba:	2001      	movs	r0, #1
  3048bc:	6020      	str	r0, [r4, #0]
  3048be:	bd38      	pop	{r3, r4, r5, pc}
  3048c0:	c0060000 	andgt	r0, r6, r0

003048c4 <counting_down>:
  3048c4:	e92d 41f3 	stmdb	sp!, {r0, r1, r4, r5, r6, r7, r8, lr}
  3048c8:	ad02      	add	r5, sp, #8
  3048ca:	2400      	movs	r4, #0
  3048cc:	f845 4d04 	str.w	r4, [r5, #-4]!
  3048d0:	f7fb fcde 	bl	300290 <arch_counter_get_current>
  3048d4:	4607      	mov	r7, r0
  3048d6:	f640 38b8 	movw	r8, #3000	; 0xbb8
  3048da:	4628      	mov	r0, r5
  3048dc:	f10d 0103 	add.w	r1, sp, #3
  3048e0:	f7ff ffcc 	bl	30487c <uart_get_input>
  3048e4:	4606      	mov	r6, r0
  3048e6:	b120      	cbz	r0, 3048f2 <counting_down+0x2e>
  3048e8:	4813      	ldr	r0, [pc, #76]	; (304938 <counting_down+0x74>)
  3048ea:	f7ff fd6f 	bl	3043cc <printf>
  3048ee:	2001      	movs	r0, #1
  3048f0:	e01e      	b.n	304930 <counting_down+0x6c>
  3048f2:	f7fb fccd 	bl	300290 <arch_counter_get_current>
  3048f6:	f644 6120 	movw	r1, #20000	; 0x4e20
  3048fa:	1bc0      	subs	r0, r0, r7
  3048fc:	f003 faee 	bl	307edc <__aeabi_uidiv>
  304900:	3001      	adds	r0, #1
  304902:	4540      	cmp	r0, r8
  304904:	d905      	bls.n	304912 <counting_down+0x4e>
  304906:	480d      	ldr	r0, [pc, #52]	; (30493c <counting_down+0x78>)
  304908:	2103      	movs	r1, #3
  30490a:	f7ff fd5f 	bl	3043cc <printf>
  30490e:	4630      	mov	r0, r6
  304910:	e00e      	b.n	304930 <counting_down+0x6c>
  304912:	f44f 717a 	mov.w	r1, #1000	; 0x3e8
  304916:	f003 fb29 	bl	307f6c <__aeabi_uidivmod>
  30491a:	2900      	cmp	r1, #0
  30491c:	d1dd      	bne.n	3048da <counting_down+0x16>
  30491e:	3401      	adds	r4, #1
  304920:	4807      	ldr	r0, [pc, #28]	; (304940 <counting_down+0x7c>)
  304922:	4621      	mov	r1, r4
  304924:	f7ff fd52 	bl	3043cc <printf>
  304928:	2001      	movs	r0, #1
  30492a:	f7ff feeb 	bl	304704 <mdelay>
  30492e:	e7d2      	b.n	3048d6 <counting_down+0x12>
  304930:	b002      	add	sp, #8
  304932:	e8bd 81f0 	ldmia.w	sp!, {r4, r5, r6, r7, r8, pc}
  304936:	bf00      	nop
  304938:	003015e2 	eorseq	r1, r0, r2, ror #11
  30493c:	003015fc 	ldrshteq	r1, [r0], -ip
  304940:	0030161a 	eorseq	r1, r0, sl, lsl r6

00304944 <auto_upgrade>:
  304944:	b537      	push	{r0, r1, r2, r4, r5, lr}
  304946:	ac02      	add	r4, sp, #8
  304948:	2300      	movs	r3, #0
  30494a:	f844 3d04 	str.w	r3, [r4, #-4]!
  30494e:	f7fb fc9f 	bl	300290 <arch_counter_get_current>
  304952:	4605      	mov	r5, r0
  304954:	4620      	mov	r0, r4
  304956:	f10d 0103 	add.w	r1, sp, #3
  30495a:	f7ff ff8f 	bl	30487c <uart_get_input>
  30495e:	b190      	cbz	r0, 304986 <auto_upgrade+0x42>
  304960:	f89d 3003 	ldrb.w	r3, [sp, #3]
  304964:	2b7e      	cmp	r3, #126	; 0x7e
  304966:	d101      	bne.n	30496c <auto_upgrade+0x28>
  304968:	f7ff f85e 	bl	303a28 <upgrade_start>
  30496c:	f89d 3003 	ldrb.w	r3, [sp, #3]
  304970:	2b20      	cmp	r3, #32
  304972:	d001      	beq.n	304978 <auto_upgrade+0x34>
  304974:	2b1b      	cmp	r3, #27
  304976:	d106      	bne.n	304986 <auto_upgrade+0x42>
  304978:	480b      	ldr	r0, [pc, #44]	; (3049a8 <auto_upgrade+0x64>)
  30497a:	f10d 0103 	add.w	r1, sp, #3
  30497e:	f7ff fd25 	bl	3043cc <printf>
  304982:	2001      	movs	r0, #1
  304984:	e00e      	b.n	3049a4 <auto_upgrade+0x60>
  304986:	f7fb fc83 	bl	300290 <arch_counter_get_current>
  30498a:	f644 6120 	movw	r1, #20000	; 0x4e20
  30498e:	1b40      	subs	r0, r0, r5
  304990:	f003 faa4 	bl	307edc <__aeabi_uidiv>
  304994:	3001      	adds	r0, #1
  304996:	2864      	cmp	r0, #100	; 0x64
  304998:	d9dc      	bls.n	304954 <auto_upgrade+0x10>
  30499a:	4804      	ldr	r0, [pc, #16]	; (3049ac <auto_upgrade+0x68>)
  30499c:	2164      	movs	r1, #100	; 0x64
  30499e:	f7ff fd15 	bl	3043cc <printf>
  3049a2:	2000      	movs	r0, #0
  3049a4:	b003      	add	sp, #12
  3049a6:	bd30      	pop	{r4, r5, pc}
  3049a8:	00301628 	eorseq	r1, r0, r8, lsr #12
  3049ac:	0030165b 	eorseq	r1, r0, fp, asr r6

003049b0 <boot_main>:
  3049b0:	b508      	push	{r3, lr}
  3049b2:	f7fd f976 	bl	301ca2 <chip_early_init_f>
  3049b6:	4910      	ldr	r1, [pc, #64]	; (3049f8 <boot_main+0x48>)
  3049b8:	4a10      	ldr	r2, [pc, #64]	; (3049fc <boot_main+0x4c>)
  3049ba:	4b11      	ldr	r3, [pc, #68]	; (304a00 <boot_main+0x50>)
  3049bc:	4811      	ldr	r0, [pc, #68]	; (304a04 <boot_main+0x54>)
  3049be:	f7ff fd05 	bl	3043cc <printf>
  3049c2:	f7fd f979 	bl	301cb8 <early_system_init>
  3049c6:	f7ff feb7 	bl	304738 <fast_boot>
  3049ca:	480f      	ldr	r0, [pc, #60]	; (304a08 <boot_main+0x58>)
  3049cc:	f7ff fcfe 	bl	3043cc <printf>
  3049d0:	f7fe f8b8 	bl	302b44 <set_random>
  3049d4:	f000 f81d 	bl	304a12 <board_init_f>
  3049d8:	f7ff ffb4 	bl	304944 <auto_upgrade>
  3049dc:	2801      	cmp	r0, #1
  3049de:	d008      	beq.n	3049f2 <boot_main+0x42>
  3049e0:	f7ff ff70 	bl	3048c4 <counting_down>
  3049e4:	2801      	cmp	r0, #1
  3049e6:	d004      	beq.n	3049f2 <boot_main+0x42>
  3049e8:	f7fd fdc4 	bl	302574 <boot_parse_init>
  3049ec:	4807      	ldr	r0, [pc, #28]	; (304a0c <boot_main+0x5c>)
  3049ee:	f7ff fced 	bl	3043cc <printf>
  3049f2:	f7ff ffa7 	bl	304944 <auto_upgrade>
  3049f6:	e7fc      	b.n	3049f2 <boot_main+0x42>
  3049f8:	0030169e 	mlaseq	r0, lr, r6, r1
  3049fc:	003016a2 	eorseq	r1, r0, r2, lsr #13
  304a00:	003016ad 	eorseq	r1, r0, sp, lsr #13
  304a04:	0030168a 	eorseq	r1, r0, sl, lsl #13
  304a08:	003016b6 	ldrhteq	r1, [r0], -r6
  304a0c:	003016dd 	ldrsbteq	r1, [r0], -sp

00304a10 <global_iomux_set>:
  304a10:	4770      	bx	lr

00304a12 <board_init_f>:
  304a12:	2000      	movs	r0, #0
  304a14:	b508      	push	{r3, lr}
  304a16:	4601      	mov	r1, r0
  304a18:	4602      	mov	r2, r0
  304a1a:	f000 fe4d 	bl	3056b8 <qspi_init_low>
  304a1e:	f001 f831 	bl	305a84 <init_spinor>
  304a22:	2000      	movs	r0, #0
  304a24:	bd08      	pop	{r3, pc}
	...

00304a28 <qspi_hw_init>:
  304a28:	f04f 4330 	mov.w	r3, #2952790016	; 0xb0000000
  304a2c:	2200      	movs	r2, #0
  304a2e:	609a      	str	r2, [r3, #8]
  304a30:	625a      	str	r2, [r3, #36]	; 0x24
  304a32:	661a      	str	r2, [r3, #96]	; 0x60
  304a34:	4770      	bx	lr

00304a36 <qspi_ahb_enable>:
  304a36:	f04f 4330 	mov.w	r3, #2952790016	; 0xb0000000
  304a3a:	2202      	movs	r2, #2
  304a3c:	609a      	str	r2, [r3, #8]
  304a3e:	4770      	bx	lr

00304a40 <qspi_reg_enable>:
  304a40:	f04f 4330 	mov.w	r3, #2952790016	; 0xb0000000
  304a44:	2201      	movs	r2, #1
  304a46:	609a      	str	r2, [r3, #8]
  304a48:	4770      	bx	lr

00304a4a <qspi_push_data_8bit>:
  304a4a:	f04f 4330 	mov.w	r3, #2952790016	; 0xb0000000
  304a4e:	66d8      	str	r0, [r3, #108]	; 0x6c
  304a50:	4770      	bx	lr

00304a52 <qspi_push_data_16bit>:
  304a52:	f04f 4330 	mov.w	r3, #2952790016	; 0xb0000000
  304a56:	66d8      	str	r0, [r3, #108]	; 0x6c
  304a58:	4770      	bx	lr

00304a5a <qspi_push_data_32bit>:
  304a5a:	f04f 4330 	mov.w	r3, #2952790016	; 0xb0000000
  304a5e:	66d8      	str	r0, [r3, #108]	; 0x6c
  304a60:	4770      	bx	lr

00304a62 <qspi_get_data_8bit>:
  304a62:	f04f 4330 	mov.w	r3, #2952790016	; 0xb0000000
  304a66:	6ed8      	ldr	r0, [r3, #108]	; 0x6c
  304a68:	b2c0      	uxtb	r0, r0
  304a6a:	4770      	bx	lr

00304a6c <qspi_get_data_16bit>:
  304a6c:	f04f 4330 	mov.w	r3, #2952790016	; 0xb0000000
  304a70:	6ed8      	ldr	r0, [r3, #108]	; 0x6c
  304a72:	b280      	uxth	r0, r0
  304a74:	4770      	bx	lr

00304a76 <qspi_get_data_32bit>:
  304a76:	f04f 4330 	mov.w	r3, #2952790016	; 0xb0000000
  304a7a:	6ed8      	ldr	r0, [r3, #108]	; 0x6c
  304a7c:	4770      	bx	lr

00304a7e <qspi_set_rx_fifo_level>:
  304a7e:	f04f 4330 	mov.w	r3, #2952790016	; 0xb0000000
  304a82:	b2c0      	uxtb	r0, r0
  304a84:	6158      	str	r0, [r3, #20]
  304a86:	4770      	bx	lr

00304a88 <qspi_set_tx_fifo_level>:
  304a88:	f04f 4330 	mov.w	r3, #2952790016	; 0xb0000000
  304a8c:	b2c0      	uxtb	r0, r0
  304a8e:	6118      	str	r0, [r3, #16]
  304a90:	4770      	bx	lr

00304a92 <qspi_get_rx_fifo_d_num>:
  304a92:	f04f 4330 	mov.w	r3, #2952790016	; 0xb0000000
  304a96:	69d8      	ldr	r0, [r3, #28]
  304a98:	4770      	bx	lr

00304a9a <qspi_get_tx_fifo_d_num>:
  304a9a:	f04f 4330 	mov.w	r3, #2952790016	; 0xb0000000
  304a9e:	6998      	ldr	r0, [r3, #24]
  304aa0:	4770      	bx	lr

00304aa2 <qspi_cache_flash>:
  304aa2:	f04f 4330 	mov.w	r3, #2952790016	; 0xb0000000
  304aa6:	6d18      	ldr	r0, [r3, #80]	; 0x50
  304aa8:	4770      	bx	lr

00304aaa <qspi_set_baudr>:
  304aaa:	f04f 4330 	mov.w	r3, #2952790016	; 0xb0000000
  304aae:	f3c0 0009 	ubfx	r0, r0, #0, #10
  304ab2:	60d8      	str	r0, [r3, #12]
  304ab4:	4770      	bx	lr

00304ab6 <qspi_clr_all_interrupts>:
  304ab6:	f04f 4330 	mov.w	r3, #2952790016	; 0xb0000000
  304aba:	6c18      	ldr	r0, [r3, #64]	; 0x40
  304abc:	4770      	bx	lr

00304abe <qspi_get_interrupt_status>:
  304abe:	f04f 4330 	mov.w	r3, #2952790016	; 0xb0000000
  304ac2:	6ad8      	ldr	r0, [r3, #44]	; 0x2c
  304ac4:	4770      	bx	lr

00304ac6 <qspi_rx_full_inten>:
  304ac6:	2800      	cmp	r0, #0
  304ac8:	f04f 4330 	mov.w	r3, #2952790016	; 0xb0000000
  304acc:	bfd6      	itet	le
  304ace:	6a5a      	ldrle	r2, [r3, #36]	; 0x24
  304ad0:	2210      	movgt	r2, #16
  304ad2:	f022 0210 	bicle.w	r2, r2, #16
  304ad6:	625a      	str	r2, [r3, #36]	; 0x24
  304ad8:	4770      	bx	lr

00304ada <qspi_tx_empty_inten>:
  304ada:	2800      	cmp	r0, #0
  304adc:	f04f 4330 	mov.w	r3, #2952790016	; 0xb0000000
  304ae0:	bfd6      	itet	le
  304ae2:	6a5a      	ldrle	r2, [r3, #36]	; 0x24
  304ae4:	2201      	movgt	r2, #1
  304ae6:	f022 0201 	bicle.w	r2, r2, #1
  304aea:	625a      	str	r2, [r3, #36]	; 0x24
  304aec:	4770      	bx	lr

00304aee <qspi_set_rx_ndf>:
  304aee:	f04f 4330 	mov.w	r3, #2952790016	; 0xb0000000
  304af2:	b2c0      	uxtb	r0, r0
  304af4:	6058      	str	r0, [r3, #4]
  304af6:	4770      	bx	lr

00304af8 <qspi_rx_fifo_flush>:
  304af8:	f04f 4330 	mov.w	r3, #2952790016	; 0xb0000000
  304afc:	6dd8      	ldr	r0, [r3, #92]	; 0x5c
  304afe:	4770      	bx	lr

00304b00 <qspi_is_busy>:
  304b00:	f04f 4330 	mov.w	r3, #2952790016	; 0xb0000000
  304b04:	6a18      	ldr	r0, [r3, #32]
  304b06:	f000 0001 	and.w	r0, r0, #1
  304b0a:	4770      	bx	lr

00304b0c <qspi_tx_init>:
  304b0c:	f04f 4330 	mov.w	r3, #2952790016	; 0xb0000000
  304b10:	2200      	movs	r2, #0
  304b12:	609a      	str	r2, [r3, #8]
  304b14:	f240 1207 	movw	r2, #263	; 0x107
  304b18:	601a      	str	r2, [r3, #0]
  304b1a:	2203      	movs	r2, #3
  304b1c:	649a      	str	r2, [r3, #72]	; 0x48
  304b1e:	4770      	bx	lr

00304b20 <qspi_tx_init_4>:
  304b20:	f04f 4330 	mov.w	r3, #2952790016	; 0xb0000000
  304b24:	2200      	movs	r2, #0
  304b26:	609a      	str	r2, [r3, #8]
  304b28:	4a03      	ldr	r2, [pc, #12]	; (304b38 <qspi_tx_init_4+0x18>)
  304b2a:	601a      	str	r2, [r3, #0]
  304b2c:	2203      	movs	r2, #3
  304b2e:	649a      	str	r2, [r3, #72]	; 0x48
  304b30:	2202      	movs	r2, #2
  304b32:	64da      	str	r2, [r3, #76]	; 0x4c
  304b34:	4770      	bx	lr
  304b36:	bf00      	nop
  304b38:	0001010f 	andeq	r0, r1, pc, lsl #2

00304b3c <qspi_rx_get_e2prmode>:
  304b3c:	2910      	cmp	r1, #16
  304b3e:	d008      	beq.n	304b52 <qspi_rx_get_e2prmode+0x16>
  304b40:	2920      	cmp	r1, #32
  304b42:	d004      	beq.n	304b4e <qspi_rx_get_e2prmode+0x12>
  304b44:	2908      	cmp	r1, #8
  304b46:	d121      	bne.n	304b8c <qspi_rx_get_e2prmode+0x50>
  304b48:	f240 3207 	movw	r2, #775	; 0x307
  304b4c:	e003      	b.n	304b56 <qspi_rx_get_e2prmode+0x1a>
  304b4e:	4a10      	ldr	r2, [pc, #64]	; (304b90 <qspi_rx_get_e2prmode+0x54>)
  304b50:	e001      	b.n	304b56 <qspi_rx_get_e2prmode+0x1a>
  304b52:	f240 320f 	movw	r2, #783	; 0x30f
  304b56:	283b      	cmp	r0, #59	; 0x3b
  304b58:	d010      	beq.n	304b7c <qspi_rx_get_e2prmode+0x40>
  304b5a:	d805      	bhi.n	304b68 <qspi_rx_get_e2prmode+0x2c>
  304b5c:	2803      	cmp	r0, #3
  304b5e:	d00b      	beq.n	304b78 <qspi_rx_get_e2prmode+0x3c>
  304b60:	280b      	cmp	r0, #11
  304b62:	d113      	bne.n	304b8c <qspi_rx_get_e2prmode+0x50>
  304b64:	2301      	movs	r3, #1
  304b66:	e00e      	b.n	304b86 <qspi_rx_get_e2prmode+0x4a>
  304b68:	28bb      	cmp	r0, #187	; 0xbb
  304b6a:	d009      	beq.n	304b80 <qspi_rx_get_e2prmode+0x44>
  304b6c:	28eb      	cmp	r0, #235	; 0xeb
  304b6e:	d009      	beq.n	304b84 <qspi_rx_get_e2prmode+0x48>
  304b70:	286b      	cmp	r0, #107	; 0x6b
  304b72:	d10b      	bne.n	304b8c <qspi_rx_get_e2prmode+0x50>
  304b74:	2303      	movs	r3, #3
  304b76:	e006      	b.n	304b86 <qspi_rx_get_e2prmode+0x4a>
  304b78:	2300      	movs	r3, #0
  304b7a:	e004      	b.n	304b86 <qspi_rx_get_e2prmode+0x4a>
  304b7c:	2302      	movs	r3, #2
  304b7e:	e002      	b.n	304b86 <qspi_rx_get_e2prmode+0x4a>
  304b80:	2304      	movs	r3, #4
  304b82:	e000      	b.n	304b86 <qspi_rx_get_e2prmode+0x4a>
  304b84:	2305      	movs	r3, #5
  304b86:	ea42 2083 	orr.w	r0, r2, r3, lsl #10
  304b8a:	4770      	bx	lr
  304b8c:	2000      	movs	r0, #0
  304b8e:	4770      	bx	lr
  304b90:	0001030f 	andeq	r0, r1, pc, lsl #6

00304b94 <qspi_rx_init>:
  304b94:	2910      	cmp	r1, #16
  304b96:	b510      	push	{r4, lr}
  304b98:	d008      	beq.n	304bac <qspi_rx_init+0x18>
  304b9a:	2920      	cmp	r1, #32
  304b9c:	d004      	beq.n	304ba8 <qspi_rx_init+0x14>
  304b9e:	2908      	cmp	r1, #8
  304ba0:	d12a      	bne.n	304bf8 <qspi_rx_init+0x64>
  304ba2:	f240 3207 	movw	r2, #775	; 0x307
  304ba6:	e003      	b.n	304bb0 <qspi_rx_init+0x1c>
  304ba8:	4a14      	ldr	r2, [pc, #80]	; (304bfc <qspi_rx_init+0x68>)
  304baa:	e001      	b.n	304bb0 <qspi_rx_init+0x1c>
  304bac:	f240 320f 	movw	r2, #783	; 0x30f
  304bb0:	283b      	cmp	r0, #59	; 0x3b
  304bb2:	d010      	beq.n	304bd6 <qspi_rx_init+0x42>
  304bb4:	d805      	bhi.n	304bc2 <qspi_rx_init+0x2e>
  304bb6:	2803      	cmp	r0, #3
  304bb8:	d00b      	beq.n	304bd2 <qspi_rx_init+0x3e>
  304bba:	280b      	cmp	r0, #11
  304bbc:	d11c      	bne.n	304bf8 <qspi_rx_init+0x64>
  304bbe:	2301      	movs	r3, #1
  304bc0:	e00e      	b.n	304be0 <qspi_rx_init+0x4c>
  304bc2:	28bb      	cmp	r0, #187	; 0xbb
  304bc4:	d009      	beq.n	304bda <qspi_rx_init+0x46>
  304bc6:	28eb      	cmp	r0, #235	; 0xeb
  304bc8:	d009      	beq.n	304bde <qspi_rx_init+0x4a>
  304bca:	286b      	cmp	r0, #107	; 0x6b
  304bcc:	d114      	bne.n	304bf8 <qspi_rx_init+0x64>
  304bce:	2303      	movs	r3, #3
  304bd0:	e006      	b.n	304be0 <qspi_rx_init+0x4c>
  304bd2:	2300      	movs	r3, #0
  304bd4:	e004      	b.n	304be0 <qspi_rx_init+0x4c>
  304bd6:	2302      	movs	r3, #2
  304bd8:	e002      	b.n	304be0 <qspi_rx_init+0x4c>
  304bda:	2304      	movs	r3, #4
  304bdc:	e000      	b.n	304be0 <qspi_rx_init+0x4c>
  304bde:	2305      	movs	r3, #5
  304be0:	ea42 2183 	orr.w	r1, r2, r3, lsl #10
  304be4:	f04f 4230 	mov.w	r2, #2952790016	; 0xb0000000
  304be8:	ea40 4003 	orr.w	r0, r0, r3, lsl #16
  304bec:	2400      	movs	r4, #0
  304bee:	6094      	str	r4, [r2, #8]
  304bf0:	6011      	str	r1, [r2, #0]
  304bf2:	6490      	str	r0, [r2, #72]	; 0x48
  304bf4:	2001      	movs	r0, #1
  304bf6:	bd10      	pop	{r4, pc}
  304bf8:	2000      	movs	r0, #0
  304bfa:	bd10      	pop	{r4, pc}
  304bfc:	0001030f 	andeq	r0, r1, pc, lsl #6

00304c00 <qspi_set_dma_ctrl>:
  304c00:	f04f 4330 	mov.w	r3, #2952790016	; 0xb0000000
  304c04:	6618      	str	r0, [r3, #96]	; 0x60
  304c06:	4770      	bx	lr

00304c08 <qspi_set_dma_tdlr>:
  304c08:	f04f 4330 	mov.w	r3, #2952790016	; 0xb0000000
  304c0c:	6658      	str	r0, [r3, #100]	; 0x64
  304c0e:	4770      	bx	lr

00304c10 <qspi_set_dma_rdlr>:
  304c10:	f04f 4330 	mov.w	r3, #2952790016	; 0xb0000000
  304c14:	6698      	str	r0, [r3, #104]	; 0x68
  304c16:	4770      	bx	lr

00304c18 <qspi_polling_raw_status>:
  304c18:	f04f 4230 	mov.w	r2, #2952790016	; 0xb0000000
  304c1c:	6a93      	ldr	r3, [r2, #40]	; 0x28
  304c1e:	06d9      	lsls	r1, r3, #27
  304c20:	d40c      	bmi.n	304c3c <qspi_polling_raw_status+0x24>
  304c22:	07d8      	lsls	r0, r3, #31
  304c24:	d40c      	bmi.n	304c40 <qspi_polling_raw_status+0x28>
  304c26:	0799      	lsls	r1, r3, #30
  304c28:	6c12      	ldr	r2, [r2, #64]	; 0x40
  304c2a:	d40b      	bmi.n	304c44 <qspi_polling_raw_status+0x2c>
  304c2c:	075a      	lsls	r2, r3, #29
  304c2e:	d40b      	bmi.n	304c48 <qspi_polling_raw_status+0x30>
  304c30:	f013 0f08 	tst.w	r3, #8
  304c34:	bf0c      	ite	eq
  304c36:	2005      	moveq	r0, #5
  304c38:	2004      	movne	r0, #4
  304c3a:	4770      	bx	lr
  304c3c:	2000      	movs	r0, #0
  304c3e:	4770      	bx	lr
  304c40:	2001      	movs	r0, #1
  304c42:	4770      	bx	lr
  304c44:	2002      	movs	r0, #2
  304c46:	4770      	bx	lr
  304c48:	2003      	movs	r0, #3
  304c4a:	4770      	bx	lr

00304c4c <qspi_irq_read_status>:
  304c4c:	f04f 4230 	mov.w	r2, #2952790016	; 0xb0000000
  304c50:	6ad3      	ldr	r3, [r2, #44]	; 0x2c
  304c52:	06d8      	lsls	r0, r3, #27
  304c54:	d40c      	bmi.n	304c70 <qspi_irq_read_status+0x24>
  304c56:	07d9      	lsls	r1, r3, #31
  304c58:	d40c      	bmi.n	304c74 <qspi_irq_read_status+0x28>
  304c5a:	6c12      	ldr	r2, [r2, #64]	; 0x40
  304c5c:	079a      	lsls	r2, r3, #30
  304c5e:	d40b      	bmi.n	304c78 <qspi_irq_read_status+0x2c>
  304c60:	0758      	lsls	r0, r3, #29
  304c62:	d40b      	bmi.n	304c7c <qspi_irq_read_status+0x30>
  304c64:	f013 0f08 	tst.w	r3, #8
  304c68:	bf0c      	ite	eq
  304c6a:	2005      	moveq	r0, #5
  304c6c:	2004      	movne	r0, #4
  304c6e:	4770      	bx	lr
  304c70:	2000      	movs	r0, #0
  304c72:	4770      	bx	lr
  304c74:	2001      	movs	r0, #1
  304c76:	4770      	bx	lr
  304c78:	2002      	movs	r0, #2
  304c7a:	4770      	bx	lr
  304c7c:	2003      	movs	r0, #3
  304c7e:	4770      	bx	lr

00304c80 <get_qspiflash_dr>:
  304c80:	4800      	ldr	r0, [pc, #0]	; (304c84 <get_qspiflash_dr+0x4>)
  304c82:	4770      	bx	lr
  304c84:	b000006c 	andlt	r0, r0, ip, rrx

00304c88 <wait_qspi_hw_idle>:
  304c88:	b510      	push	{r4, lr}
  304c8a:	4c06      	ldr	r4, [pc, #24]	; (304ca4 <wait_qspi_hw_idle+0x1c>)
  304c8c:	f7ff ff38 	bl	304b00 <qspi_is_busy>
  304c90:	b120      	cbz	r0, 304c9c <wait_qspi_hw_idle+0x14>
  304c92:	2001      	movs	r0, #1
  304c94:	f7ff fd43 	bl	30471e <udelay>
  304c98:	3c01      	subs	r4, #1
  304c9a:	d1f7      	bne.n	304c8c <wait_qspi_hw_idle+0x4>
  304c9c:	e8bd 4010 	ldmia.w	sp!, {r4, lr}
  304ca0:	f7ff bf2e 	b.w	304b00 <qspi_is_busy>
  304ca4:	000186a1 	andeq	r8, r1, r1, lsr #13

00304ca8 <qspi_xfer_wait_done>:
  304ca8:	4a06      	ldr	r2, [pc, #24]	; (304cc4 <qspi_xfer_wait_done+0x1c>)
  304caa:	b508      	push	{r3, lr}
  304cac:	6813      	ldr	r3, [r2, #0]
  304cae:	2b01      	cmp	r3, #1
  304cb0:	d0fc      	beq.n	304cac <qspi_xfer_wait_done+0x4>
  304cb2:	f7ff ffe9 	bl	304c88 <wait_qspi_hw_idle>
  304cb6:	b120      	cbz	r0, 304cc2 <qspi_xfer_wait_done+0x1a>
  304cb8:	4803      	ldr	r0, [pc, #12]	; (304cc8 <qspi_xfer_wait_done+0x20>)
  304cba:	f7ff fb87 	bl	3043cc <printf>
  304cbe:	f04f 30ff 	mov.w	r0, #4294967295	; 0xffffffff
  304cc2:	bd08      	pop	{r3, pc}
  304cc4:	003095c0 	eorseq	r9, r0, r0, asr #11
  304cc8:	003016fc 	ldrshteq	r1, [r0], -ip

00304ccc <qspi_xfer_init>:
  304ccc:	4b0c      	ldr	r3, [pc, #48]	; (304d00 <qspi_xfer_init+0x34>)
  304cce:	b510      	push	{r4, lr}
  304cd0:	2401      	movs	r4, #1
  304cd2:	6059      	str	r1, [r3, #4]
  304cd4:	2100      	movs	r1, #0
  304cd6:	601c      	str	r4, [r3, #0]
  304cd8:	6098      	str	r0, [r3, #8]
  304cda:	60d9      	str	r1, [r3, #12]
  304cdc:	6119      	str	r1, [r3, #16]
  304cde:	695b      	ldr	r3, [r3, #20]
  304ce0:	428b      	cmp	r3, r1
  304ce2:	dd0c      	ble.n	304cfe <qspi_xfer_init+0x32>
  304ce4:	b922      	cbnz	r2, 304cf0 <qspi_xfer_init+0x24>
  304ce6:	4620      	mov	r0, r4
  304ce8:	e8bd 4010 	ldmia.w	sp!, {r4, lr}
  304cec:	f7ff beeb 	b.w	304ac6 <qspi_rx_full_inten>
  304cf0:	2a01      	cmp	r2, #1
  304cf2:	d104      	bne.n	304cfe <qspi_xfer_init+0x32>
  304cf4:	4610      	mov	r0, r2
  304cf6:	e8bd 4010 	ldmia.w	sp!, {r4, lr}
  304cfa:	f7ff beee 	b.w	304ada <qspi_tx_empty_inten>
  304cfe:	bd10      	pop	{r4, pc}
  304d00:	003095c0 	eorseq	r9, r0, r0, asr #11

00304d04 <qspi_dma_write_start>:
  304d04:	b510      	push	{r4, lr}
  304d06:	4604      	mov	r4, r0
  304d08:	f7ff ffbe 	bl	304c88 <wait_qspi_hw_idle>
  304d0c:	b128      	cbz	r0, 304d1a <qspi_dma_write_start+0x16>
  304d0e:	480f      	ldr	r0, [pc, #60]	; (304d4c <qspi_dma_write_start+0x48>)
  304d10:	f7ff fb5c 	bl	3043cc <printf>
  304d14:	f04f 30ff 	mov.w	r0, #4294967295	; 0xffffffff
  304d18:	bd10      	pop	{r4, pc}
  304d1a:	f7ff ff71 	bl	304c00 <qspi_set_dma_ctrl>
  304d1e:	2c08      	cmp	r4, #8
  304d20:	d102      	bne.n	304d28 <qspi_dma_write_start+0x24>
  304d22:	f7ff fef3 	bl	304b0c <qspi_tx_init>
  304d26:	e001      	b.n	304d2c <qspi_dma_write_start+0x28>
  304d28:	f7ff fefa 	bl	304b20 <qspi_tx_init_4>
  304d2c:	2080      	movs	r0, #128	; 0x80
  304d2e:	f7ff feab 	bl	304a88 <qspi_set_tx_fifo_level>
  304d32:	1e60      	subs	r0, r4, #1
  304d34:	f7ff ff68 	bl	304c08 <qspi_set_dma_tdlr>
  304d38:	2002      	movs	r0, #2
  304d3a:	f7ff ff61 	bl	304c00 <qspi_set_dma_ctrl>
  304d3e:	f3bf 8f6f 	isb	sy
  304d42:	f7ff fe7d 	bl	304a40 <qspi_reg_enable>
  304d46:	2000      	movs	r0, #0
  304d48:	bd10      	pop	{r4, pc}
  304d4a:	bf00      	nop
  304d4c:	003016fc 	ldrshteq	r1, [r0], -ip

00304d50 <qspi_xfer_polling_process>:
  304d50:	e92d 4ff7 	stmdb	sp!, {r0, r1, r2, r4, r5, r6, r7, r8, r9, sl, fp, lr}
  304d54:	4680      	mov	r8, r0
  304d56:	4c57      	ldr	r4, [pc, #348]	; (304eb4 <qspi_xfer_polling_process+0x164>)
  304d58:	6963      	ldr	r3, [r4, #20]
  304d5a:	2b00      	cmp	r3, #0
  304d5c:	f300 80a6 	bgt.w	304eac <qspi_xfer_polling_process+0x15c>
  304d60:	4626      	mov	r6, r4
  304d62:	f04f 0900 	mov.w	r9, #0
  304d66:	46a2      	mov	sl, r4
  304d68:	f1b8 0f01 	cmp.w	r8, #1
  304d6c:	d12c      	bne.n	304dc8 <qspi_xfer_polling_process+0x78>
  304d6e:	f7ff ff53 	bl	304c18 <qspi_polling_raw_status>
  304d72:	2801      	cmp	r0, #1
  304d74:	d1fb      	bne.n	304d6e <qspi_xfer_polling_process+0x1e>
  304d76:	f8d4 b00c 	ldr.w	fp, [r4, #12]
  304d7a:	f7ff fe8e 	bl	304a9a <qspi_get_tx_fifo_d_num>
  304d7e:	465d      	mov	r5, fp
  304d80:	f5c0 7780 	rsb	r7, r0, #256	; 0x100
  304d84:	ebcb 0305 	rsb	r3, fp, r5
  304d88:	42bb      	cmp	r3, r7
  304d8a:	da1b      	bge.n	304dc4 <qspi_xfer_polling_process+0x74>
  304d8c:	68a3      	ldr	r3, [r4, #8]
  304d8e:	3501      	adds	r5, #1
  304d90:	442b      	add	r3, r5
  304d92:	f813 0c01 	ldrb.w	r0, [r3, #-1]
  304d96:	f7ff fe58 	bl	304a4a <qspi_push_data_8bit>
  304d9a:	6863      	ldr	r3, [r4, #4]
  304d9c:	429d      	cmp	r5, r3
  304d9e:	d1f1      	bne.n	304d84 <qspi_xfer_polling_process+0x34>
  304da0:	f8da 3014 	ldr.w	r3, [sl, #20]
  304da4:	2b00      	cmp	r3, #0
  304da6:	dd02      	ble.n	304dae <qspi_xfer_polling_process+0x5e>
  304da8:	2000      	movs	r0, #0
  304daa:	f7ff fe96 	bl	304ada <qspi_tx_empty_inten>
  304dae:	69a3      	ldr	r3, [r4, #24]
  304db0:	f8c4 9000 	str.w	r9, [r4]
  304db4:	2b00      	cmp	r3, #0
  304db6:	dd05      	ble.n	304dc4 <qspi_xfer_polling_process+0x74>
  304db8:	483f      	ldr	r0, [pc, #252]	; (304eb8 <qspi_xfer_polling_process+0x168>)
  304dba:	463a      	mov	r2, r7
  304dbc:	68f1      	ldr	r1, [r6, #12]
  304dbe:	6873      	ldr	r3, [r6, #4]
  304dc0:	f7ff fb04 	bl	3043cc <printf>
  304dc4:	60e5      	str	r5, [r4, #12]
  304dc6:	e06d      	b.n	304ea4 <qspi_xfer_polling_process+0x154>
  304dc8:	f1b8 0f00 	cmp.w	r8, #0
  304dcc:	d16a      	bne.n	304ea4 <qspi_xfer_polling_process+0x154>
  304dce:	f7ff ff23 	bl	304c18 <qspi_polling_raw_status>
  304dd2:	4607      	mov	r7, r0
  304dd4:	2800      	cmp	r0, #0
  304dd6:	d1fa      	bne.n	304dce <qspi_xfer_polling_process+0x7e>
  304dd8:	f7ff fe5b 	bl	304a92 <qspi_get_rx_fifo_d_num>
  304ddc:	4683      	mov	fp, r0
  304dde:	f7ff fc6b 	bl	3046b8 <timer_get_tick>
  304de2:	6925      	ldr	r5, [r4, #16]
  304de4:	6aa3      	ldr	r3, [r4, #40]	; 0x28
  304de6:	2d00      	cmp	r5, #0
  304de8:	bfd8      	it	le
  304dea:	465d      	movle	r5, fp
  304dec:	2b08      	cmp	r3, #8
  304dee:	e9c4 0108 	strd	r0, r1, [r4, #32]
  304df2:	d115      	bne.n	304e20 <qspi_xfer_polling_process+0xd0>
  304df4:	42af      	cmp	r7, r5
  304df6:	da0d      	bge.n	304e14 <qspi_xfer_polling_process+0xc4>
  304df8:	68a3      	ldr	r3, [r4, #8]
  304dfa:	3701      	adds	r7, #1
  304dfc:	f8d4 b00c 	ldr.w	fp, [r4, #12]
  304e00:	9301      	str	r3, [sp, #4]
  304e02:	f10b 0201 	add.w	r2, fp, #1
  304e06:	60e2      	str	r2, [r4, #12]
  304e08:	f7ff fe2b 	bl	304a62 <qspi_get_data_8bit>
  304e0c:	9b01      	ldr	r3, [sp, #4]
  304e0e:	f803 000b 	strb.w	r0, [r3, fp]
  304e12:	e7ef      	b.n	304df4 <qspi_xfer_polling_process+0xa4>
  304e14:	6863      	ldr	r3, [r4, #4]
  304e16:	68e2      	ldr	r2, [r4, #12]
  304e18:	1ad2      	subs	r2, r2, r3
  304e1a:	4253      	negs	r3, r2
  304e1c:	4153      	adcs	r3, r2
  304e1e:	e030      	b.n	304e82 <qspi_xfer_polling_process+0x132>
  304e20:	2b10      	cmp	r3, #16
  304e22:	bf08      	it	eq
  304e24:	68b3      	ldreq	r3, [r6, #8]
  304e26:	d113      	bne.n	304e50 <qspi_xfer_polling_process+0x100>
  304e28:	42af      	cmp	r7, r5
  304e2a:	da0c      	bge.n	304e46 <qspi_xfer_polling_process+0xf6>
  304e2c:	f8d4 b00c 	ldr.w	fp, [r4, #12]
  304e30:	3701      	adds	r7, #1
  304e32:	9301      	str	r3, [sp, #4]
  304e34:	f10b 0201 	add.w	r2, fp, #1
  304e38:	60e2      	str	r2, [r4, #12]
  304e3a:	f7ff fe17 	bl	304a6c <qspi_get_data_16bit>
  304e3e:	9b01      	ldr	r3, [sp, #4]
  304e40:	f823 001b 	strh.w	r0, [r3, fp, lsl #1]
  304e44:	e7f0      	b.n	304e28 <qspi_xfer_polling_process+0xd8>
  304e46:	68e2      	ldr	r2, [r4, #12]
  304e48:	6863      	ldr	r3, [r4, #4]
  304e4a:	ebb3 0f42 	cmp.w	r3, r2, lsl #1
  304e4e:	e015      	b.n	304e7c <qspi_xfer_polling_process+0x12c>
  304e50:	2b20      	cmp	r3, #32
  304e52:	d127      	bne.n	304ea4 <qspi_xfer_polling_process+0x154>
  304e54:	68b3      	ldr	r3, [r6, #8]
  304e56:	42af      	cmp	r7, r5
  304e58:	da0c      	bge.n	304e74 <qspi_xfer_polling_process+0x124>
  304e5a:	f8d4 b00c 	ldr.w	fp, [r4, #12]
  304e5e:	3701      	adds	r7, #1
  304e60:	9301      	str	r3, [sp, #4]
  304e62:	f10b 0201 	add.w	r2, fp, #1
  304e66:	60e2      	str	r2, [r4, #12]
  304e68:	f7ff fe05 	bl	304a76 <qspi_get_data_32bit>
  304e6c:	9b01      	ldr	r3, [sp, #4]
  304e6e:	f843 002b 	str.w	r0, [r3, fp, lsl #2]
  304e72:	e7f0      	b.n	304e56 <qspi_xfer_polling_process+0x106>
  304e74:	68e2      	ldr	r2, [r4, #12]
  304e76:	6863      	ldr	r3, [r4, #4]
  304e78:	ebb3 0f82 	cmp.w	r3, r2, lsl #2
  304e7c:	bf14      	ite	ne
  304e7e:	2300      	movne	r3, #0
  304e80:	2301      	moveq	r3, #1
  304e82:	b17b      	cbz	r3, 304ea4 <qspi_xfer_polling_process+0x154>
  304e84:	6963      	ldr	r3, [r4, #20]
  304e86:	2b00      	cmp	r3, #0
  304e88:	dd02      	ble.n	304e90 <qspi_xfer_polling_process+0x140>
  304e8a:	2000      	movs	r0, #0
  304e8c:	f7ff fe1b 	bl	304ac6 <qspi_rx_full_inten>
  304e90:	69a3      	ldr	r3, [r4, #24]
  304e92:	f8c4 9000 	str.w	r9, [r4]
  304e96:	2b00      	cmp	r3, #0
  304e98:	dd04      	ble.n	304ea4 <qspi_xfer_polling_process+0x154>
  304e9a:	4808      	ldr	r0, [pc, #32]	; (304ebc <qspi_xfer_polling_process+0x16c>)
  304e9c:	4629      	mov	r1, r5
  304e9e:	6872      	ldr	r2, [r6, #4]
  304ea0:	f7ff fa94 	bl	3043cc <printf>
  304ea4:	6823      	ldr	r3, [r4, #0]
  304ea6:	2b00      	cmp	r3, #0
  304ea8:	f47f af5e 	bne.w	304d68 <qspi_xfer_polling_process+0x18>
  304eac:	b003      	add	sp, #12
  304eae:	e8bd 8ff0 	ldmia.w	sp!, {r4, r5, r6, r7, r8, r9, sl, fp, pc}
  304eb2:	bf00      	nop
  304eb4:	003095c0 	eorseq	r9, r0, r0, asr #11
  304eb8:	0030171b 	eorseq	r1, r0, fp, lsl r7
  304ebc:	00301757 	eorseq	r1, r0, r7, asr r7

00304ec0 <qspi_get_timer_tick_save>:
  304ec0:	4b01      	ldr	r3, [pc, #4]	; (304ec8 <qspi_get_timer_tick_save+0x8>)
  304ec2:	e9d3 0108 	ldrd	r0, r1, [r3, #32]
  304ec6:	4770      	bx	lr
  304ec8:	003095c0 	eorseq	r9, r0, r0, asr #11

00304ecc <qspi_wren>:
  304ecc:	b510      	push	{r4, lr}
  304ece:	4604      	mov	r4, r0
  304ed0:	f7ff feda 	bl	304c88 <wait_qspi_hw_idle>
  304ed4:	b128      	cbz	r0, 304ee2 <qspi_wren+0x16>
  304ed6:	4809      	ldr	r0, [pc, #36]	; (304efc <qspi_wren+0x30>)
  304ed8:	f7ff fa78 	bl	3043cc <printf>
  304edc:	f04f 30ff 	mov.w	r0, #4294967295	; 0xffffffff
  304ee0:	bd10      	pop	{r4, pc}
  304ee2:	f7ff fe13 	bl	304b0c <qspi_tx_init>
  304ee6:	f7ff fdab 	bl	304a40 <qspi_reg_enable>
  304eea:	4620      	mov	r0, r4
  304eec:	f7ff fdad 	bl	304a4a <qspi_push_data_8bit>
  304ef0:	f7ff feca 	bl	304c88 <wait_qspi_hw_idle>
  304ef4:	2800      	cmp	r0, #0
  304ef6:	d1ee      	bne.n	304ed6 <qspi_wren+0xa>
  304ef8:	bd10      	pop	{r4, pc}
  304efa:	bf00      	nop
  304efc:	003016fc 	ldrshteq	r1, [r0], -ip

00304f00 <qspi_ahb_read_enable>:
  304f00:	b538      	push	{r3, r4, r5, lr}
  304f02:	4604      	mov	r4, r0
  304f04:	460d      	mov	r5, r1
  304f06:	f7ff febf 	bl	304c88 <wait_qspi_hw_idle>
  304f0a:	b120      	cbz	r0, 304f16 <qspi_ahb_read_enable+0x16>
  304f0c:	480b      	ldr	r0, [pc, #44]	; (304f3c <qspi_ahb_read_enable+0x3c>)
  304f0e:	e8bd 4038 	ldmia.w	sp!, {r3, r4, r5, lr}
  304f12:	f7ff ba5b 	b.w	3043cc <printf>
  304f16:	4629      	mov	r1, r5
  304f18:	4620      	mov	r0, r4
  304f1a:	f7ff fe3b 	bl	304b94 <qspi_rx_init>
  304f1e:	f04f 4330 	mov.w	r3, #2952790016	; 0xb0000000
  304f22:	2201      	movs	r2, #1
  304f24:	655a      	str	r2, [r3, #84]	; 0x54
  304f26:	f7ff fd8b 	bl	304a40 <qspi_reg_enable>
  304f2a:	f7ff fde5 	bl	304af8 <qspi_rx_fifo_flush>
  304f2e:	f7ff fdb8 	bl	304aa2 <qspi_cache_flash>
  304f32:	e8bd 4038 	ldmia.w	sp!, {r3, r4, r5, lr}
  304f36:	f7ff bd7e 	b.w	304a36 <qspi_ahb_enable>
  304f3a:	bf00      	nop
  304f3c:	003016fc 	ldrshteq	r1, [r0], -ip

00304f40 <qspi_ahb_write_enable>:
  304f40:	b508      	push	{r3, lr}
  304f42:	f7ff ffc3 	bl	304ecc <qspi_wren>
  304f46:	e8bd 4008 	ldmia.w	sp!, {r3, lr}
  304f4a:	f7ff bd74 	b.w	304a36 <qspi_ahb_enable>

00304f4e <qspi_send_xx_data>:
  304f4e:	b538      	push	{r3, r4, r5, lr}
  304f50:	4605      	mov	r5, r0
  304f52:	4b14      	ldr	r3, [pc, #80]	; (304fa4 <qspi_send_xx_data+0x56>)
  304f54:	460c      	mov	r4, r1
  304f56:	699b      	ldr	r3, [r3, #24]
  304f58:	2b00      	cmp	r3, #0
  304f5a:	dd02      	ble.n	304f62 <qspi_send_xx_data+0x14>
  304f5c:	4812      	ldr	r0, [pc, #72]	; (304fa8 <qspi_send_xx_data+0x5a>)
  304f5e:	f7ff fa35 	bl	3043cc <printf>
  304f62:	f7ff fe91 	bl	304c88 <wait_qspi_hw_idle>
  304f66:	b128      	cbz	r0, 304f74 <qspi_send_xx_data+0x26>
  304f68:	4810      	ldr	r0, [pc, #64]	; (304fac <qspi_send_xx_data+0x5e>)
  304f6a:	f7ff fa2f 	bl	3043cc <printf>
  304f6e:	f04f 30ff 	mov.w	r0, #4294967295	; 0xffffffff
  304f72:	bd38      	pop	{r3, r4, r5, pc}
  304f74:	f7ff fdca 	bl	304b0c <qspi_tx_init>
  304f78:	2080      	movs	r0, #128	; 0x80
  304f7a:	f7ff fd85 	bl	304a88 <qspi_set_tx_fifo_level>
  304f7e:	4621      	mov	r1, r4
  304f80:	2201      	movs	r2, #1
  304f82:	4628      	mov	r0, r5
  304f84:	f7ff fea2 	bl	304ccc <qspi_xfer_init>
  304f88:	f7ff fd5a 	bl	304a40 <qspi_reg_enable>
  304f8c:	2001      	movs	r0, #1
  304f8e:	f7ff fedf 	bl	304d50 <qspi_xfer_polling_process>
  304f92:	f7ff fe89 	bl	304ca8 <qspi_xfer_wait_done>
  304f96:	2800      	cmp	r0, #0
  304f98:	bf0c      	ite	eq
  304f9a:	4620      	moveq	r0, r4
  304f9c:	f04f 30ff 	movne.w	r0, #4294967295	; 0xffffffff
  304fa0:	bd38      	pop	{r3, r4, r5, pc}
  304fa2:	bf00      	nop
  304fa4:	003095c0 	eorseq	r9, r0, r0, asr #11
  304fa8:	00301784 	eorseq	r1, r0, r4, lsl #15
  304fac:	003016fc 	ldrshteq	r1, [r0], -ip

00304fb0 <qspi_get_rx_ndf>:
  304fb0:	2a08      	cmp	r2, #8
  304fb2:	d01c      	beq.n	304fee <qspi_get_rx_ndf+0x3e>
  304fb4:	283b      	cmp	r0, #59	; 0x3b
  304fb6:	d01a      	beq.n	304fee <qspi_get_rx_ndf+0x3e>
  304fb8:	d803      	bhi.n	304fc2 <qspi_get_rx_ndf+0x12>
  304fba:	2803      	cmp	r0, #3
  304fbc:	d008      	beq.n	304fd0 <qspi_get_rx_ndf+0x20>
  304fbe:	280b      	cmp	r0, #11
  304fc0:	e004      	b.n	304fcc <qspi_get_rx_ndf+0x1c>
  304fc2:	28bb      	cmp	r0, #187	; 0xbb
  304fc4:	d013      	beq.n	304fee <qspi_get_rx_ndf+0x3e>
  304fc6:	28eb      	cmp	r0, #235	; 0xeb
  304fc8:	d011      	beq.n	304fee <qspi_get_rx_ndf+0x3e>
  304fca:	286b      	cmp	r0, #107	; 0x6b
  304fcc:	d10d      	bne.n	304fea <qspi_get_rx_ndf+0x3a>
  304fce:	e00e      	b.n	304fee <qspi_get_rx_ndf+0x3e>
  304fd0:	2a10      	cmp	r2, #16
  304fd2:	d103      	bne.n	304fdc <qspi_get_rx_ndf+0x2c>
  304fd4:	eb01 71d1 	add.w	r1, r1, r1, lsr #31
  304fd8:	1048      	asrs	r0, r1, #1
  304fda:	4770      	bx	lr
  304fdc:	2a20      	cmp	r2, #32
  304fde:	d104      	bne.n	304fea <qspi_get_rx_ndf+0x3a>
  304fe0:	2900      	cmp	r1, #0
  304fe2:	bfb8      	it	lt
  304fe4:	3103      	addlt	r1, #3
  304fe6:	1088      	asrs	r0, r1, #2
  304fe8:	4770      	bx	lr
  304fea:	2000      	movs	r0, #0
  304fec:	4770      	bx	lr
  304fee:	4608      	mov	r0, r1
  304ff0:	4770      	bx	lr

00304ff2 <qspi_get_rx_thr>:
  304ff2:	2908      	cmp	r1, #8
  304ff4:	d00d      	beq.n	305012 <qspi_get_rx_thr+0x20>
  304ff6:	2910      	cmp	r1, #16
  304ff8:	d103      	bne.n	305002 <qspi_get_rx_thr+0x10>
  304ffa:	eb00 70d0 	add.w	r0, r0, r0, lsr #31
  304ffe:	1040      	asrs	r0, r0, #1
  305000:	4770      	bx	lr
  305002:	2920      	cmp	r1, #32
  305004:	d104      	bne.n	305010 <qspi_get_rx_thr+0x1e>
  305006:	2800      	cmp	r0, #0
  305008:	bfb8      	it	lt
  30500a:	3003      	addlt	r0, #3
  30500c:	1080      	asrs	r0, r0, #2
  30500e:	4770      	bx	lr
  305010:	2000      	movs	r0, #0
  305012:	4770      	bx	lr

00305014 <qspi_dma_read_start_once>:
  305014:	b5f8      	push	{r3, r4, r5, r6, r7, lr}
  305016:	4615      	mov	r5, r2
  305018:	2220      	movs	r2, #32
  30501a:	460c      	mov	r4, r1
  30501c:	4607      	mov	r7, r0
  30501e:	f7ff ffc7 	bl	304fb0 <qspi_get_rx_ndf>
  305022:	4606      	mov	r6, r0
  305024:	f7ff fe30 	bl	304c88 <wait_qspi_hw_idle>
  305028:	2000      	movs	r0, #0
  30502a:	f7ff fde9 	bl	304c00 <qspi_set_dma_ctrl>
  30502e:	4638      	mov	r0, r7
  305030:	2120      	movs	r1, #32
  305032:	f7ff fdaf 	bl	304b94 <qspi_rx_init>
  305036:	1e21      	subs	r1, r4, #0
  305038:	bfb8      	it	lt
  30503a:	3103      	addlt	r1, #3
  30503c:	1088      	asrs	r0, r1, #2
  30503e:	3801      	subs	r0, #1
  305040:	f7ff fd1d 	bl	304a7e <qspi_set_rx_fifo_level>
  305044:	1e70      	subs	r0, r6, #1
  305046:	f7ff fd52 	bl	304aee <qspi_set_rx_ndf>
  30504a:	4628      	mov	r0, r5
  30504c:	f7ff fde0 	bl	304c10 <qspi_set_dma_rdlr>
  305050:	2001      	movs	r0, #1
  305052:	f7ff fdd5 	bl	304c00 <qspi_set_dma_ctrl>
  305056:	f3bf 8f6f 	isb	sy
  30505a:	2000      	movs	r0, #0
  30505c:	bdf8      	pop	{r3, r4, r5, r6, r7, pc}

0030505e <qspi_dma_read_start_new>:
  30505e:	b538      	push	{r3, r4, r5, lr}
  305060:	4604      	mov	r4, r0
  305062:	460d      	mov	r5, r1
  305064:	f7ff fe10 	bl	304c88 <wait_qspi_hw_idle>
  305068:	f7ff fcea 	bl	304a40 <qspi_reg_enable>
  30506c:	ea45 6004 	orr.w	r0, r5, r4, lsl #24
  305070:	f7ff fcf3 	bl	304a5a <qspi_push_data_32bit>
  305074:	2000      	movs	r0, #0
  305076:	bd38      	pop	{r3, r4, r5, pc}

00305078 <qspi_read_page_data>:
  305078:	e92d 4ff0 	stmdb	sp!, {r4, r5, r6, r7, r8, r9, sl, fp, lr}
  30507c:	b085      	sub	sp, #20
  30507e:	f8df a12c 	ldr.w	sl, [pc, #300]	; 3051ac <qspi_read_page_data+0x134>
  305082:	4607      	mov	r7, r0
  305084:	9e0e      	ldr	r6, [sp, #56]	; 0x38
  305086:	4618      	mov	r0, r3
  305088:	460d      	mov	r5, r1
  30508a:	461c      	mov	r4, r3
  30508c:	4693      	mov	fp, r2
  30508e:	4631      	mov	r1, r6
  305090:	f8ca 6028 	str.w	r6, [sl, #40]	; 0x28
  305094:	f7ff ffad 	bl	304ff2 <qspi_get_rx_thr>
  305098:	4621      	mov	r1, r4
  30509a:	4632      	mov	r2, r6
  30509c:	4680      	mov	r8, r0
  30509e:	4638      	mov	r0, r7
  3050a0:	f7ff ff86 	bl	304fb0 <qspi_get_rx_ndf>
  3050a4:	f8da 3018 	ldr.w	r3, [sl, #24]
  3050a8:	2b00      	cmp	r3, #0
  3050aa:	4681      	mov	r9, r0
  3050ac:	dd08      	ble.n	3050c0 <qspi_read_page_data+0x48>
  3050ae:	9000      	str	r0, [sp, #0]
  3050b0:	4639      	mov	r1, r7
  3050b2:	f8cd 8004 	str.w	r8, [sp, #4]
  3050b6:	462a      	mov	r2, r5
  3050b8:	483a      	ldr	r0, [pc, #232]	; (3051a4 <qspi_read_page_data+0x12c>)
  3050ba:	4623      	mov	r3, r4
  3050bc:	f7ff f986 	bl	3043cc <printf>
  3050c0:	f5b4 7f80 	cmp.w	r4, #256	; 0x100
  3050c4:	dc0c      	bgt.n	3050e0 <qspi_read_page_data+0x68>
  3050c6:	f1b9 0f00 	cmp.w	r9, #0
  3050ca:	d009      	beq.n	3050e0 <qspi_read_page_data+0x68>
  3050cc:	f1b8 0f00 	cmp.w	r8, #0
  3050d0:	d006      	beq.n	3050e0 <qspi_read_page_data+0x68>
  3050d2:	f7ff fdd9 	bl	304c88 <wait_qspi_hw_idle>
  3050d6:	4602      	mov	r2, r0
  3050d8:	b128      	cbz	r0, 3050e6 <qspi_read_page_data+0x6e>
  3050da:	4833      	ldr	r0, [pc, #204]	; (3051a8 <qspi_read_page_data+0x130>)
  3050dc:	f7ff f976 	bl	3043cc <printf>
  3050e0:	f04f 30ff 	mov.w	r0, #4294967295	; 0xffffffff
  3050e4:	e05a      	b.n	30519c <qspi_read_page_data+0x124>
  3050e6:	b2f1      	uxtb	r1, r6
  3050e8:	4638      	mov	r0, r7
  3050ea:	9203      	str	r2, [sp, #12]
  3050ec:	f7ff fd52 	bl	304b94 <qspi_rx_init>
  3050f0:	f109 30ff 	add.w	r0, r9, #4294967295	; 0xffffffff
  3050f4:	f7ff fcfb 	bl	304aee <qspi_set_rx_ndf>
  3050f8:	f108 30ff 	add.w	r0, r8, #4294967295	; 0xffffffff
  3050fc:	f7ff fcbf 	bl	304a7e <qspi_set_rx_fifo_level>
  305100:	4658      	mov	r0, fp
  305102:	4621      	mov	r1, r4
  305104:	9a03      	ldr	r2, [sp, #12]
  305106:	f7ff fde1 	bl	304ccc <qspi_xfer_init>
  30510a:	f8da 302c 	ldr.w	r3, [sl, #44]	; 0x2c
  30510e:	2b00      	cmp	r3, #0
  305110:	dd0f      	ble.n	305132 <qspi_read_page_data+0xba>
  305112:	f5b4 7f80 	cmp.w	r4, #256	; 0x100
  305116:	d10c      	bne.n	305132 <qspi_read_page_data+0xba>
  305118:	f1b8 0f00 	cmp.w	r8, #0
  30511c:	bfb8      	it	lt
  30511e:	f108 0807 	addlt.w	r8, r8, #7
  305122:	ea4f 08e8 	mov.w	r8, r8, asr #3
  305126:	f108 30ff 	add.w	r0, r8, #4294967295	; 0xffffffff
  30512a:	f7ff fca8 	bl	304a7e <qspi_set_rx_fifo_level>
  30512e:	f8ca 8010 	str.w	r8, [sl, #16]
  305132:	f7ff fc85 	bl	304a40 <qspi_reg_enable>
  305136:	f7ff fcdf 	bl	304af8 <qspi_rx_fifo_flush>
  30513a:	f3bf 8f6f 	isb	sy
  30513e:	f3bf 8f5f 	dmb	sy
  305142:	f3bf 8f4f 	dsb	sy
  305146:	2e08      	cmp	r6, #8
  305148:	d10e      	bne.n	305168 <qspi_read_page_data+0xf0>
  30514a:	4638      	mov	r0, r7
  30514c:	f7ff fc7d 	bl	304a4a <qspi_push_data_8bit>
  305150:	f3c5 4007 	ubfx	r0, r5, #16, #8
  305154:	f7ff fc79 	bl	304a4a <qspi_push_data_8bit>
  305158:	f3c5 2007 	ubfx	r0, r5, #8, #8
  30515c:	f7ff fc75 	bl	304a4a <qspi_push_data_8bit>
  305160:	b2e8      	uxtb	r0, r5
  305162:	f7ff fc72 	bl	304a4a <qspi_push_data_8bit>
  305166:	e011      	b.n	30518c <qspi_read_page_data+0x114>
  305168:	2e10      	cmp	r6, #16
  30516a:	d109      	bne.n	305180 <qspi_read_page_data+0x108>
  30516c:	f3c5 4007 	ubfx	r0, r5, #16, #8
  305170:	ea40 2007 	orr.w	r0, r0, r7, lsl #8
  305174:	f7ff fc6d 	bl	304a52 <qspi_push_data_16bit>
  305178:	b2a8      	uxth	r0, r5
  30517a:	f7ff fc6a 	bl	304a52 <qspi_push_data_16bit>
  30517e:	e005      	b.n	30518c <qspi_read_page_data+0x114>
  305180:	2e20      	cmp	r6, #32
  305182:	d103      	bne.n	30518c <qspi_read_page_data+0x114>
  305184:	ea45 6007 	orr.w	r0, r5, r7, lsl #24
  305188:	f7ff fc67 	bl	304a5a <qspi_push_data_32bit>
  30518c:	2000      	movs	r0, #0
  30518e:	f7ff fddf 	bl	304d50 <qspi_xfer_polling_process>
  305192:	f7ff fd89 	bl	304ca8 <qspi_xfer_wait_done>
  305196:	2800      	cmp	r0, #0
  305198:	d1a2      	bne.n	3050e0 <qspi_read_page_data+0x68>
  30519a:	4620      	mov	r0, r4
  30519c:	b005      	add	sp, #20
  30519e:	e8bd 8ff0 	ldmia.w	sp!, {r4, r5, r6, r7, r8, r9, sl, fp, pc}
  3051a2:	bf00      	nop
  3051a4:	003017a4 	eorseq	r1, r0, r4, lsr #15
  3051a8:	003016fc 	ldrshteq	r1, [r0], -ip
  3051ac:	003095c0 	eorseq	r9, r0, r0, asr #11

003051b0 <qspi_dma_write_page>:
  3051b0:	e92d 41ff 	stmdb	sp!, {r0, r1, r2, r3, r4, r5, r6, r7, r8, lr}
  3051b4:	4680      	mov	r8, r0
  3051b6:	2000      	movs	r0, #0
  3051b8:	460c      	mov	r4, r1
  3051ba:	4617      	mov	r7, r2
  3051bc:	461d      	mov	r5, r3
  3051be:	9e0a      	ldr	r6, [sp, #40]	; 0x28
  3051c0:	f001 f825 	bl	30620e <is_dma_init>
  3051c4:	b908      	cbnz	r0, 3051ca <qspi_dma_write_page+0x1a>
  3051c6:	f001 f81d 	bl	306204 <dmac_enable>
  3051ca:	2e08      	cmp	r6, #8
  3051cc:	d10b      	bne.n	3051e6 <qspi_dma_write_page+0x36>
  3051ce:	4b2e      	ldr	r3, [pc, #184]	; (305288 <qspi_dma_write_page+0xd8>)
  3051d0:	0c22      	lsrs	r2, r4, #16
  3051d2:	f883 8040 	strb.w	r8, [r3, #64]	; 0x40
  3051d6:	f883 2041 	strb.w	r2, [r3, #65]	; 0x41
  3051da:	0a22      	lsrs	r2, r4, #8
  3051dc:	f883 4043 	strb.w	r4, [r3, #67]	; 0x43
  3051e0:	f883 2042 	strb.w	r2, [r3, #66]	; 0x42
  3051e4:	e012      	b.n	30520c <qspi_dma_write_page+0x5c>
  3051e6:	2e20      	cmp	r6, #32
  3051e8:	d10b      	bne.n	305202 <qspi_dma_write_page+0x52>
  3051ea:	4b27      	ldr	r3, [pc, #156]	; (305288 <qspi_dma_write_page+0xd8>)
  3051ec:	0c22      	lsrs	r2, r4, #16
  3051ee:	f883 8043 	strb.w	r8, [r3, #67]	; 0x43
  3051f2:	f883 2042 	strb.w	r2, [r3, #66]	; 0x42
  3051f6:	0a22      	lsrs	r2, r4, #8
  3051f8:	f883 4040 	strb.w	r4, [r3, #64]	; 0x40
  3051fc:	f883 2041 	strb.w	r2, [r3, #65]	; 0x41
  305200:	e004      	b.n	30520c <qspi_dma_write_page+0x5c>
  305202:	4631      	mov	r1, r6
  305204:	4821      	ldr	r0, [pc, #132]	; (30528c <qspi_dma_write_page+0xdc>)
  305206:	f7ff f8e1 	bl	3043cc <printf>
  30520a:	e033      	b.n	305274 <qspi_dma_write_page+0xc4>
  30520c:	b12d      	cbz	r5, 30521a <qspi_dma_write_page+0x6a>
  30520e:	b127      	cbz	r7, 30521a <qspi_dma_write_page+0x6a>
  305210:	481f      	ldr	r0, [pc, #124]	; (305290 <qspi_dma_write_page+0xe0>)
  305212:	4639      	mov	r1, r7
  305214:	462a      	mov	r2, r5
  305216:	f7fd fe34 	bl	302e82 <memcpy>
  30521a:	f7fb f972 	bl	300502 <is_mmu_enable>
  30521e:	b120      	cbz	r0, 30522a <qspi_dma_write_page+0x7a>
  305220:	481c      	ldr	r0, [pc, #112]	; (305294 <qspi_dma_write_page+0xe4>)
  305222:	1d01      	adds	r1, r0, #4
  305224:	4429      	add	r1, r5
  305226:	f7fb e8bc 	blx	3003a0 <v7_dma_clean_range>
  30522a:	4630      	mov	r0, r6
  30522c:	f7ff fd6a 	bl	304d04 <qspi_dma_write_start>
  305230:	3001      	adds	r0, #1
  305232:	d01f      	beq.n	305274 <qspi_dma_write_page+0xc4>
  305234:	f3bf 8f6f 	isb	sy
  305238:	f3bf 8f4f 	dsb	sy
  30523c:	f7ff fd20 	bl	304c80 <get_qspiflash_dr>
  305240:	1d2b      	adds	r3, r5, #4
  305242:	2101      	movs	r1, #1
  305244:	e88d 0048 	stmia.w	sp, {r3, r6}
  305248:	9102      	str	r1, [sp, #8]
  30524a:	4b12      	ldr	r3, [pc, #72]	; (305294 <qspi_dma_write_page+0xe4>)
  30524c:	4602      	mov	r2, r0
  30524e:	2000      	movs	r0, #0
  305250:	9003      	str	r0, [sp, #12]
  305252:	f001 f9fe 	bl	306652 <dma_qspiflash_write_page_polling>
  305256:	b968      	cbnz	r0, 305274 <qspi_dma_write_page+0xc4>
  305258:	f3bf 8f6f 	isb	sy
  30525c:	f3bf 8f4f 	dsb	sy
  305260:	2101      	movs	r1, #1
  305262:	4602      	mov	r2, r0
  305264:	f001 f856 	bl	306314 <dma_wait_channel_done_polling>
  305268:	f7ff fd0e 	bl	304c88 <wait_qspi_hw_idle>
  30526c:	b128      	cbz	r0, 30527a <qspi_dma_write_page+0xca>
  30526e:	480a      	ldr	r0, [pc, #40]	; (305298 <qspi_dma_write_page+0xe8>)
  305270:	f7ff f8ac 	bl	3043cc <printf>
  305274:	f04f 30ff 	mov.w	r0, #4294967295	; 0xffffffff
  305278:	e002      	b.n	305280 <qspi_dma_write_page+0xd0>
  30527a:	f7ff fcc1 	bl	304c00 <qspi_set_dma_ctrl>
  30527e:	4628      	mov	r0, r5
  305280:	b004      	add	sp, #16
  305282:	e8bd 81f0 	ldmia.w	sp!, {r4, r5, r6, r7, r8, pc}
  305286:	bf00      	nop
  305288:	003095c0 	eorseq	r9, r0, r0, asr #11
  30528c:	003017de 	ldrsbteq	r1, [r0], -lr
  305290:	00309604 	eorseq	r9, r0, r4, lsl #12
  305294:	00309600 	eorseq	r9, r0, r0, lsl #12
  305298:	003016fc 	ldrshteq	r1, [r0], -ip

0030529c <qspi_dma_send_read_cmd>:
  30529c:	e92d 43f0 	stmdb	sp!, {r4, r5, r6, r7, r8, r9, lr}
  3052a0:	b085      	sub	sp, #20
  3052a2:	4606      	mov	r6, r0
  3052a4:	2000      	movs	r0, #0
  3052a6:	460c      	mov	r4, r1
  3052a8:	4690      	mov	r8, r2
  3052aa:	461f      	mov	r7, r3
  3052ac:	9d0c      	ldr	r5, [sp, #48]	; 0x30
  3052ae:	f000 ffae 	bl	30620e <is_dma_init>
  3052b2:	b908      	cbnz	r0, 3052b8 <qspi_dma_send_read_cmd+0x1c>
  3052b4:	f000 ffa6 	bl	306204 <dmac_enable>
  3052b8:	2d08      	cmp	r5, #8
  3052ba:	d10b      	bne.n	3052d4 <qspi_dma_send_read_cmd+0x38>
  3052bc:	4935      	ldr	r1, [pc, #212]	; (305394 <qspi_dma_send_read_cmd+0xf8>)
  3052be:	0c23      	lsrs	r3, r4, #16
  3052c0:	f881 6040 	strb.w	r6, [r1, #64]	; 0x40
  3052c4:	f881 3041 	strb.w	r3, [r1, #65]	; 0x41
  3052c8:	0a23      	lsrs	r3, r4, #8
  3052ca:	f881 4043 	strb.w	r4, [r1, #67]	; 0x43
  3052ce:	f881 3042 	strb.w	r3, [r1, #66]	; 0x42
  3052d2:	e012      	b.n	3052fa <qspi_dma_send_read_cmd+0x5e>
  3052d4:	2d20      	cmp	r5, #32
  3052d6:	d10b      	bne.n	3052f0 <qspi_dma_send_read_cmd+0x54>
  3052d8:	492e      	ldr	r1, [pc, #184]	; (305394 <qspi_dma_send_read_cmd+0xf8>)
  3052da:	0c23      	lsrs	r3, r4, #16
  3052dc:	f881 6043 	strb.w	r6, [r1, #67]	; 0x43
  3052e0:	f881 3042 	strb.w	r3, [r1, #66]	; 0x42
  3052e4:	0a23      	lsrs	r3, r4, #8
  3052e6:	f881 4040 	strb.w	r4, [r1, #64]	; 0x40
  3052ea:	f881 3041 	strb.w	r3, [r1, #65]	; 0x41
  3052ee:	e004      	b.n	3052fa <qspi_dma_send_read_cmd+0x5e>
  3052f0:	4629      	mov	r1, r5
  3052f2:	4829      	ldr	r0, [pc, #164]	; (305398 <qspi_dma_send_read_cmd+0xfc>)
  3052f4:	f7ff f86a 	bl	3043cc <printf>
  3052f8:	e047      	b.n	30538a <qspi_dma_send_read_cmd+0xee>
  3052fa:	f7fb f902 	bl	300502 <is_mmu_enable>
  3052fe:	b118      	cbz	r0, 305308 <qspi_dma_send_read_cmd+0x6c>
  305300:	4826      	ldr	r0, [pc, #152]	; (30539c <qspi_dma_send_read_cmd+0x100>)
  305302:	1d01      	adds	r1, r0, #4
  305304:	f7fb e84c 	blx	3003a0 <v7_dma_clean_range>
  305308:	f7ff fcbe 	bl	304c88 <wait_qspi_hw_idle>
  30530c:	4681      	mov	r9, r0
  30530e:	b118      	cbz	r0, 305318 <qspi_dma_send_read_cmd+0x7c>
  305310:	4823      	ldr	r0, [pc, #140]	; (3053a0 <qspi_dma_send_read_cmd+0x104>)
  305312:	f7ff f85b 	bl	3043cc <printf>
  305316:	e038      	b.n	30538a <qspi_dma_send_read_cmd+0xee>
  305318:	f04f 4430 	mov.w	r4, #2952790016	; 0xb0000000
  30531c:	f7ff fc70 	bl	304c00 <qspi_set_dma_ctrl>
  305320:	2108      	movs	r1, #8
  305322:	f8c4 9008 	str.w	r9, [r4, #8]
  305326:	4630      	mov	r0, r6
  305328:	f7ff fc08 	bl	304b3c <qspi_rx_get_e2prmode>
  30532c:	6020      	str	r0, [r4, #0]
  30532e:	f108 30ff 	add.w	r0, r8, #4294967295	; 0xffffffff
  305332:	64a6      	str	r6, [r4, #72]	; 0x48
  305334:	f7ff fba3 	bl	304a7e <qspi_set_rx_fifo_level>
  305338:	1e78      	subs	r0, r7, #1
  30533a:	f7ff fbd8 	bl	304aee <qspi_set_rx_ndf>
  30533e:	2080      	movs	r0, #128	; 0x80
  305340:	f7ff fba2 	bl	304a88 <qspi_set_tx_fifo_level>
  305344:	1e68      	subs	r0, r5, #1
  305346:	f7ff fc5f 	bl	304c08 <qspi_set_dma_tdlr>
  30534a:	2002      	movs	r0, #2
  30534c:	f7ff fc58 	bl	304c00 <qspi_set_dma_ctrl>
  305350:	f3bf 8f6f 	isb	sy
  305354:	f7ff fb74 	bl	304a40 <qspi_reg_enable>
  305358:	f3bf 8f6f 	isb	sy
  30535c:	f3bf 8f4f 	dsb	sy
  305360:	f7ff fc8e 	bl	304c80 <get_qspiflash_dr>
  305364:	2304      	movs	r3, #4
  305366:	e88d 0028 	stmia.w	sp, {r3, r5}
  30536a:	2301      	movs	r3, #1
  30536c:	9302      	str	r3, [sp, #8]
  30536e:	4b0b      	ldr	r3, [pc, #44]	; (30539c <qspi_dma_send_read_cmd+0x100>)
  305370:	4602      	mov	r2, r0
  305372:	2000      	movs	r0, #0
  305374:	4601      	mov	r1, r0
  305376:	9003      	str	r0, [sp, #12]
  305378:	f001 f96b 	bl	306652 <dma_qspiflash_write_page_polling>
  30537c:	b928      	cbnz	r0, 30538a <qspi_dma_send_read_cmd+0xee>
  30537e:	f3bf 8f6f 	isb	sy
  305382:	f3bf 8f4f 	dsb	sy
  305386:	2004      	movs	r0, #4
  305388:	e001      	b.n	30538e <qspi_dma_send_read_cmd+0xf2>
  30538a:	f04f 30ff 	mov.w	r0, #4294967295	; 0xffffffff
  30538e:	b005      	add	sp, #20
  305390:	e8bd 83f0 	ldmia.w	sp!, {r4, r5, r6, r7, r8, r9, pc}
  305394:	003095c0 	eorseq	r9, r0, r0, asr #11
  305398:	003017de 	ldrsbteq	r1, [r0], -lr
  30539c:	00309600 	eorseq	r9, r0, r0, lsl #12
  3053a0:	003016fc 	ldrshteq	r1, [r0], -ip

003053a4 <qspi_dma_read_start>:
  3053a4:	e92d 43f7 	stmdb	sp!, {r0, r1, r2, r4, r5, r6, r7, r8, r9, lr}
  3053a8:	f013 0503 	ands.w	r5, r3, #3
  3053ac:	4607      	mov	r7, r0
  3053ae:	4688      	mov	r8, r1
  3053b0:	461c      	mov	r4, r3
  3053b2:	d117      	bne.n	3053e4 <qspi_dma_read_start+0x40>
  3053b4:	4619      	mov	r1, r3
  3053b6:	2220      	movs	r2, #32
  3053b8:	f7ff fdfa 	bl	304fb0 <qspi_get_rx_ndf>
  3053bc:	2c00      	cmp	r4, #0
  3053be:	4623      	mov	r3, r4
  3053c0:	bfb8      	it	lt
  3053c2:	1ce3      	addlt	r3, r4, #3
  3053c4:	f5b4 7f80 	cmp.w	r4, #256	; 0x100
  3053c8:	ea4f 09a3 	mov.w	r9, r3, asr #2
  3053cc:	4606      	mov	r6, r0
  3053ce:	dc06      	bgt.n	3053de <qspi_dma_read_start+0x3a>
  3053d0:	b128      	cbz	r0, 3053de <qspi_dma_read_start+0x3a>
  3053d2:	f7ff fc59 	bl	304c88 <wait_qspi_hw_idle>
  3053d6:	b1f0      	cbz	r0, 305416 <qspi_dma_read_start+0x72>
  3053d8:	4818      	ldr	r0, [pc, #96]	; (30543c <qspi_dma_read_start+0x98>)
  3053da:	f7fe fff7 	bl	3043cc <printf>
  3053de:	f04f 30ff 	mov.w	r0, #4294967295	; 0xffffffff
  3053e2:	e027      	b.n	305434 <qspi_dma_read_start+0x90>
  3053e4:	f5b3 7f80 	cmp.w	r3, #256	; 0x100
  3053e8:	dcf9      	bgt.n	3053de <qspi_dma_read_start+0x3a>
  3053ea:	2208      	movs	r2, #8
  3053ec:	9200      	str	r2, [sp, #0]
  3053ee:	461a      	mov	r2, r3
  3053f0:	f7ff ff54 	bl	30529c <qspi_dma_send_read_cmd>
  3053f4:	2000      	movs	r0, #0
  3053f6:	f7ff fc0b 	bl	304c10 <qspi_set_dma_rdlr>
  3053fa:	2001      	movs	r0, #1
  3053fc:	f7ff fc00 	bl	304c00 <qspi_set_dma_ctrl>
  305400:	f3bf 8f6f 	isb	sy
  305404:	b92d      	cbnz	r5, 305412 <qspi_dma_read_start+0x6e>
  305406:	f7ff fb1b 	bl	304a40 <qspi_reg_enable>
  30540a:	ea48 6007 	orr.w	r0, r8, r7, lsl #24
  30540e:	f7ff fb24 	bl	304a5a <qspi_push_data_32bit>
  305412:	2000      	movs	r0, #0
  305414:	e00e      	b.n	305434 <qspi_dma_read_start+0x90>
  305416:	f7ff fbf3 	bl	304c00 <qspi_set_dma_ctrl>
  30541a:	2120      	movs	r1, #32
  30541c:	4638      	mov	r0, r7
  30541e:	f7ff fbb9 	bl	304b94 <qspi_rx_init>
  305422:	f109 30ff 	add.w	r0, r9, #4294967295	; 0xffffffff
  305426:	f7ff fb2a 	bl	304a7e <qspi_set_rx_fifo_level>
  30542a:	1e70      	subs	r0, r6, #1
  30542c:	f7ff fb5f 	bl	304aee <qspi_set_rx_ndf>
  305430:	980a      	ldr	r0, [sp, #40]	; 0x28
  305432:	e7e0      	b.n	3053f6 <qspi_dma_read_start+0x52>
  305434:	b003      	add	sp, #12
  305436:	e8bd 83f0 	ldmia.w	sp!, {r4, r5, r6, r7, r8, r9, pc}
  30543a:	bf00      	nop
  30543c:	003016fc 	ldrshteq	r1, [r0], -ip

00305440 <qspi_dma_read_page>:
  305440:	e92d 47ff 	stmdb	sp!, {r0, r1, r2, r3, r4, r5, r6, r7, r8, r9, sl, lr}
  305444:	f013 0803 	ands.w	r8, r3, #3
  305448:	4682      	mov	sl, r0
  30544a:	f04f 0000 	mov.w	r0, #0
  30544e:	bf13      	iteet	ne
  305450:	2600      	movne	r6, #0
  305452:	2603      	moveq	r6, #3
  305454:	2702      	moveq	r7, #2
  305456:	4637      	movne	r7, r6
  305458:	4689      	mov	r9, r1
  30545a:	4615      	mov	r5, r2
  30545c:	461c      	mov	r4, r3
  30545e:	f000 fed6 	bl	30620e <is_dma_init>
  305462:	b908      	cbnz	r0, 305468 <qspi_dma_read_page+0x28>
  305464:	f000 fece 	bl	306204 <dmac_enable>
  305468:	1929      	adds	r1, r5, r4
  30546a:	4628      	mov	r0, r5
  30546c:	f7fa ef74 	blx	300358 <v7_dma_inv_range>
  305470:	f7ff fc06 	bl	304c80 <get_qspiflash_dr>
  305474:	9602      	str	r6, [sp, #8]
  305476:	2600      	movs	r6, #0
  305478:	462b      	mov	r3, r5
  30547a:	2101      	movs	r1, #1
  30547c:	e88d 0090 	stmia.w	sp, {r4, r7}
  305480:	9603      	str	r6, [sp, #12]
  305482:	4602      	mov	r2, r0
  305484:	4630      	mov	r0, r6
  305486:	f001 f8c1 	bl	30660c <dma_qspiflash_read_polling_new>
  30548a:	230f      	movs	r3, #15
  30548c:	462a      	mov	r2, r5
  30548e:	9300      	str	r3, [sp, #0]
  305490:	4650      	mov	r0, sl
  305492:	4649      	mov	r1, r9
  305494:	4623      	mov	r3, r4
  305496:	f7ff ff85 	bl	3053a4 <qspi_dma_read_start>
  30549a:	4605      	mov	r5, r0
  30549c:	f1b8 0f00 	cmp.w	r8, #0
  3054a0:	d004      	beq.n	3054ac <qspi_dma_read_page+0x6c>
  3054a2:	4630      	mov	r0, r6
  3054a4:	4631      	mov	r1, r6
  3054a6:	4632      	mov	r2, r6
  3054a8:	f000 ff34 	bl	306314 <dma_wait_channel_done_polling>
  3054ac:	2000      	movs	r0, #0
  3054ae:	2101      	movs	r1, #1
  3054b0:	4602      	mov	r2, r0
  3054b2:	f000 ff2f 	bl	306314 <dma_wait_channel_done_polling>
  3054b6:	f7ff fab7 	bl	304a28 <qspi_hw_init>
  3054ba:	f1b5 3fff 	cmp.w	r5, #4294967295	; 0xffffffff
  3054be:	bf14      	ite	ne
  3054c0:	4620      	movne	r0, r4
  3054c2:	f04f 30ff 	moveq.w	r0, #4294967295	; 0xffffffff
  3054c6:	b004      	add	sp, #16
  3054c8:	e8bd 87f0 	ldmia.w	sp!, {r4, r5, r6, r7, r8, r9, sl, pc}

003054cc <qspi_dma_send_cmd_data>:
  3054cc:	b57f      	push	{r0, r1, r2, r3, r4, r5, r6, lr}
  3054ce:	4606      	mov	r6, r0
  3054d0:	2000      	movs	r0, #0
  3054d2:	460d      	mov	r5, r1
  3054d4:	f000 fe9b 	bl	30620e <is_dma_init>
  3054d8:	b908      	cbnz	r0, 3054de <qspi_dma_send_cmd_data+0x12>
  3054da:	f000 fe93 	bl	306204 <dmac_enable>
  3054de:	4c20      	ldr	r4, [pc, #128]	; (305560 <qspi_dma_send_cmd_data+0x94>)
  3054e0:	f884 6040 	strb.w	r6, [r4, #64]	; 0x40
  3054e4:	f884 5041 	strb.w	r5, [r4, #65]	; 0x41
  3054e8:	f7fb f80b 	bl	300502 <is_mmu_enable>
  3054ec:	b128      	cbz	r0, 3054fa <qspi_dma_send_cmd_data+0x2e>
  3054ee:	f104 0040 	add.w	r0, r4, #64	; 0x40
  3054f2:	f104 0142 	add.w	r1, r4, #66	; 0x42
  3054f6:	f7fa ef54 	blx	3003a0 <v7_dma_clean_range>
  3054fa:	2008      	movs	r0, #8
  3054fc:	f7ff fc02 	bl	304d04 <qspi_dma_write_start>
  305500:	3001      	adds	r0, #1
  305502:	d026      	beq.n	305552 <qspi_dma_send_cmd_data+0x86>
  305504:	f3bf 8f6f 	isb	sy
  305508:	f3bf 8f4f 	dsb	sy
  30550c:	f7ff fbb8 	bl	304c80 <get_qspiflash_dr>
  305510:	2608      	movs	r6, #8
  305512:	2302      	movs	r3, #2
  305514:	2101      	movs	r1, #1
  305516:	e88d 0048 	stmia.w	sp, {r3, r6}
  30551a:	9102      	str	r1, [sp, #8]
  30551c:	4b11      	ldr	r3, [pc, #68]	; (305564 <qspi_dma_send_cmd_data+0x98>)
  30551e:	4602      	mov	r2, r0
  305520:	2000      	movs	r0, #0
  305522:	9003      	str	r0, [sp, #12]
  305524:	f001 f895 	bl	306652 <dma_qspiflash_write_page_polling>
  305528:	4604      	mov	r4, r0
  30552a:	b9a0      	cbnz	r0, 305556 <qspi_dma_send_cmd_data+0x8a>
  30552c:	f3bf 8f6f 	isb	sy
  305530:	f3bf 8f4f 	dsb	sy
  305534:	2000      	movs	r0, #0
  305536:	2101      	movs	r1, #1
  305538:	4602      	mov	r2, r0
  30553a:	f000 feeb 	bl	306314 <dma_wait_channel_done_polling>
  30553e:	f7ff fba3 	bl	304c88 <wait_qspi_hw_idle>
  305542:	b118      	cbz	r0, 30554c <qspi_dma_send_cmd_data+0x80>
  305544:	4808      	ldr	r0, [pc, #32]	; (305568 <qspi_dma_send_cmd_data+0x9c>)
  305546:	f7fe ff41 	bl	3043cc <printf>
  30554a:	e004      	b.n	305556 <qspi_dma_send_cmd_data+0x8a>
  30554c:	f7ff fb58 	bl	304c00 <qspi_set_dma_ctrl>
  305550:	e003      	b.n	30555a <qspi_dma_send_cmd_data+0x8e>
  305552:	2400      	movs	r4, #0
  305554:	e001      	b.n	30555a <qspi_dma_send_cmd_data+0x8e>
  305556:	f04f 34ff 	mov.w	r4, #4294967295	; 0xffffffff
  30555a:	4620      	mov	r0, r4
  30555c:	b004      	add	sp, #16
  30555e:	bd70      	pop	{r4, r5, r6, pc}
  305560:	003095c0 	eorseq	r9, r0, r0, asr #11
  305564:	00309600 	eorseq	r9, r0, r0, lsl #12
  305568:	003016fc 	ldrshteq	r1, [r0], -ip

0030556c <spansion_qspi_dma_send_cmd_data>:
  30556c:	b57f      	push	{r0, r1, r2, r3, r4, r5, r6, lr}
  30556e:	4606      	mov	r6, r0
  305570:	2000      	movs	r0, #0
  305572:	460d      	mov	r5, r1
  305574:	4614      	mov	r4, r2
  305576:	f000 fe4a 	bl	30620e <is_dma_init>
  30557a:	b908      	cbnz	r0, 305580 <spansion_qspi_dma_send_cmd_data+0x14>
  30557c:	f000 fe42 	bl	306204 <dmac_enable>
  305580:	4a21      	ldr	r2, [pc, #132]	; (305608 <spansion_qspi_dma_send_cmd_data+0x9c>)
  305582:	2300      	movs	r3, #0
  305584:	f802 6f40 	strb.w	r6, [r2, #64]!
  305588:	42a3      	cmp	r3, r4
  30558a:	d005      	beq.n	305598 <spansion_qspi_dma_send_cmd_data+0x2c>
  30558c:	3301      	adds	r3, #1
  30558e:	18e9      	adds	r1, r5, r3
  305590:	f811 1c01 	ldrb.w	r1, [r1, #-1]
  305594:	5499      	strb	r1, [r3, r2]
  305596:	e7f7      	b.n	305588 <spansion_qspi_dma_send_cmd_data+0x1c>
  305598:	f7fa ffb3 	bl	300502 <is_mmu_enable>
  30559c:	b120      	cbz	r0, 3055a8 <spansion_qspi_dma_send_cmd_data+0x3c>
  30559e:	491b      	ldr	r1, [pc, #108]	; (30560c <spansion_qspi_dma_send_cmd_data+0xa0>)
  3055a0:	1e48      	subs	r0, r1, #1
  3055a2:	4421      	add	r1, r4
  3055a4:	f7fa eefc 	blx	3003a0 <v7_dma_clean_range>
  3055a8:	2008      	movs	r0, #8
  3055aa:	f7ff fbab 	bl	304d04 <qspi_dma_write_start>
  3055ae:	3001      	adds	r0, #1
  3055b0:	d022      	beq.n	3055f8 <spansion_qspi_dma_send_cmd_data+0x8c>
  3055b2:	f3bf 8f6f 	isb	sy
  3055b6:	f3bf 8f4f 	dsb	sy
  3055ba:	f7ff fb61 	bl	304c80 <get_qspiflash_dr>
  3055be:	3401      	adds	r4, #1
  3055c0:	2308      	movs	r3, #8
  3055c2:	9400      	str	r4, [sp, #0]
  3055c4:	9301      	str	r3, [sp, #4]
  3055c6:	2101      	movs	r1, #1
  3055c8:	4b11      	ldr	r3, [pc, #68]	; (305610 <spansion_qspi_dma_send_cmd_data+0xa4>)
  3055ca:	9102      	str	r1, [sp, #8]
  3055cc:	4602      	mov	r2, r0
  3055ce:	2000      	movs	r0, #0
  3055d0:	9003      	str	r0, [sp, #12]
  3055d2:	f001 f83e 	bl	306652 <dma_qspiflash_write_page_polling>
  3055d6:	4604      	mov	r4, r0
  3055d8:	b970      	cbnz	r0, 3055f8 <spansion_qspi_dma_send_cmd_data+0x8c>
  3055da:	f3bf 8f6f 	isb	sy
  3055de:	f3bf 8f4f 	dsb	sy
  3055e2:	2000      	movs	r0, #0
  3055e4:	2101      	movs	r1, #1
  3055e6:	4602      	mov	r2, r0
  3055e8:	f000 fe94 	bl	306314 <dma_wait_channel_done_polling>
  3055ec:	f7ff fb4c 	bl	304c88 <wait_qspi_hw_idle>
  3055f0:	b128      	cbz	r0, 3055fe <spansion_qspi_dma_send_cmd_data+0x92>
  3055f2:	4808      	ldr	r0, [pc, #32]	; (305614 <spansion_qspi_dma_send_cmd_data+0xa8>)
  3055f4:	f7fe feea 	bl	3043cc <printf>
  3055f8:	f04f 34ff 	mov.w	r4, #4294967295	; 0xffffffff
  3055fc:	e001      	b.n	305602 <spansion_qspi_dma_send_cmd_data+0x96>
  3055fe:	f7ff faff 	bl	304c00 <qspi_set_dma_ctrl>
  305602:	4620      	mov	r0, r4
  305604:	b004      	add	sp, #16
  305606:	bd70      	pop	{r4, r5, r6, pc}
  305608:	003095c0 	eorseq	r9, r0, r0, asr #11
  30560c:	00309601 	eorseq	r9, r0, r1, lsl #12
  305610:	00309600 	eorseq	r9, r0, r0, lsl #12
  305614:	003016fc 	ldrshteq	r1, [r0], -ip

00305618 <qspi_read_xx_data>:
  305618:	e92d 47f0 	stmdb	sp!, {r4, r5, r6, r7, r8, r9, sl, lr}
  30561c:	469a      	mov	sl, r3
  30561e:	4b23      	ldr	r3, [pc, #140]	; (3056ac <qspi_read_xx_data+0x94>)
  305620:	4691      	mov	r9, r2
  305622:	4605      	mov	r5, r0
  305624:	4688      	mov	r8, r1
  305626:	9c08      	ldr	r4, [sp, #32]
  305628:	699a      	ldr	r2, [r3, #24]
  30562a:	461e      	mov	r6, r3
  30562c:	2a00      	cmp	r2, #0
  30562e:	dd04      	ble.n	30563a <qspi_read_xx_data+0x22>
  305630:	481f      	ldr	r0, [pc, #124]	; (3056b0 <qspi_read_xx_data+0x98>)
  305632:	4629      	mov	r1, r5
  305634:	4622      	mov	r2, r4
  305636:	f7fe fec9 	bl	3043cc <printf>
  30563a:	2708      	movs	r7, #8
  30563c:	62b7      	str	r7, [r6, #40]	; 0x28
  30563e:	f7ff fb23 	bl	304c88 <wait_qspi_hw_idle>
  305642:	4606      	mov	r6, r0
  305644:	b130      	cbz	r0, 305654 <qspi_read_xx_data+0x3c>
  305646:	481b      	ldr	r0, [pc, #108]	; (3056b4 <qspi_read_xx_data+0x9c>)
  305648:	f7fe fec0 	bl	3043cc <printf>
  30564c:	f04f 30ff 	mov.w	r0, #4294967295	; 0xffffffff
  305650:	e8bd 87f0 	ldmia.w	sp!, {r4, r5, r6, r7, r8, r9, sl, pc}
  305654:	4639      	mov	r1, r7
  305656:	1e67      	subs	r7, r4, #1
  305658:	2003      	movs	r0, #3
  30565a:	f7ff fa9b 	bl	304b94 <qspi_rx_init>
  30565e:	4638      	mov	r0, r7
  305660:	f7ff fa45 	bl	304aee <qspi_set_rx_ndf>
  305664:	4638      	mov	r0, r7
  305666:	f7ff fa0a 	bl	304a7e <qspi_set_rx_fifo_level>
  30566a:	4650      	mov	r0, sl
  30566c:	4621      	mov	r1, r4
  30566e:	4632      	mov	r2, r6
  305670:	f7ff fb2c 	bl	304ccc <qspi_xfer_init>
  305674:	f7ff f9e4 	bl	304a40 <qspi_reg_enable>
  305678:	f7ff fa3e 	bl	304af8 <qspi_rx_fifo_flush>
  30567c:	f1b9 0f00 	cmp.w	r9, #0
  305680:	dd04      	ble.n	30568c <qspi_read_xx_data+0x74>
  305682:	ea48 6005 	orr.w	r0, r8, r5, lsl #24
  305686:	f7ff f9e8 	bl	304a5a <qspi_push_data_32bit>
  30568a:	e002      	b.n	305692 <qspi_read_xx_data+0x7a>
  30568c:	4628      	mov	r0, r5
  30568e:	f7ff f9dc 	bl	304a4a <qspi_push_data_8bit>
  305692:	2000      	movs	r0, #0
  305694:	f7ff fb5c 	bl	304d50 <qspi_xfer_polling_process>
  305698:	f7ff fb06 	bl	304ca8 <qspi_xfer_wait_done>
  30569c:	2800      	cmp	r0, #0
  30569e:	bf0c      	ite	eq
  3056a0:	4620      	moveq	r0, r4
  3056a2:	f04f 30ff 	movne.w	r0, #4294967295	; 0xffffffff
  3056a6:	e8bd 87f0 	ldmia.w	sp!, {r4, r5, r6, r7, r8, r9, sl, pc}
  3056aa:	bf00      	nop
  3056ac:	003095c0 	eorseq	r9, r0, r0, asr #11
  3056b0:	00301800 	eorseq	r1, r0, r0, lsl #16
  3056b4:	003016fc 	ldrshteq	r1, [r0], -ip

003056b8 <qspi_init_low>:
  3056b8:	b570      	push	{r4, r5, r6, lr}
  3056ba:	4604      	mov	r4, r0
  3056bc:	460d      	mov	r5, r1
  3056be:	4616      	mov	r6, r2
  3056c0:	f7ff f9b2 	bl	304a28 <qspi_hw_init>
  3056c4:	4b02      	ldr	r3, [pc, #8]	; (3056d0 <qspi_init_low+0x18>)
  3056c6:	615c      	str	r4, [r3, #20]
  3056c8:	619d      	str	r5, [r3, #24]
  3056ca:	62de      	str	r6, [r3, #44]	; 0x2c
  3056cc:	bd70      	pop	{r4, r5, r6, pc}
  3056ce:	bf00      	nop
  3056d0:	003095c0 	eorseq	r9, r0, r0, asr #11

003056d4 <qspi_read_spansion_data>:
  3056d4:	e92d 47f0 	stmdb	sp!, {r4, r5, r6, r7, r8, r9, sl, lr}
  3056d8:	469a      	mov	sl, r3
  3056da:	4b29      	ldr	r3, [pc, #164]	; (305780 <qspi_read_spansion_data+0xac>)
  3056dc:	4691      	mov	r9, r2
  3056de:	4606      	mov	r6, r0
  3056e0:	460d      	mov	r5, r1
  3056e2:	9c08      	ldr	r4, [sp, #32]
  3056e4:	699a      	ldr	r2, [r3, #24]
  3056e6:	461f      	mov	r7, r3
  3056e8:	2a00      	cmp	r2, #0
  3056ea:	dd04      	ble.n	3056f6 <qspi_read_spansion_data+0x22>
  3056ec:	4825      	ldr	r0, [pc, #148]	; (305784 <qspi_read_spansion_data+0xb0>)
  3056ee:	4631      	mov	r1, r6
  3056f0:	4622      	mov	r2, r4
  3056f2:	f7fe fe6b 	bl	3043cc <printf>
  3056f6:	f04f 0808 	mov.w	r8, #8
  3056fa:	f8c7 8028 	str.w	r8, [r7, #40]	; 0x28
  3056fe:	f7ff fac3 	bl	304c88 <wait_qspi_hw_idle>
  305702:	4607      	mov	r7, r0
  305704:	b130      	cbz	r0, 305714 <qspi_read_spansion_data+0x40>
  305706:	4820      	ldr	r0, [pc, #128]	; (305788 <qspi_read_spansion_data+0xb4>)
  305708:	f7fe fe60 	bl	3043cc <printf>
  30570c:	f04f 30ff 	mov.w	r0, #4294967295	; 0xffffffff
  305710:	e8bd 87f0 	ldmia.w	sp!, {r4, r5, r6, r7, r8, r9, sl, pc}
  305714:	4641      	mov	r1, r8
  305716:	f104 38ff 	add.w	r8, r4, #4294967295	; 0xffffffff
  30571a:	2003      	movs	r0, #3
  30571c:	f7ff fa3a 	bl	304b94 <qspi_rx_init>
  305720:	4640      	mov	r0, r8
  305722:	f7ff f9e4 	bl	304aee <qspi_set_rx_ndf>
  305726:	4640      	mov	r0, r8
  305728:	f7ff f9a9 	bl	304a7e <qspi_set_rx_fifo_level>
  30572c:	4650      	mov	r0, sl
  30572e:	4621      	mov	r1, r4
  305730:	463a      	mov	r2, r7
  305732:	f7ff facb 	bl	304ccc <qspi_xfer_init>
  305736:	f7ff f983 	bl	304a40 <qspi_reg_enable>
  30573a:	f7ff f9dd 	bl	304af8 <qspi_rx_fifo_flush>
  30573e:	f1b9 0f00 	cmp.w	r9, #0
  305742:	4630      	mov	r0, r6
  305744:	dd0d      	ble.n	305762 <qspi_read_spansion_data+0x8e>
  305746:	f7ff f980 	bl	304a4a <qspi_push_data_8bit>
  30574a:	0e28      	lsrs	r0, r5, #24
  30574c:	f7ff f97d 	bl	304a4a <qspi_push_data_8bit>
  305750:	f3c5 4007 	ubfx	r0, r5, #16, #8
  305754:	f7ff f979 	bl	304a4a <qspi_push_data_8bit>
  305758:	f3c5 2007 	ubfx	r0, r5, #8, #8
  30575c:	f7ff f975 	bl	304a4a <qspi_push_data_8bit>
  305760:	b2e8      	uxtb	r0, r5
  305762:	f7ff f972 	bl	304a4a <qspi_push_data_8bit>
  305766:	2000      	movs	r0, #0
  305768:	f7ff faf2 	bl	304d50 <qspi_xfer_polling_process>
  30576c:	f7ff fa9c 	bl	304ca8 <qspi_xfer_wait_done>
  305770:	2800      	cmp	r0, #0
  305772:	bf0c      	ite	eq
  305774:	4620      	moveq	r0, r4
  305776:	f04f 30ff 	movne.w	r0, #4294967295	; 0xffffffff
  30577a:	e8bd 87f0 	ldmia.w	sp!, {r4, r5, r6, r7, r8, r9, sl, pc}
  30577e:	bf00      	nop
  305780:	003095c0 	eorseq	r9, r0, r0, asr #11
  305784:	00301800 	eorseq	r1, r0, r0, lsl #16
  305788:	003016fc 	ldrshteq	r1, [r0], -ip

0030578c <fl_rescan>:
  30578c:	b510      	push	{r4, lr}
  30578e:	4c11      	ldr	r4, [pc, #68]	; (3057d4 <fl_rescan+0x48>)
  305790:	6820      	ldr	r0, [r4, #0]
  305792:	b9e8      	cbnz	r0, 3057d0 <fl_rescan+0x44>
  305794:	1d22      	adds	r2, r4, #4
  305796:	209f      	movs	r0, #159	; 0x9f
  305798:	2103      	movs	r1, #3
  30579a:	f000 fa07 	bl	305bac <qspi_fl_read_rdid>
  30579e:	7963      	ldrb	r3, [r4, #5]
  3057a0:	7922      	ldrb	r2, [r4, #4]
  3057a2:	480d      	ldr	r0, [pc, #52]	; (3057d8 <fl_rescan+0x4c>)
  3057a4:	021b      	lsls	r3, r3, #8
  3057a6:	ea43 4302 	orr.w	r3, r3, r2, lsl #16
  3057aa:	79a2      	ldrb	r2, [r4, #6]
  3057ac:	4313      	orrs	r3, r2
  3057ae:	6942      	ldr	r2, [r0, #20]
  3057b0:	b11a      	cbz	r2, 3057ba <fl_rescan+0x2e>
  3057b2:	6902      	ldr	r2, [r0, #16]
  3057b4:	429a      	cmp	r2, r3
  3057b6:	d00a      	beq.n	3057ce <fl_rescan+0x42>
  3057b8:	3064      	adds	r0, #100	; 0x64
  3057ba:	6942      	ldr	r2, [r0, #20]
  3057bc:	b112      	cbz	r2, 3057c4 <fl_rescan+0x38>
  3057be:	6902      	ldr	r2, [r0, #16]
  3057c0:	429a      	cmp	r2, r3
  3057c2:	d004      	beq.n	3057ce <fl_rescan+0x42>
  3057c4:	4805      	ldr	r0, [pc, #20]	; (3057dc <fl_rescan+0x50>)
  3057c6:	f7fe fe01 	bl	3043cc <printf>
  3057ca:	2000      	movs	r0, #0
  3057cc:	bd10      	pop	{r4, pc}
  3057ce:	6020      	str	r0, [r4, #0]
  3057d0:	bd10      	pop	{r4, pc}
  3057d2:	bf00      	nop
  3057d4:	00309740 	eorseq	r9, r0, r0, asr #14
  3057d8:	003080e4 	eorseq	r8, r0, r4, ror #1
  3057dc:	00301819 	eorseq	r1, r0, r9, lsl r8

003057e0 <fl_reset>:
  3057e0:	b508      	push	{r3, lr}
  3057e2:	4b04      	ldr	r3, [pc, #16]	; (3057f4 <fl_reset+0x14>)
  3057e4:	681b      	ldr	r3, [r3, #0]
  3057e6:	6c9b      	ldr	r3, [r3, #72]	; 0x48
  3057e8:	4798      	blx	r3
  3057ea:	4803      	ldr	r0, [pc, #12]	; (3057f8 <fl_reset+0x18>)
  3057ec:	f7fe fdee 	bl	3043cc <printf>
  3057f0:	2000      	movs	r0, #0
  3057f2:	bd08      	pop	{r3, pc}
  3057f4:	00309740 	eorseq	r9, r0, r0, asr #14
  3057f8:	00301838 	eorseq	r1, r0, r8, lsr r8

003057fc <fl_read_id>:
  3057fc:	b538      	push	{r3, r4, r5, lr}
  3057fe:	2102      	movs	r1, #2
  305800:	4c1a      	ldr	r4, [pc, #104]	; (30586c <fl_read_id+0x70>)
  305802:	2090      	movs	r0, #144	; 0x90
  305804:	2500      	movs	r5, #0
  305806:	4622      	mov	r2, r4
  305808:	f852 3b04 	ldr.w	r3, [r2], #4
  30580c:	6a1b      	ldr	r3, [r3, #32]
  30580e:	4798      	blx	r3
  305810:	7921      	ldrb	r1, [r4, #4]
  305812:	7962      	ldrb	r2, [r4, #5]
  305814:	4816      	ldr	r0, [pc, #88]	; (305870 <fl_read_id+0x74>)
  305816:	f7fe fdd9 	bl	3043cc <printf>
  30581a:	4622      	mov	r2, r4
  30581c:	f852 3b04 	ldr.w	r3, [r2], #4
  305820:	2103      	movs	r1, #3
  305822:	209f      	movs	r0, #159	; 0x9f
  305824:	69db      	ldr	r3, [r3, #28]
  305826:	4798      	blx	r3
  305828:	4812      	ldr	r0, [pc, #72]	; (305874 <fl_read_id+0x78>)
  30582a:	f7fe fdcf 	bl	3043cc <printf>
  30582e:	4c0f      	ldr	r4, [pc, #60]	; (30586c <fl_read_id+0x70>)
  305830:	4811      	ldr	r0, [pc, #68]	; (305878 <fl_read_id+0x7c>)
  305832:	1d23      	adds	r3, r4, #4
  305834:	5d59      	ldrb	r1, [r3, r5]
  305836:	3501      	adds	r5, #1
  305838:	f7fe fdc8 	bl	3043cc <printf>
  30583c:	2d03      	cmp	r5, #3
  30583e:	d1f6      	bne.n	30582e <fl_read_id+0x32>
  305840:	480e      	ldr	r0, [pc, #56]	; (30587c <fl_read_id+0x80>)
  305842:	f7fe fdc3 	bl	3043cc <printf>
  305846:	7965      	ldrb	r5, [r4, #5]
  305848:	79a3      	ldrb	r3, [r4, #6]
  30584a:	eb03 2505 	add.w	r5, r3, r5, lsl #8
  30584e:	7923      	ldrb	r3, [r4, #4]
  305850:	eb05 4503 	add.w	r5, r5, r3, lsl #16
  305854:	6823      	ldr	r3, [r4, #0]
  305856:	6c5b      	ldr	r3, [r3, #68]	; 0x44
  305858:	4798      	blx	r3
  30585a:	6823      	ldr	r3, [r4, #0]
  30585c:	6918      	ldr	r0, [r3, #16]
  30585e:	4b08      	ldr	r3, [pc, #32]	; (305880 <fl_read_id+0x84>)
  305860:	42a8      	cmp	r0, r5
  305862:	bf14      	ite	ne
  305864:	4618      	movne	r0, r3
  305866:	2000      	moveq	r0, #0
  305868:	bd38      	pop	{r3, r4, r5, pc}
  30586a:	bf00      	nop
  30586c:	00309740 	eorseq	r9, r0, r0, asr #14
  305870:	00301843 	eorseq	r1, r0, r3, asr #16
  305874:	00301864 	eorseq	r1, r0, r4, ror #16
  305878:	0030187b 	eorseq	r1, r0, fp, ror r8
  30587c:	00300d37 	eorseq	r0, r0, r7, lsr sp
  305880:	ffff0000 			; <UNDEFINED> instruction: 0xffff0000

00305884 <fl_protect>:
  305884:	2802      	cmp	r0, #2
  305886:	b570      	push	{r4, r5, r6, lr}
  305888:	4606      	mov	r6, r0
  30588a:	460d      	mov	r5, r1
  30588c:	d913      	bls.n	3058b6 <fl_protect+0x32>
  30588e:	6888      	ldr	r0, [r1, #8]
  305890:	4920      	ldr	r1, [pc, #128]	; (305914 <fl_protect+0x90>)
  305892:	f7fd fa08 	bl	302ca6 <strcmp>
  305896:	68a8      	ldr	r0, [r5, #8]
  305898:	491f      	ldr	r1, [pc, #124]	; (305918 <fl_protect+0x94>)
  30589a:	f7fd fa04 	bl	302ca6 <strcmp>
  30589e:	f1d0 0401 	rsbs	r4, r0, #1
  3058a2:	bf38      	it	cc
  3058a4:	2400      	movcc	r4, #0
  3058a6:	2e03      	cmp	r6, #3
  3058a8:	d008      	beq.n	3058bc <fl_protect+0x38>
  3058aa:	68e8      	ldr	r0, [r5, #12]
  3058ac:	2100      	movs	r1, #0
  3058ae:	220a      	movs	r2, #10
  3058b0:	f7fe fc66 	bl	304180 <simple_strtoul>
  3058b4:	e003      	b.n	3058be <fl_protect+0x3a>
  3058b6:	2400      	movs	r4, #0
  3058b8:	4620      	mov	r0, r4
  3058ba:	e000      	b.n	3058be <fl_protect+0x3a>
  3058bc:	2000      	movs	r0, #0
  3058be:	f000 050f 	and.w	r5, r0, #15
  3058c2:	4b15      	ldr	r3, [pc, #84]	; (305918 <fl_protect+0x94>)
  3058c4:	4a13      	ldr	r2, [pc, #76]	; (305914 <fl_protect+0x90>)
  3058c6:	4629      	mov	r1, r5
  3058c8:	4814      	ldr	r0, [pc, #80]	; (30591c <fl_protect+0x98>)
  3058ca:	2c00      	cmp	r4, #0
  3058cc:	bf18      	it	ne
  3058ce:	461a      	movne	r2, r3
  3058d0:	f7fe fd7c 	bl	3043cc <printf>
  3058d4:	f7fe fef0 	bl	3046b8 <timer_get_tick>
  3058d8:	4b11      	ldr	r3, [pc, #68]	; (305920 <fl_protect+0x9c>)
  3058da:	4621      	mov	r1, r4
  3058dc:	681b      	ldr	r3, [r3, #0]
  3058de:	6c1b      	ldr	r3, [r3, #64]	; 0x40
  3058e0:	4606      	mov	r6, r0
  3058e2:	4628      	mov	r0, r5
  3058e4:	4798      	blx	r3
  3058e6:	4604      	mov	r4, r0
  3058e8:	f7fe fee6 	bl	3046b8 <timer_get_tick>
  3058ec:	2114      	movs	r1, #20
  3058ee:	1b80      	subs	r0, r0, r6
  3058f0:	f002 faf4 	bl	307edc <__aeabi_uidiv>
  3058f4:	f44f 717a 	mov.w	r1, #1000	; 0x3e8
  3058f8:	4605      	mov	r5, r0
  3058fa:	f002 faef 	bl	307edc <__aeabi_uidiv>
  3058fe:	4629      	mov	r1, r5
  305900:	4602      	mov	r2, r0
  305902:	4808      	ldr	r0, [pc, #32]	; (305924 <fl_protect+0xa0>)
  305904:	f7fe fd62 	bl	3043cc <printf>
  305908:	4807      	ldr	r0, [pc, #28]	; (305928 <fl_protect+0xa4>)
  30590a:	2c00      	cmp	r4, #0
  30590c:	bf08      	it	eq
  30590e:	2000      	moveq	r0, #0
  305910:	bd70      	pop	{r4, r5, r6, pc}
  305912:	bf00      	nop
  305914:	00301887 	eorseq	r1, r0, r7, lsl #17
  305918:	00301880 	eorseq	r1, r0, r0, lsl #17
  30591c:	0030188f 	eorseq	r1, r0, pc, lsl #17
  305920:	00309740 	eorseq	r9, r0, r0, asr #14
  305924:	0030189f 	mlaseq	r0, pc, r8, r1	; <UNPREDICTABLE>
  305928:	ffff0000 			; <UNDEFINED> instruction: 0xffff0000

0030592c <fl_read>:
  30592c:	e92d 43f7 	stmdb	sp!, {r0, r1, r2, r4, r5, r6, r7, r8, r9, lr}
  305930:	4606      	mov	r6, r0
  305932:	4688      	mov	r8, r1
  305934:	481f      	ldr	r0, [pc, #124]	; (3059b4 <fl_read+0x88>)
  305936:	4631      	mov	r1, r6
  305938:	4615      	mov	r5, r2
  30593a:	4699      	mov	r9, r3
  30593c:	f7fe fd46 	bl	3043cc <printf>
  305940:	f7fe feba 	bl	3046b8 <timer_get_tick>
  305944:	4b1c      	ldr	r3, [pc, #112]	; (3059b8 <fl_read+0x8c>)
  305946:	9a0b      	ldr	r2, [sp, #44]	; 0x2c
  305948:	4641      	mov	r1, r8
  30594a:	681b      	ldr	r3, [r3, #0]
  30594c:	9200      	str	r2, [sp, #0]
  30594e:	462a      	mov	r2, r5
  305950:	6a5f      	ldr	r7, [r3, #36]	; 0x24
  305952:	464b      	mov	r3, r9
  305954:	4604      	mov	r4, r0
  305956:	b2f0      	uxtb	r0, r6
  305958:	47b8      	blx	r7
  30595a:	9b0a      	ldr	r3, [sp, #40]	; 0x28
  30595c:	4606      	mov	r6, r0
  30595e:	b12b      	cbz	r3, 30596c <fl_read+0x40>
  305960:	f04f 4030 	mov.w	r0, #2952790016	; 0xb0000000
  305964:	2218      	movs	r2, #24
  305966:	4601      	mov	r1, r0
  305968:	f7fd f904 	bl	302b74 <printf_buf_fmt_32bit>
  30596c:	f7fe fea4 	bl	3046b8 <timer_get_tick>
  305970:	4631      	mov	r1, r6
  305972:	4607      	mov	r7, r0
  305974:	4628      	mov	r0, r5
  305976:	f7fd f91d 	bl	302bb4 <printf_buf>
  30597a:	f7ff faa1 	bl	304ec0 <qspi_get_timer_tick_save>
  30597e:	2114      	movs	r1, #20
  305980:	1b00      	subs	r0, r0, r4
  305982:	f002 faab 	bl	307edc <__aeabi_uidiv>
  305986:	4601      	mov	r1, r0
  305988:	480c      	ldr	r0, [pc, #48]	; (3059bc <fl_read+0x90>)
  30598a:	f7fe fd1f 	bl	3043cc <printf>
  30598e:	1b38      	subs	r0, r7, r4
  305990:	2114      	movs	r1, #20
  305992:	f002 faa3 	bl	307edc <__aeabi_uidiv>
  305996:	f44f 717a 	mov.w	r1, #1000	; 0x3e8
  30599a:	4604      	mov	r4, r0
  30599c:	f002 fa9e 	bl	307edc <__aeabi_uidiv>
  3059a0:	4621      	mov	r1, r4
  3059a2:	4602      	mov	r2, r0
  3059a4:	4806      	ldr	r0, [pc, #24]	; (3059c0 <fl_read+0x94>)
  3059a6:	f7fe fd11 	bl	3043cc <printf>
  3059aa:	2000      	movs	r0, #0
  3059ac:	b003      	add	sp, #12
  3059ae:	e8bd 83f0 	ldmia.w	sp!, {r4, r5, r6, r7, r8, r9, pc}
  3059b2:	bf00      	nop
  3059b4:	003018b8 	ldrhteq	r1, [r0], -r8
  3059b8:	00309740 	eorseq	r9, r0, r0, asr #14
  3059bc:	003018c3 	eorseq	r1, r0, r3, asr #17
  3059c0:	0030189f 	mlaseq	r0, pc, r8, r1	; <UNPREDICTABLE>

003059c4 <fl_dma_read>:
  3059c4:	f5b3 7f80 	cmp.w	r3, #256	; 0x100
  3059c8:	b508      	push	{r3, lr}
  3059ca:	d804      	bhi.n	3059d6 <fl_dma_read+0x12>
  3059cc:	b2c0      	uxtb	r0, r0
  3059ce:	f7ff fd37 	bl	305440 <qspi_dma_read_page>
  3059d2:	17c0      	asrs	r0, r0, #31
  3059d4:	bd08      	pop	{r3, pc}
  3059d6:	2000      	movs	r0, #0
  3059d8:	bd08      	pop	{r3, pc}

003059da <fl_ahbread>:
  3059da:	e92d 43f8 	stmdb	sp!, {r3, r4, r5, r6, r7, r8, r9, lr}
  3059de:	4607      	mov	r7, r0
  3059e0:	9c09      	ldr	r4, [sp, #36]	; 0x24
  3059e2:	4689      	mov	r9, r1
  3059e4:	4616      	mov	r6, r2
  3059e6:	4823      	ldr	r0, [pc, #140]	; (305a74 <fl_ahbread+0x9a>)
  3059e8:	4639      	mov	r1, r7
  3059ea:	461d      	mov	r5, r3
  3059ec:	4622      	mov	r2, r4
  3059ee:	f7fe fced 	bl	3043cc <printf>
  3059f2:	f1a4 0308 	sub.w	r3, r4, #8
  3059f6:	2b18      	cmp	r3, #24
  3059f8:	d807      	bhi.n	305a0a <fl_ahbread+0x30>
  3059fa:	2201      	movs	r2, #1
  3059fc:	fa02 f303 	lsl.w	r3, r2, r3
  305a00:	f003 3301 	and.w	r3, r3, #16843009	; 0x1010101
  305a04:	f423 3380 	bic.w	r3, r3, #65536	; 0x10000
  305a08:	b933      	cbnz	r3, 305a18 <fl_ahbread+0x3e>
  305a0a:	4621      	mov	r1, r4
  305a0c:	481a      	ldr	r0, [pc, #104]	; (305a78 <fl_ahbread+0x9e>)
  305a0e:	f7fe fcdd 	bl	3043cc <printf>
  305a12:	481a      	ldr	r0, [pc, #104]	; (305a7c <fl_ahbread+0xa2>)
  305a14:	e8bd 83f8 	ldmia.w	sp!, {r3, r4, r5, r6, r7, r8, r9, pc}
  305a18:	f7fe fe4e 	bl	3046b8 <timer_get_tick>
  305a1c:	b2e1      	uxtb	r1, r4
  305a1e:	4680      	mov	r8, r0
  305a20:	b2f8      	uxtb	r0, r7
  305a22:	f7ff fa6d 	bl	304f00 <qspi_ahb_read_enable>
  305a26:	9b08      	ldr	r3, [sp, #32]
  305a28:	b12b      	cbz	r3, 305a36 <fl_ahbread+0x5c>
  305a2a:	f04f 4030 	mov.w	r0, #2952790016	; 0xb0000000
  305a2e:	2218      	movs	r2, #24
  305a30:	4601      	mov	r1, r0
  305a32:	f7fd f89f 	bl	302b74 <printf_buf_fmt_32bit>
  305a36:	462a      	mov	r2, r5
  305a38:	f109 5180 	add.w	r1, r9, #268435456	; 0x10000000
  305a3c:	4630      	mov	r0, r6
  305a3e:	f7fd fa20 	bl	302e82 <memcpy>
  305a42:	f7fe fe39 	bl	3046b8 <timer_get_tick>
  305a46:	4629      	mov	r1, r5
  305a48:	4604      	mov	r4, r0
  305a4a:	4630      	mov	r0, r6
  305a4c:	f7fd f8b2 	bl	302bb4 <printf_buf>
  305a50:	ebc8 0004 	rsb	r0, r8, r4
  305a54:	2114      	movs	r1, #20
  305a56:	f002 fa41 	bl	307edc <__aeabi_uidiv>
  305a5a:	f44f 717a 	mov.w	r1, #1000	; 0x3e8
  305a5e:	4604      	mov	r4, r0
  305a60:	f002 fa3c 	bl	307edc <__aeabi_uidiv>
  305a64:	4621      	mov	r1, r4
  305a66:	4602      	mov	r2, r0
  305a68:	4805      	ldr	r0, [pc, #20]	; (305a80 <fl_ahbread+0xa6>)
  305a6a:	f7fe fcaf 	bl	3043cc <printf>
  305a6e:	2000      	movs	r0, #0
  305a70:	e8bd 83f8 	ldmia.w	sp!, {r3, r4, r5, r6, r7, r8, r9, pc}
  305a74:	003018d0 	ldrsbteq	r1, [r0], -r0
  305a78:	003018df 	ldrsbteq	r1, [r0], -pc
  305a7c:	ffff0000 			; <UNDEFINED> instruction: 0xffff0000
  305a80:	0030189f 	mlaseq	r0, pc, r8, r1	; <UNPREDICTABLE>

00305a84 <init_spinor>:
  305a84:	b538      	push	{r3, r4, r5, lr}
  305a86:	4d08      	ldr	r5, [pc, #32]	; (305aa8 <init_spinor+0x24>)
  305a88:	682b      	ldr	r3, [r5, #0]
  305a8a:	b10b      	cbz	r3, 305a90 <init_spinor+0xc>
  305a8c:	2001      	movs	r0, #1
  305a8e:	bd38      	pop	{r3, r4, r5, pc}
  305a90:	f7ff fe7c 	bl	30578c <fl_rescan>
  305a94:	4604      	mov	r4, r0
  305a96:	6028      	str	r0, [r5, #0]
  305a98:	2800      	cmp	r0, #0
  305a9a:	d1f7      	bne.n	305a8c <init_spinor+0x8>
  305a9c:	4803      	ldr	r0, [pc, #12]	; (305aac <init_spinor+0x28>)
  305a9e:	f7fe fc95 	bl	3043cc <printf>
  305aa2:	4620      	mov	r0, r4
  305aa4:	bd38      	pop	{r3, r4, r5, pc}
  305aa6:	bf00      	nop
  305aa8:	00309740 	eorseq	r9, r0, r0, asr #14
  305aac:	003018ef 	eorseq	r1, r0, pc, ror #17

00305ab0 <spinor_hw_read_page>:
  305ab0:	4613      	mov	r3, r2
  305ab2:	4a07      	ldr	r2, [pc, #28]	; (305ad0 <spinor_hw_read_page+0x20>)
  305ab4:	b573      	push	{r0, r1, r4, r5, r6, lr}
  305ab6:	4606      	mov	r6, r0
  305ab8:	6812      	ldr	r2, [r2, #0]
  305aba:	460d      	mov	r5, r1
  305abc:	2003      	movs	r0, #3
  305abe:	2108      	movs	r1, #8
  305ac0:	9100      	str	r1, [sp, #0]
  305ac2:	4631      	mov	r1, r6
  305ac4:	6a54      	ldr	r4, [r2, #36]	; 0x24
  305ac6:	462a      	mov	r2, r5
  305ac8:	47a0      	blx	r4
  305aca:	b002      	add	sp, #8
  305acc:	bd70      	pop	{r4, r5, r6, pc}
  305ace:	bf00      	nop
  305ad0:	00309740 	eorseq	r9, r0, r0, asr #14

00305ad4 <fl_upgrade_if>:
  305ad4:	e92d 47f0 	stmdb	sp!, {r4, r5, r6, r7, r8, r9, sl, lr}
  305ad8:	4604      	mov	r4, r0
  305ada:	4d2e      	ldr	r5, [pc, #184]	; (305b94 <fl_upgrade_if+0xc0>)
  305adc:	460f      	mov	r7, r1
  305ade:	4690      	mov	r8, r2
  305ae0:	682b      	ldr	r3, [r5, #0]
  305ae2:	462e      	mov	r6, r5
  305ae4:	b94b      	cbnz	r3, 305afa <fl_upgrade_if+0x26>
  305ae6:	f7ff fe51 	bl	30578c <fl_rescan>
  305aea:	6028      	str	r0, [r5, #0]
  305aec:	b928      	cbnz	r0, 305afa <fl_upgrade_if+0x26>
  305aee:	482a      	ldr	r0, [pc, #168]	; (305b98 <fl_upgrade_if+0xc4>)
  305af0:	f7fe fc6c 	bl	3043cc <printf>
  305af4:	4829      	ldr	r0, [pc, #164]	; (305b9c <fl_upgrade_if+0xc8>)
  305af6:	e8bd 87f0 	ldmia.w	sp!, {r4, r5, r6, r7, r8, r9, sl, pc}
  305afa:	f8d6 9000 	ldr.w	r9, [r6]
  305afe:	4620      	mov	r0, r4
  305b00:	f8d9 a014 	ldr.w	sl, [r9, #20]
  305b04:	4651      	mov	r1, sl
  305b06:	f002 fa31 	bl	307f6c <__aeabi_uidivmod>
  305b0a:	460d      	mov	r5, r1
  305b0c:	b129      	cbz	r1, 305b1a <fl_upgrade_if+0x46>
  305b0e:	ea4f 219a 	mov.w	r1, sl, lsr #10
  305b12:	4823      	ldr	r0, [pc, #140]	; (305ba0 <fl_upgrade_if+0xcc>)
  305b14:	f7fe fc5a 	bl	3043cc <printf>
  305b18:	e004      	b.n	305b24 <fl_upgrade_if+0x50>
  305b1a:	1c7b      	adds	r3, r7, #1
  305b1c:	d105      	bne.n	305b2a <fl_upgrade_if+0x56>
  305b1e:	4821      	ldr	r0, [pc, #132]	; (305ba4 <fl_upgrade_if+0xd0>)
  305b20:	f7fe fc54 	bl	3043cc <printf>
  305b24:	4820      	ldr	r0, [pc, #128]	; (305ba8 <fl_upgrade_if+0xd4>)
  305b26:	e8bd 87f0 	ldmia.w	sp!, {r4, r5, r6, r7, r8, r9, sl, pc}
  305b2a:	f8d9 3040 	ldr.w	r3, [r9, #64]	; 0x40
  305b2e:	4608      	mov	r0, r1
  305b30:	4798      	blx	r3
  305b32:	4b18      	ldr	r3, [pc, #96]	; (305b94 <fl_upgrade_if+0xc0>)
  305b34:	681b      	ldr	r3, [r3, #0]
  305b36:	6959      	ldr	r1, [r3, #20]
  305b38:	1e48      	subs	r0, r1, #1
  305b3a:	4440      	add	r0, r8
  305b3c:	f002 f9ce 	bl	307edc <__aeabi_uidiv>
  305b40:	4681      	mov	r9, r0
  305b42:	454d      	cmp	r5, r9
  305b44:	d00d      	beq.n	305b62 <fl_upgrade_if+0x8e>
  305b46:	6833      	ldr	r3, [r6, #0]
  305b48:	6958      	ldr	r0, [r3, #20]
  305b4a:	6b1b      	ldr	r3, [r3, #48]	; 0x30
  305b4c:	fb00 4005 	mla	r0, r0, r5, r4
  305b50:	4798      	blx	r3
  305b52:	f010 0fff 	tst.w	r0, #255	; 0xff
  305b56:	d002      	beq.n	305b5e <fl_upgrade_if+0x8a>
  305b58:	2000      	movs	r0, #0
  305b5a:	e8bd 87f0 	ldmia.w	sp!, {r4, r5, r6, r7, r8, r9, sl, pc}
  305b5e:	3501      	adds	r5, #1
  305b60:	e7ef      	b.n	305b42 <fl_upgrade_if+0x6e>
  305b62:	f108 08ff 	add.w	r8, r8, #255	; 0xff
  305b66:	1b3f      	subs	r7, r7, r4
  305b68:	2500      	movs	r5, #0
  305b6a:	ea4f 2828 	mov.w	r8, r8, asr #8
  305b6e:	4545      	cmp	r5, r8
  305b70:	d0f2      	beq.n	305b58 <fl_upgrade_if+0x84>
  305b72:	6833      	ldr	r3, [r6, #0]
  305b74:	4620      	mov	r0, r4
  305b76:	1939      	adds	r1, r7, r4
  305b78:	f44f 7280 	mov.w	r2, #256	; 0x100
  305b7c:	f504 7480 	add.w	r4, r4, #256	; 0x100
  305b80:	f8d3 c02c 	ldr.w	ip, [r3, #44]	; 0x2c
  305b84:	2308      	movs	r3, #8
  305b86:	47e0      	blx	ip
  305b88:	f010 0fff 	tst.w	r0, #255	; 0xff
  305b8c:	d1e4      	bne.n	305b58 <fl_upgrade_if+0x84>
  305b8e:	3501      	adds	r5, #1
  305b90:	e7ed      	b.n	305b6e <fl_upgrade_if+0x9a>
  305b92:	bf00      	nop
  305b94:	00309740 	eorseq	r9, r0, r0, asr #14
  305b98:	00301901 	eorseq	r1, r0, r1, lsl #18
  305b9c:	fffe0000 			; <UNDEFINED> instruction: 0xfffe0000
  305ba0:	00301914 	eorseq	r1, r0, r4, lsl r9
  305ba4:	00301950 	eorseq	r1, r0, r0, asr r9
  305ba8:	ffff0000 			; <UNDEFINED> instruction: 0xffff0000

00305bac <qspi_fl_read_rdid>:
  305bac:	b507      	push	{r0, r1, r2, lr}
  305bae:	4613      	mov	r3, r2
  305bb0:	9100      	str	r1, [sp, #0]
  305bb2:	2100      	movs	r1, #0
  305bb4:	460a      	mov	r2, r1
  305bb6:	f7ff fd2f 	bl	305618 <qspi_read_xx_data>
  305bba:	b003      	add	sp, #12
  305bbc:	f85d fb04 	ldr.w	pc, [sp], #4

00305bc0 <qspi_fl_read_devid>:
  305bc0:	b507      	push	{r0, r1, r2, lr}
  305bc2:	4613      	mov	r3, r2
  305bc4:	9100      	str	r1, [sp, #0]
  305bc6:	2201      	movs	r2, #1
  305bc8:	2100      	movs	r1, #0
  305bca:	f7ff fd25 	bl	305618 <qspi_read_xx_data>
  305bce:	b003      	add	sp, #12
  305bd0:	f85d fb04 	ldr.w	pc, [sp], #4

00305bd4 <qspi_fl_read_page>:
  305bd4:	f7ff ba50 	b.w	305078 <qspi_read_page_data>

00305bd8 <qspi_fl_read_status>:
  305bd8:	b51f      	push	{r0, r1, r2, r3, r4, lr}
  305bda:	2100      	movs	r1, #0
  305bdc:	2301      	movs	r3, #1
  305bde:	460a      	mov	r2, r1
  305be0:	9300      	str	r3, [sp, #0]
  305be2:	f10d 030f 	add.w	r3, sp, #15
  305be6:	f7ff fd17 	bl	305618 <qspi_read_xx_data>
  305bea:	f89d 000f 	ldrb.w	r0, [sp, #15]
  305bee:	b005      	add	sp, #20
  305bf0:	f85d fb04 	ldr.w	pc, [sp], #4

00305bf4 <qspi_fl_wait_wel>:
  305bf4:	b510      	push	{r4, lr}
  305bf6:	f242 7411 	movw	r4, #10001	; 0x2711
  305bfa:	3c01      	subs	r4, #1
  305bfc:	d008      	beq.n	305c10 <qspi_fl_wait_wel+0x1c>
  305bfe:	2005      	movs	r0, #5
  305c00:	f7ff ffea 	bl	305bd8 <qspi_fl_read_status>
  305c04:	0783      	lsls	r3, r0, #30
  305c06:	d403      	bmi.n	305c10 <qspi_fl_wait_wel+0x1c>
  305c08:	2001      	movs	r0, #1
  305c0a:	f7fe fd88 	bl	30471e <udelay>
  305c0e:	e7f4      	b.n	305bfa <qspi_fl_wait_wel+0x6>
  305c10:	2000      	movs	r0, #0
  305c12:	bd10      	pop	{r4, pc}

00305c14 <qspi_w25q256fv_send_lock_cmd>:
  305c14:	b57f      	push	{r0, r1, r2, r3, r4, r5, r6, lr}
  305c16:	4604      	mov	r4, r0
  305c18:	2006      	movs	r0, #6
  305c1a:	460d      	mov	r5, r1
  305c1c:	4616      	mov	r6, r2
  305c1e:	f7ff f955 	bl	304ecc <qspi_wren>
  305c22:	2800      	cmp	r0, #0
  305c24:	db14      	blt.n	305c50 <qspi_w25q256fv_send_lock_cmd+0x3c>
  305c26:	f7ff ffe5 	bl	305bf4 <qspi_fl_wait_wel>
  305c2a:	2800      	cmp	r0, #0
  305c2c:	db10      	blt.n	305c50 <qspi_w25q256fv_send_lock_cmd+0x3c>
  305c2e:	f88d 4008 	strb.w	r4, [sp, #8]
  305c32:	b146      	cbz	r6, 305c46 <qspi_w25q256fv_send_lock_cmd+0x32>
  305c34:	2200      	movs	r2, #0
  305c36:	2308      	movs	r3, #8
  305c38:	4620      	mov	r0, r4
  305c3a:	9300      	str	r3, [sp, #0]
  305c3c:	4629      	mov	r1, r5
  305c3e:	4613      	mov	r3, r2
  305c40:	f7ff fab6 	bl	3051b0 <qspi_dma_write_page>
  305c44:	e003      	b.n	305c4e <qspi_w25q256fv_send_lock_cmd+0x3a>
  305c46:	a802      	add	r0, sp, #8
  305c48:	2101      	movs	r1, #1
  305c4a:	f7ff f980 	bl	304f4e <qspi_send_xx_data>
  305c4e:	17c0      	asrs	r0, r0, #31
  305c50:	b004      	add	sp, #16
  305c52:	bd70      	pop	{r4, r5, r6, pc}

00305c54 <wait_flash_idle_extend.constprop.5>:
  305c54:	b5f8      	push	{r3, r4, r5, r6, r7, lr}
  305c56:	4607      	mov	r7, r0
  305c58:	460e      	mov	r6, r1
  305c5a:	2400      	movs	r4, #0
  305c5c:	2005      	movs	r0, #5
  305c5e:	f7ff ffbb 	bl	305bd8 <qspi_fl_read_status>
  305c62:	4238      	tst	r0, r7
  305c64:	4605      	mov	r5, r0
  305c66:	d005      	beq.n	305c74 <wait_flash_idle_extend.constprop.5+0x20>
  305c68:	2001      	movs	r0, #1
  305c6a:	3401      	adds	r4, #1
  305c6c:	f7fe fd4a 	bl	304704 <mdelay>
  305c70:	42b4      	cmp	r4, r6
  305c72:	dbf3      	blt.n	305c5c <wait_flash_idle_extend.constprop.5+0x8>
  305c74:	4628      	mov	r0, r5
  305c76:	bdf8      	pop	{r3, r4, r5, r6, r7, pc}

00305c78 <qspi_w25q256fv_write_status>:
  305c78:	b538      	push	{r3, r4, r5, lr}
  305c7a:	4605      	mov	r5, r0
  305c7c:	2006      	movs	r0, #6
  305c7e:	460c      	mov	r4, r1
  305c80:	f7ff f924 	bl	304ecc <qspi_wren>
  305c84:	2800      	cmp	r0, #0
  305c86:	db25      	blt.n	305cd4 <qspi_w25q256fv_write_status+0x5c>
  305c88:	f7ff ffb4 	bl	305bf4 <qspi_fl_wait_wel>
  305c8c:	2800      	cmp	r0, #0
  305c8e:	db21      	blt.n	305cd4 <qspi_w25q256fv_write_status+0x5c>
  305c90:	4628      	mov	r0, r5
  305c92:	4621      	mov	r1, r4
  305c94:	f7ff fc1a 	bl	3054cc <qspi_dma_send_cmd_data>
  305c98:	2800      	cmp	r0, #0
  305c9a:	db19      	blt.n	305cd0 <qspi_w25q256fv_write_status+0x58>
  305c9c:	2001      	movs	r0, #1
  305c9e:	f44f 71fa 	mov.w	r1, #500	; 0x1f4
  305ca2:	f7ff ffd7 	bl	305c54 <wait_flash_idle_extend.constprop.5>
  305ca6:	07c3      	lsls	r3, r0, #31
  305ca8:	4604      	mov	r4, r0
  305caa:	d50f      	bpl.n	305ccc <qspi_w25q256fv_write_status+0x54>
  305cac:	4621      	mov	r1, r4
  305cae:	480a      	ldr	r0, [pc, #40]	; (305cd8 <qspi_w25q256fv_write_status+0x60>)
  305cb0:	f7fe fb8c 	bl	3043cc <printf>
  305cb4:	2004      	movs	r0, #4
  305cb6:	f7ff f909 	bl	304ecc <qspi_wren>
  305cba:	2800      	cmp	r0, #0
  305cbc:	db08      	blt.n	305cd0 <qspi_w25q256fv_write_status+0x58>
  305cbe:	2005      	movs	r0, #5
  305cc0:	f7ff ff8a 	bl	305bd8 <qspi_fl_read_status>
  305cc4:	4601      	mov	r1, r0
  305cc6:	4805      	ldr	r0, [pc, #20]	; (305cdc <qspi_w25q256fv_write_status+0x64>)
  305cc8:	f7fe fb80 	bl	3043cc <printf>
  305ccc:	4620      	mov	r0, r4
  305cce:	bd38      	pop	{r3, r4, r5, pc}
  305cd0:	f04f 30ff 	mov.w	r0, #4294967295	; 0xffffffff
  305cd4:	bd38      	pop	{r3, r4, r5, pc}
  305cd6:	bf00      	nop
  305cd8:	00301980 	eorseq	r1, r0, r0, lsl #19
  305cdc:	003019d1 	ldrsbteq	r1, [r0], -r1

00305ce0 <qspi_w25q256fv_write_extend_addr.constprop.6>:
  305ce0:	b510      	push	{r4, lr}
  305ce2:	4604      	mov	r4, r0
  305ce4:	2006      	movs	r0, #6
  305ce6:	f7ff f8f1 	bl	304ecc <qspi_wren>
  305cea:	2800      	cmp	r0, #0
  305cec:	db08      	blt.n	305d00 <qspi_w25q256fv_write_extend_addr.constprop.6+0x20>
  305cee:	f7ff ff81 	bl	305bf4 <qspi_fl_wait_wel>
  305cf2:	2800      	cmp	r0, #0
  305cf4:	db04      	blt.n	305d00 <qspi_w25q256fv_write_extend_addr.constprop.6+0x20>
  305cf6:	20c5      	movs	r0, #197	; 0xc5
  305cf8:	4621      	mov	r1, r4
  305cfa:	f7ff fbe7 	bl	3054cc <qspi_dma_send_cmd_data>
  305cfe:	17c0      	asrs	r0, r0, #31
  305d00:	bd10      	pop	{r4, pc}

00305d02 <qspi_w25q256fv_quad_disable>:
  305d02:	b508      	push	{r3, lr}
  305d04:	2035      	movs	r0, #53	; 0x35
  305d06:	f7ff ff67 	bl	305bd8 <qspi_fl_read_status>
  305d0a:	f000 0302 	and.w	r3, r0, #2
  305d0e:	4601      	mov	r1, r0
  305d10:	f003 00ff 	and.w	r0, r3, #255	; 0xff
  305d14:	b133      	cbz	r3, 305d24 <qspi_w25q256fv_quad_disable+0x22>
  305d16:	2031      	movs	r0, #49	; 0x31
  305d18:	f001 01fd 	and.w	r1, r1, #253	; 0xfd
  305d1c:	f7ff ffac 	bl	305c78 <qspi_w25q256fv_write_status>
  305d20:	f340 0000 	sbfx	r0, r0, #0, #1
  305d24:	bd08      	pop	{r3, pc}

00305d26 <qspi_w25q256fv_write_page>:
  305d26:	b570      	push	{r4, r5, r6, lr}
  305d28:	4604      	mov	r4, r0
  305d2a:	2006      	movs	r0, #6
  305d2c:	460e      	mov	r6, r1
  305d2e:	4615      	mov	r5, r2
  305d30:	f7ff f8cc 	bl	304ecc <qspi_wren>
  305d34:	2800      	cmp	r0, #0
  305d36:	db35      	blt.n	305da4 <qspi_w25q256fv_write_page+0x7e>
  305d38:	f7ff ff5c 	bl	305bf4 <qspi_fl_wait_wel>
  305d3c:	2800      	cmp	r0, #0
  305d3e:	db31      	blt.n	305da4 <qspi_w25q256fv_write_page+0x7e>
  305d40:	4819      	ldr	r0, [pc, #100]	; (305da8 <qspi_w25q256fv_write_page+0x82>)
  305d42:	f5b5 7f80 	cmp.w	r5, #256	; 0x100
  305d46:	f04f 0202 	mov.w	r2, #2
  305d4a:	70c4      	strb	r4, [r0, #3]
  305d4c:	7002      	strb	r2, [r0, #0]
  305d4e:	ea4f 4214 	mov.w	r2, r4, lsr #16
  305d52:	7042      	strb	r2, [r0, #1]
  305d54:	ea4f 2214 	mov.w	r2, r4, lsr #8
  305d58:	7082      	strb	r2, [r0, #2]
  305d5a:	dc04      	bgt.n	305d66 <qspi_w25q256fv_write_page+0x40>
  305d5c:	3004      	adds	r0, #4
  305d5e:	4631      	mov	r1, r6
  305d60:	462a      	mov	r2, r5
  305d62:	f7fd f88e 	bl	302e82 <memcpy>
  305d66:	4810      	ldr	r0, [pc, #64]	; (305da8 <qspi_w25q256fv_write_page+0x82>)
  305d68:	1d29      	adds	r1, r5, #4
  305d6a:	f7ff f8f0 	bl	304f4e <qspi_send_xx_data>
  305d6e:	2800      	cmp	r0, #0
  305d70:	db16      	blt.n	305da0 <qspi_w25q256fv_write_page+0x7a>
  305d72:	2001      	movs	r0, #1
  305d74:	f44f 71fa 	mov.w	r1, #500	; 0x1f4
  305d78:	f7ff ff6c 	bl	305c54 <wait_flash_idle_extend.constprop.5>
  305d7c:	4602      	mov	r2, r0
  305d7e:	f010 0001 	ands.w	r0, r0, #1
  305d82:	d00f      	beq.n	305da4 <qspi_w25q256fv_write_page+0x7e>
  305d84:	4621      	mov	r1, r4
  305d86:	4809      	ldr	r0, [pc, #36]	; (305dac <qspi_w25q256fv_write_page+0x86>)
  305d88:	f7fe fb20 	bl	3043cc <printf>
  305d8c:	2004      	movs	r0, #4
  305d8e:	f7ff f89d 	bl	304ecc <qspi_wren>
  305d92:	2005      	movs	r0, #5
  305d94:	f7ff ff20 	bl	305bd8 <qspi_fl_read_status>
  305d98:	4601      	mov	r1, r0
  305d9a:	4805      	ldr	r0, [pc, #20]	; (305db0 <qspi_w25q256fv_write_page+0x8a>)
  305d9c:	f7fe fb16 	bl	3043cc <printf>
  305da0:	f04f 30ff 	mov.w	r0, #4294967295	; 0xffffffff
  305da4:	bd70      	pop	{r4, r5, r6, pc}
  305da6:	bf00      	nop
  305da8:	00309f44 	eorseq	r9, r0, r4, asr #30
  305dac:	003019a6 	eorseq	r1, r0, r6, lsr #19
  305db0:	003019d1 	ldrsbteq	r1, [r0], -r1

00305db4 <qspi_w25q256fv_dma_write_page>:
  305db4:	b5f7      	push	{r0, r1, r2, r4, r5, r6, r7, lr}
  305db6:	4604      	mov	r4, r0
  305db8:	2006      	movs	r0, #6
  305dba:	460e      	mov	r6, r1
  305dbc:	4615      	mov	r5, r2
  305dbe:	461f      	mov	r7, r3
  305dc0:	f7ff f884 	bl	304ecc <qspi_wren>
  305dc4:	2800      	cmp	r0, #0
  305dc6:	db2e      	blt.n	305e26 <qspi_w25q256fv_dma_write_page+0x72>
  305dc8:	f7ff ff14 	bl	305bf4 <qspi_fl_wait_wel>
  305dcc:	2800      	cmp	r0, #0
  305dce:	db2a      	blt.n	305e26 <qspi_w25q256fv_dma_write_page+0x72>
  305dd0:	9700      	str	r7, [sp, #0]
  305dd2:	2002      	movs	r0, #2
  305dd4:	4621      	mov	r1, r4
  305dd6:	4632      	mov	r2, r6
  305dd8:	462b      	mov	r3, r5
  305dda:	f7ff f9e9 	bl	3051b0 <qspi_dma_write_page>
  305dde:	2800      	cmp	r0, #0
  305de0:	db1f      	blt.n	305e22 <qspi_w25q256fv_dma_write_page+0x6e>
  305de2:	2001      	movs	r0, #1
  305de4:	f44f 71fa 	mov.w	r1, #500	; 0x1f4
  305de8:	f7ff ff34 	bl	305c54 <wait_flash_idle_extend.constprop.5>
  305dec:	f010 0501 	ands.w	r5, r0, #1
  305df0:	4603      	mov	r3, r0
  305df2:	d012      	beq.n	305e1a <qspi_w25q256fv_dma_write_page+0x66>
  305df4:	4622      	mov	r2, r4
  305df6:	490d      	ldr	r1, [pc, #52]	; (305e2c <qspi_w25q256fv_dma_write_page+0x78>)
  305df8:	480d      	ldr	r0, [pc, #52]	; (305e30 <qspi_w25q256fv_dma_write_page+0x7c>)
  305dfa:	f7fe fae7 	bl	3043cc <printf>
  305dfe:	2004      	movs	r0, #4
  305e00:	f7ff f864 	bl	304ecc <qspi_wren>
  305e04:	2005      	movs	r0, #5
  305e06:	f7ff fee7 	bl	305bd8 <qspi_fl_read_status>
  305e0a:	4908      	ldr	r1, [pc, #32]	; (305e2c <qspi_w25q256fv_dma_write_page+0x78>)
  305e0c:	4602      	mov	r2, r0
  305e0e:	4809      	ldr	r0, [pc, #36]	; (305e34 <qspi_w25q256fv_dma_write_page+0x80>)
  305e10:	f7fe fadc 	bl	3043cc <printf>
  305e14:	f7fe fe08 	bl	304a28 <qspi_hw_init>
  305e18:	e003      	b.n	305e22 <qspi_w25q256fv_dma_write_page+0x6e>
  305e1a:	f7fe fe05 	bl	304a28 <qspi_hw_init>
  305e1e:	4628      	mov	r0, r5
  305e20:	e001      	b.n	305e26 <qspi_w25q256fv_dma_write_page+0x72>
  305e22:	f04f 30ff 	mov.w	r0, #4294967295	; 0xffffffff
  305e26:	b003      	add	sp, #12
  305e28:	bdf0      	pop	{r4, r5, r6, r7, pc}
  305e2a:	bf00      	nop
  305e2c:	00300768 	eorseq	r0, r0, r8, ror #14
  305e30:	003019a3 	eorseq	r1, r0, r3, lsr #19
  305e34:	003019ce 	eorseq	r1, r0, lr, asr #19

00305e38 <qspi_w25q256fv_erase>:
  305e38:	b513      	push	{r0, r1, r4, lr}
  305e3a:	4604      	mov	r4, r0
  305e3c:	2006      	movs	r0, #6
  305e3e:	f7ff f845 	bl	304ecc <qspi_wren>
  305e42:	2800      	cmp	r0, #0
  305e44:	db28      	blt.n	305e98 <qspi_w25q256fv_erase+0x60>
  305e46:	f7ff fed5 	bl	305bf4 <qspi_fl_wait_wel>
  305e4a:	2800      	cmp	r0, #0
  305e4c:	db24      	blt.n	305e98 <qspi_w25q256fv_erase+0x60>
  305e4e:	2200      	movs	r2, #0
  305e50:	2308      	movs	r3, #8
  305e52:	20d8      	movs	r0, #216	; 0xd8
  305e54:	9300      	str	r3, [sp, #0]
  305e56:	4621      	mov	r1, r4
  305e58:	4613      	mov	r3, r2
  305e5a:	f7ff f9a9 	bl	3051b0 <qspi_dma_write_page>
  305e5e:	2800      	cmp	r0, #0
  305e60:	db18      	blt.n	305e94 <qspi_w25q256fv_erase+0x5c>
  305e62:	2002      	movs	r0, #2
  305e64:	f44f 61fa 	mov.w	r1, #2000	; 0x7d0
  305e68:	f7ff fef4 	bl	305c54 <wait_flash_idle_extend.constprop.5>
  305e6c:	f000 0302 	and.w	r3, r0, #2
  305e70:	4602      	mov	r2, r0
  305e72:	f003 00ff 	and.w	r0, r3, #255	; 0xff
  305e76:	b17b      	cbz	r3, 305e98 <qspi_w25q256fv_erase+0x60>
  305e78:	4621      	mov	r1, r4
  305e7a:	4808      	ldr	r0, [pc, #32]	; (305e9c <qspi_w25q256fv_erase+0x64>)
  305e7c:	f7fe faa6 	bl	3043cc <printf>
  305e80:	2004      	movs	r0, #4
  305e82:	f7ff f823 	bl	304ecc <qspi_wren>
  305e86:	2005      	movs	r0, #5
  305e88:	f7ff fea6 	bl	305bd8 <qspi_fl_read_status>
  305e8c:	4601      	mov	r1, r0
  305e8e:	4804      	ldr	r0, [pc, #16]	; (305ea0 <qspi_w25q256fv_erase+0x68>)
  305e90:	f7fe fa9c 	bl	3043cc <printf>
  305e94:	f04f 30ff 	mov.w	r0, #4294967295	; 0xffffffff
  305e98:	b002      	add	sp, #8
  305e9a:	bd10      	pop	{r4, pc}
  305e9c:	003019ef 	eorseq	r1, r0, pc, ror #19
  305ea0:	00301a15 	eorseq	r1, r0, r5, lsl sl

00305ea4 <qspi_w25q256fv_erase_all>:
  305ea4:	b507      	push	{r0, r1, r2, lr}
  305ea6:	2006      	movs	r0, #6
  305ea8:	f7ff f810 	bl	304ecc <qspi_wren>
  305eac:	2800      	cmp	r0, #0
  305eae:	db23      	blt.n	305ef8 <qspi_w25q256fv_erase_all+0x54>
  305eb0:	f7ff fea0 	bl	305bf4 <qspi_fl_wait_wel>
  305eb4:	2800      	cmp	r0, #0
  305eb6:	db1f      	blt.n	305ef8 <qspi_w25q256fv_erase_all+0x54>
  305eb8:	a802      	add	r0, sp, #8
  305eba:	23c7      	movs	r3, #199	; 0xc7
  305ebc:	2101      	movs	r1, #1
  305ebe:	f800 3d04 	strb.w	r3, [r0, #-4]!
  305ec2:	f7ff f844 	bl	304f4e <qspi_send_xx_data>
  305ec6:	2800      	cmp	r0, #0
  305ec8:	db14      	blt.n	305ef4 <qspi_w25q256fv_erase_all+0x50>
  305eca:	490d      	ldr	r1, [pc, #52]	; (305f00 <qspi_w25q256fv_erase_all+0x5c>)
  305ecc:	2001      	movs	r0, #1
  305ece:	f7ff fec1 	bl	305c54 <wait_flash_idle_extend.constprop.5>
  305ed2:	4601      	mov	r1, r0
  305ed4:	f010 0001 	ands.w	r0, r0, #1
  305ed8:	d00e      	beq.n	305ef8 <qspi_w25q256fv_erase_all+0x54>
  305eda:	480a      	ldr	r0, [pc, #40]	; (305f04 <qspi_w25q256fv_erase_all+0x60>)
  305edc:	f7fe fa76 	bl	3043cc <printf>
  305ee0:	2004      	movs	r0, #4
  305ee2:	f7fe fff3 	bl	304ecc <qspi_wren>
  305ee6:	2005      	movs	r0, #5
  305ee8:	f7ff fe76 	bl	305bd8 <qspi_fl_read_status>
  305eec:	4601      	mov	r1, r0
  305eee:	4806      	ldr	r0, [pc, #24]	; (305f08 <qspi_w25q256fv_erase_all+0x64>)
  305ef0:	f7fe fa6c 	bl	3043cc <printf>
  305ef4:	f04f 30ff 	mov.w	r0, #4294967295	; 0xffffffff
  305ef8:	b003      	add	sp, #12
  305efa:	f85d fb04 	ldr.w	pc, [sp], #4
  305efe:	bf00      	nop
  305f00:	00061a80 	andeq	r1, r6, r0, lsl #21
  305f04:	00301a39 	eorseq	r1, r0, r9, lsr sl
  305f08:	003019d1 	ldrsbteq	r1, [r0], -r1

00305f0c <qspi_w25q256fv_4byte_extend>:
  305f0c:	2900      	cmp	r1, #0
  305f0e:	b510      	push	{r4, lr}
  305f10:	4604      	mov	r4, r0
  305f12:	f04f 00c8 	mov.w	r0, #200	; 0xc8
  305f16:	dd07      	ble.n	305f28 <qspi_w25q256fv_4byte_extend+0x1c>
  305f18:	f7ff fe5e 	bl	305bd8 <qspi_fl_read_status>
  305f1c:	f3c4 6300 	ubfx	r3, r4, #24, #1
  305f20:	4298      	cmp	r0, r3
  305f22:	d009      	beq.n	305f38 <qspi_w25q256fv_4byte_extend+0x2c>
  305f24:	4618      	mov	r0, r3
  305f26:	e003      	b.n	305f30 <qspi_w25q256fv_4byte_extend+0x24>
  305f28:	f7ff fe56 	bl	305bd8 <qspi_fl_read_status>
  305f2c:	b120      	cbz	r0, 305f38 <qspi_w25q256fv_4byte_extend+0x2c>
  305f2e:	2000      	movs	r0, #0
  305f30:	e8bd 4010 	ldmia.w	sp!, {r4, lr}
  305f34:	f7ff bed4 	b.w	305ce0 <qspi_w25q256fv_write_extend_addr.constprop.6>
  305f38:	2000      	movs	r0, #0
  305f3a:	bd10      	pop	{r4, pc}

00305f3c <qspi_w25q256fv_quad>:
  305f3c:	2800      	cmp	r0, #0
  305f3e:	b508      	push	{r3, lr}
  305f40:	dd0f      	ble.n	305f62 <qspi_w25q256fv_quad+0x26>
  305f42:	2035      	movs	r0, #53	; 0x35
  305f44:	f7ff fe48 	bl	305bd8 <qspi_fl_read_status>
  305f48:	0782      	lsls	r2, r0, #30
  305f4a:	d408      	bmi.n	305f5e <qspi_w25q256fv_quad+0x22>
  305f4c:	f040 0102 	orr.w	r1, r0, #2
  305f50:	2031      	movs	r0, #49	; 0x31
  305f52:	b2c9      	uxtb	r1, r1
  305f54:	f7ff fe90 	bl	305c78 <qspi_w25q256fv_write_status>
  305f58:	f340 0000 	sbfx	r0, r0, #0, #1
  305f5c:	bd08      	pop	{r3, pc}
  305f5e:	2000      	movs	r0, #0
  305f60:	bd08      	pop	{r3, pc}
  305f62:	e8bd 4008 	ldmia.w	sp!, {r3, lr}
  305f66:	f7ff becc 	b.w	305d02 <qspi_w25q256fv_quad_disable>

00305f6a <qspi_w25q256fv_wps_op>:
  305f6a:	b510      	push	{r4, lr}
  305f6c:	4604      	mov	r4, r0
  305f6e:	2015      	movs	r0, #21
  305f70:	f7ff fe32 	bl	305bd8 <qspi_fl_read_status>
  305f74:	f000 0304 	and.w	r3, r0, #4
  305f78:	b92c      	cbnz	r4, 305f86 <qspi_w25q256fv_wps_op+0x1c>
  305f7a:	b90b      	cbnz	r3, 305f80 <qspi_w25q256fv_wps_op+0x16>
  305f7c:	2000      	movs	r0, #0
  305f7e:	bd10      	pop	{r4, pc}
  305f80:	f000 01fb 	and.w	r1, r0, #251	; 0xfb
  305f84:	e004      	b.n	305f90 <qspi_w25q256fv_wps_op+0x26>
  305f86:	2b00      	cmp	r3, #0
  305f88:	d1f8      	bne.n	305f7c <qspi_w25q256fv_wps_op+0x12>
  305f8a:	f040 0104 	orr.w	r1, r0, #4
  305f8e:	b2c9      	uxtb	r1, r1
  305f90:	2011      	movs	r0, #17
  305f92:	f7ff fe71 	bl	305c78 <qspi_w25q256fv_write_status>
  305f96:	07c1      	lsls	r1, r0, #31
  305f98:	d5f0      	bpl.n	305f7c <qspi_w25q256fv_wps_op+0x12>
  305f9a:	4803      	ldr	r0, [pc, #12]	; (305fa8 <qspi_w25q256fv_wps_op+0x3e>)
  305f9c:	f7fe fa16 	bl	3043cc <printf>
  305fa0:	f04f 30ff 	mov.w	r0, #4294967295	; 0xffffffff
  305fa4:	bd10      	pop	{r4, pc}
  305fa6:	bf00      	nop
  305fa8:	00301a5a 	eorseq	r1, r0, sl, asr sl

00305fac <qspi_w25q256fv_prot_region>:
  305fac:	b538      	push	{r3, r4, r5, lr}
  305fae:	4604      	mov	r4, r0
  305fb0:	2000      	movs	r0, #0
  305fb2:	460d      	mov	r5, r1
  305fb4:	f7ff ffd9 	bl	305f6a <qspi_w25q256fv_wps_op>
  305fb8:	2800      	cmp	r0, #0
  305fba:	da04      	bge.n	305fc6 <qspi_w25q256fv_prot_region+0x1a>
  305fbc:	491c      	ldr	r1, [pc, #112]	; (306030 <qspi_w25q256fv_prot_region+0x84>)
  305fbe:	481d      	ldr	r0, [pc, #116]	; (306034 <qspi_w25q256fv_prot_region+0x88>)
  305fc0:	f7fe fa04 	bl	3043cc <printf>
  305fc4:	e025      	b.n	306012 <qspi_w25q256fv_prot_region+0x66>
  305fc6:	2d00      	cmp	r5, #0
  305fc8:	dd17      	ble.n	305ffa <qspi_w25q256fv_prot_region+0x4e>
  305fca:	2c0f      	cmp	r4, #15
  305fcc:	dc21      	bgt.n	306012 <qspi_w25q256fv_prot_region+0x66>
  305fce:	2005      	movs	r0, #5
  305fd0:	f7ff fe02 	bl	305bd8 <qspi_fl_read_status>
  305fd4:	4605      	mov	r5, r0
  305fd6:	2015      	movs	r0, #21
  305fd8:	f7ff fdfe 	bl	305bd8 <qspi_fl_read_status>
  305fdc:	f000 0304 	and.w	r3, r0, #4
  305fe0:	f003 00ff 	and.w	r0, r3, #255	; 0xff
  305fe4:	b993      	cbnz	r3, 30600c <qspi_w25q256fv_prot_region+0x60>
  305fe6:	00a4      	lsls	r4, r4, #2
  305fe8:	f005 033c 	and.w	r3, r5, #60	; 0x3c
  305fec:	42a3      	cmp	r3, r4
  305fee:	d01d      	beq.n	30602c <qspi_w25q256fv_prot_region+0x80>
  305ff0:	ea45 0104 	orr.w	r1, r5, r4
  305ff4:	2001      	movs	r0, #1
  305ff6:	b2c9      	uxtb	r1, r1
  305ff8:	e014      	b.n	306024 <qspi_w25q256fv_prot_region+0x78>
  305ffa:	2005      	movs	r0, #5
  305ffc:	f7ff fdec 	bl	305bd8 <qspi_fl_read_status>
  306000:	4604      	mov	r4, r0
  306002:	2015      	movs	r0, #21
  306004:	f7ff fde8 	bl	305bd8 <qspi_fl_read_status>
  306008:	0740      	lsls	r0, r0, #29
  30600a:	d505      	bpl.n	306018 <qspi_w25q256fv_prot_region+0x6c>
  30600c:	480a      	ldr	r0, [pc, #40]	; (306038 <qspi_w25q256fv_prot_region+0x8c>)
  30600e:	f7fe f9dd 	bl	3043cc <printf>
  306012:	f04f 30ff 	mov.w	r0, #4294967295	; 0xffffffff
  306016:	bd38      	pop	{r3, r4, r5, pc}
  306018:	f014 003c 	ands.w	r0, r4, #60	; 0x3c
  30601c:	d006      	beq.n	30602c <qspi_w25q256fv_prot_region+0x80>
  30601e:	f004 01c3 	and.w	r1, r4, #195	; 0xc3
  306022:	2001      	movs	r0, #1
  306024:	f7ff fe28 	bl	305c78 <qspi_w25q256fv_write_status>
  306028:	f340 0000 	sbfx	r0, r0, #0, #1
  30602c:	bd38      	pop	{r3, r4, r5, pc}
  30602e:	bf00      	nop
  306030:	00300786 	eorseq	r0, r0, r6, lsl #15
  306034:	00301a6c 	eorseq	r1, r0, ip, ror #20
  306038:	00301a80 	eorseq	r1, r0, r0, lsl #21

0030603c <qspi_w25q256fv_read_status>:
  30603c:	b508      	push	{r3, lr}
  30603e:	2005      	movs	r0, #5
  306040:	f7ff fdca 	bl	305bd8 <qspi_fl_read_status>
  306044:	4601      	mov	r1, r0
  306046:	480d      	ldr	r0, [pc, #52]	; (30607c <qspi_w25q256fv_read_status+0x40>)
  306048:	f7fe f9c0 	bl	3043cc <printf>
  30604c:	2035      	movs	r0, #53	; 0x35
  30604e:	f7ff fdc3 	bl	305bd8 <qspi_fl_read_status>
  306052:	4601      	mov	r1, r0
  306054:	480a      	ldr	r0, [pc, #40]	; (306080 <qspi_w25q256fv_read_status+0x44>)
  306056:	f7fe f9b9 	bl	3043cc <printf>
  30605a:	2015      	movs	r0, #21
  30605c:	f7ff fdbc 	bl	305bd8 <qspi_fl_read_status>
  306060:	4601      	mov	r1, r0
  306062:	4808      	ldr	r0, [pc, #32]	; (306084 <qspi_w25q256fv_read_status+0x48>)
  306064:	f7fe f9b2 	bl	3043cc <printf>
  306068:	20c8      	movs	r0, #200	; 0xc8
  30606a:	f7ff fdb5 	bl	305bd8 <qspi_fl_read_status>
  30606e:	4601      	mov	r1, r0
  306070:	4805      	ldr	r0, [pc, #20]	; (306088 <qspi_w25q256fv_read_status+0x4c>)
  306072:	f7fe f9ab 	bl	3043cc <printf>
  306076:	2000      	movs	r0, #0
  306078:	bd08      	pop	{r3, pc}
  30607a:	bf00      	nop
  30607c:	00301ab5 	ldrhteq	r1, [r0], -r5
  306080:	00301acb 	eorseq	r1, r0, fp, asr #21
  306084:	00301ae1 	eorseq	r1, r0, r1, ror #21
  306088:	00301af7 	ldrshteq	r1, [r0], -r7

0030608c <qspi_w25q256fv_reset>:
  30608c:	b513      	push	{r0, r1, r4, lr}
  30608e:	ac02      	add	r4, sp, #8
  306090:	2366      	movs	r3, #102	; 0x66
  306092:	2101      	movs	r1, #1
  306094:	f804 3d01 	strb.w	r3, [r4, #-1]!
  306098:	4620      	mov	r0, r4
  30609a:	f7fe ff58 	bl	304f4e <qspi_send_xx_data>
  30609e:	2800      	cmp	r0, #0
  3060a0:	db0c      	blt.n	3060bc <qspi_w25q256fv_reset+0x30>
  3060a2:	4620      	mov	r0, r4
  3060a4:	2101      	movs	r1, #1
  3060a6:	2399      	movs	r3, #153	; 0x99
  3060a8:	f88d 3007 	strb.w	r3, [sp, #7]
  3060ac:	f7fe ff4f 	bl	304f4e <qspi_send_xx_data>
  3060b0:	4604      	mov	r4, r0
  3060b2:	200a      	movs	r0, #10
  3060b4:	f7fe fb26 	bl	304704 <mdelay>
  3060b8:	ea04 70e4 	and.w	r0, r4, r4, asr #31
  3060bc:	b002      	add	sp, #8
  3060be:	bd10      	pop	{r4, pc}

003060c0 <qspi_w25q256fv_read_block_lock_status>:
  3060c0:	b51f      	push	{r0, r1, r2, r3, r4, lr}
  3060c2:	4604      	mov	r4, r0
  3060c4:	2015      	movs	r0, #21
  3060c6:	2300      	movs	r3, #0
  3060c8:	f88d 300f 	strb.w	r3, [sp, #15]
  3060cc:	f7ff fd84 	bl	305bd8 <qspi_fl_read_status>
  3060d0:	0743      	lsls	r3, r0, #29
  3060d2:	d401      	bmi.n	3060d8 <qspi_w25q256fv_read_block_lock_status+0x18>
  3060d4:	480b      	ldr	r0, [pc, #44]	; (306104 <qspi_w25q256fv_read_block_lock_status+0x44>)
  3060d6:	e00a      	b.n	3060ee <qspi_w25q256fv_read_block_lock_status+0x2e>
  3060d8:	2201      	movs	r2, #1
  3060da:	203d      	movs	r0, #61	; 0x3d
  3060dc:	9200      	str	r2, [sp, #0]
  3060de:	4621      	mov	r1, r4
  3060e0:	f10d 030f 	add.w	r3, sp, #15
  3060e4:	f7ff fa98 	bl	305618 <qspi_read_xx_data>
  3060e8:	2801      	cmp	r0, #1
  3060ea:	d005      	beq.n	3060f8 <qspi_w25q256fv_read_block_lock_status+0x38>
  3060ec:	4806      	ldr	r0, [pc, #24]	; (306108 <qspi_w25q256fv_read_block_lock_status+0x48>)
  3060ee:	f7fe f96d 	bl	3043cc <printf>
  3060f2:	f06f 0015 	mvn.w	r0, #21
  3060f6:	e003      	b.n	306100 <qspi_w25q256fv_read_block_lock_status+0x40>
  3060f8:	f89d 000f 	ldrb.w	r0, [sp, #15]
  3060fc:	f000 0001 	and.w	r0, r0, #1
  306100:	b004      	add	sp, #16
  306102:	bd10      	pop	{r4, pc}
  306104:	00301b10 	eorseq	r1, r0, r0, lsl fp
  306108:	00301b3a 	eorseq	r1, r0, sl, lsr fp

0030610c <qspi_w25q256fv_block_lock>:
  30610c:	b538      	push	{r3, r4, r5, lr}
  30610e:	4605      	mov	r5, r0
  306110:	2001      	movs	r0, #1
  306112:	f7ff ff2a 	bl	305f6a <qspi_w25q256fv_wps_op>
  306116:	4604      	mov	r4, r0
  306118:	b120      	cbz	r0, 306124 <qspi_w25q256fv_block_lock+0x18>
  30611a:	4909      	ldr	r1, [pc, #36]	; (306140 <qspi_w25q256fv_block_lock+0x34>)
  30611c:	4809      	ldr	r0, [pc, #36]	; (306144 <qspi_w25q256fv_block_lock+0x38>)
  30611e:	f7fe f955 	bl	3043cc <printf>
  306122:	e00b      	b.n	30613c <qspi_w25q256fv_block_lock+0x30>
  306124:	4628      	mov	r0, r5
  306126:	f7ff ffcb 	bl	3060c0 <qspi_w25q256fv_read_block_lock_status>
  30612a:	2801      	cmp	r0, #1
  30612c:	d006      	beq.n	30613c <qspi_w25q256fv_block_lock+0x30>
  30612e:	4629      	mov	r1, r5
  306130:	2201      	movs	r2, #1
  306132:	2036      	movs	r0, #54	; 0x36
  306134:	f7ff fd6e 	bl	305c14 <qspi_w25q256fv_send_lock_cmd>
  306138:	17c0      	asrs	r0, r0, #31
  30613a:	bd38      	pop	{r3, r4, r5, pc}
  30613c:	4620      	mov	r0, r4
  30613e:	bd38      	pop	{r3, r4, r5, pc}
  306140:	003007a1 	eorseq	r0, r0, r1, lsr #15
  306144:	00301b58 	eorseq	r1, r0, r8, asr fp

00306148 <qspi_w25q256fv_block_unlock>:
  306148:	b538      	push	{r3, r4, r5, lr}
  30614a:	4604      	mov	r4, r0
  30614c:	2001      	movs	r0, #1
  30614e:	f7ff ff0c 	bl	305f6a <qspi_w25q256fv_wps_op>
  306152:	4605      	mov	r5, r0
  306154:	b128      	cbz	r0, 306162 <qspi_w25q256fv_block_unlock+0x1a>
  306156:	4908      	ldr	r1, [pc, #32]	; (306178 <qspi_w25q256fv_block_unlock+0x30>)
  306158:	4808      	ldr	r0, [pc, #32]	; (30617c <qspi_w25q256fv_block_unlock+0x34>)
  30615a:	f7fe f937 	bl	3043cc <printf>
  30615e:	4628      	mov	r0, r5
  306160:	bd38      	pop	{r3, r4, r5, pc}
  306162:	4620      	mov	r0, r4
  306164:	f7ff ffac 	bl	3060c0 <qspi_w25q256fv_read_block_lock_status>
  306168:	b128      	cbz	r0, 306176 <qspi_w25q256fv_block_unlock+0x2e>
  30616a:	2039      	movs	r0, #57	; 0x39
  30616c:	4621      	mov	r1, r4
  30616e:	2201      	movs	r2, #1
  306170:	f7ff fd50 	bl	305c14 <qspi_w25q256fv_send_lock_cmd>
  306174:	17c0      	asrs	r0, r0, #31
  306176:	bd38      	pop	{r3, r4, r5, pc}
  306178:	003007bb 	ldrhteq	r0, [r0], -fp
  30617c:	00301b58 	eorseq	r1, r0, r8, asr fp

00306180 <qspi_w25q256fv_global_lock>:
  306180:	2100      	movs	r1, #0
  306182:	207e      	movs	r0, #126	; 0x7e
  306184:	460a      	mov	r2, r1
  306186:	f7ff bd45 	b.w	305c14 <qspi_w25q256fv_send_lock_cmd>

0030618a <qspi_w25q256fv_global_unlock>:
  30618a:	2100      	movs	r1, #0
  30618c:	2098      	movs	r0, #152	; 0x98
  30618e:	460a      	mov	r2, r1
  306190:	f7ff bd40 	b.w	305c14 <qspi_w25q256fv_send_lock_cmd>

00306194 <qspi_w25q256fv_deep_power_down>:
  306194:	b507      	push	{r0, r1, r2, lr}
  306196:	a802      	add	r0, sp, #8
  306198:	23b9      	movs	r3, #185	; 0xb9
  30619a:	2101      	movs	r1, #1
  30619c:	f800 3d01 	strb.w	r3, [r0, #-1]!
  3061a0:	f7fe fed5 	bl	304f4e <qspi_send_xx_data>
  3061a4:	17c0      	asrs	r0, r0, #31
  3061a6:	b003      	add	sp, #12
  3061a8:	f85d fb04 	ldr.w	pc, [sp], #4

003061ac <get_tr_width>:
  3061ac:	0701      	lsls	r1, r0, #28
  3061ae:	d00a      	beq.n	3061c6 <get_tr_width+0x1a>
  3061b0:	0742      	lsls	r2, r0, #29
  3061b2:	d00a      	beq.n	3061ca <get_tr_width+0x1e>
  3061b4:	0783      	lsls	r3, r0, #30
  3061b6:	d004      	beq.n	3061c2 <get_tr_width+0x16>
  3061b8:	f000 0001 	and.w	r0, r0, #1
  3061bc:	f080 0001 	eor.w	r0, r0, #1
  3061c0:	4770      	bx	lr
  3061c2:	2002      	movs	r0, #2
  3061c4:	4770      	bx	lr
  3061c6:	2004      	movs	r0, #4
  3061c8:	4770      	bx	lr
  3061ca:	2003      	movs	r0, #3
  3061cc:	4770      	bx	lr

003061ce <dma_init>:
  3061ce:	b538      	push	{r3, r4, r5, lr}
  3061d0:	4604      	mov	r4, r0
  3061d2:	4d04      	ldr	r5, [pc, #16]	; (3061e4 <dma_init+0x16>)
  3061d4:	5c2b      	ldrb	r3, [r5, r0]
  3061d6:	2b01      	cmp	r3, #1
  3061d8:	d003      	beq.n	3061e2 <dma_init+0x14>
  3061da:	f000 faf1 	bl	3067c0 <dma_enable>
  3061de:	2301      	movs	r3, #1
  3061e0:	552b      	strb	r3, [r5, r4]
  3061e2:	bd38      	pop	{r3, r4, r5, pc}
  3061e4:	0030a05c 	eorseq	sl, r0, ip, asr r0

003061e8 <dma_deinit>:
  3061e8:	b510      	push	{r4, lr}
  3061ea:	4604      	mov	r4, r0
  3061ec:	f000 faf1 	bl	3067d2 <dma_disable>
  3061f0:	4620      	mov	r0, r4
  3061f2:	f000 fb00 	bl	3067f6 <dmac_int_disable>
  3061f6:	4b02      	ldr	r3, [pc, #8]	; (306200 <dma_deinit+0x18>)
  3061f8:	2200      	movs	r2, #0
  3061fa:	551a      	strb	r2, [r3, r4]
  3061fc:	bd10      	pop	{r4, pc}
  3061fe:	bf00      	nop
  306200:	0030a05c 	eorseq	sl, r0, ip, asr r0

00306204 <dmac_enable>:
  306204:	2801      	cmp	r0, #1
  306206:	d801      	bhi.n	30620c <dmac_enable+0x8>
  306208:	f000 bada 	b.w	3067c0 <dma_enable>
  30620c:	4770      	bx	lr

0030620e <is_dma_init>:
  30620e:	2801      	cmp	r0, #1
  306210:	d805      	bhi.n	30621e <is_dma_init+0x10>
  306212:	4b04      	ldr	r3, [pc, #16]	; (306224 <is_dma_init+0x16>)
  306214:	5c18      	ldrb	r0, [r3, r0]
  306216:	3000      	adds	r0, #0
  306218:	bf18      	it	ne
  30621a:	2001      	movne	r0, #1
  30621c:	4770      	bx	lr
  30621e:	2000      	movs	r0, #0
  306220:	4770      	bx	lr
  306222:	bf00      	nop
  306224:	0030a05c 	eorseq	sl, r0, ip, asr r0

00306228 <dma_ch_disable>:
  306228:	2801      	cmp	r0, #1
  30622a:	d803      	bhi.n	306234 <dma_ch_disable+0xc>
  30622c:	2907      	cmp	r1, #7
  30622e:	d801      	bhi.n	306234 <dma_ch_disable+0xc>
  306230:	f000 bb03 	b.w	30683a <dmac_ch_disable>
  306234:	4770      	bx	lr

00306236 <syn_lock>:
  306236:	4770      	bx	lr

00306238 <syn_unlock>:
  306238:	4770      	bx	lr

0030623a <lli_lock>:
  30623a:	4b04      	ldr	r3, [pc, #16]	; (30624c <lli_lock+0x12>)
  30623c:	789a      	ldrb	r2, [r3, #2]
  30623e:	b912      	cbnz	r2, 306246 <lli_lock+0xc>
  306240:	2001      	movs	r0, #1
  306242:	7098      	strb	r0, [r3, #2]
  306244:	4770      	bx	lr
  306246:	2000      	movs	r0, #0
  306248:	4770      	bx	lr
  30624a:	bf00      	nop
  30624c:	0030a05c 	eorseq	sl, r0, ip, asr r0

00306250 <lli_unlock>:
  306250:	4b01      	ldr	r3, [pc, #4]	; (306258 <lli_unlock+0x8>)
  306252:	2200      	movs	r2, #0
  306254:	709a      	strb	r2, [r3, #2]
  306256:	4770      	bx	lr
  306258:	0030a05c 	eorseq	sl, r0, ip, asr r0

0030625c <get_lli_node_start_addr>:
  30625c:	2801      	cmp	r0, #1
  30625e:	d806      	bhi.n	30626e <get_lli_node_start_addr+0x12>
  306260:	eb01 00c0 	add.w	r0, r1, r0, lsl #3
  306264:	4b03      	ldr	r3, [pc, #12]	; (306274 <get_lli_node_start_addr+0x18>)
  306266:	eb03 0080 	add.w	r0, r3, r0, lsl #2
  30626a:	6840      	ldr	r0, [r0, #4]
  30626c:	4770      	bx	lr
  30626e:	2005      	movs	r0, #5
  306270:	4770      	bx	lr
  306272:	bf00      	nop
  306274:	0030a05c 	eorseq	sl, r0, ip, asr r0

00306278 <dma_get_valid_ch>:
  306278:	2801      	cmp	r0, #1
  30627a:	b530      	push	{r4, r5, lr}
  30627c:	d81f      	bhi.n	3062be <dma_get_valid_ch+0x46>
  30627e:	4b12      	ldr	r3, [pc, #72]	; (3062c8 <dma_get_valid_ch+0x50>)
  306280:	5c1a      	ldrb	r2, [r3, r0]
  306282:	461c      	mov	r4, r3
  306284:	b1ea      	cbz	r2, 3062c2 <dma_get_valid_ch+0x4a>
  306286:	b139      	cbz	r1, 306298 <dma_get_valid_ch+0x20>
  306288:	2901      	cmp	r1, #1
  30628a:	bf0c      	ite	eq
  30628c:	2201      	moveq	r2, #1
  30628e:	2207      	movne	r2, #7
  306290:	bf0c      	ite	eq
  306292:	2300      	moveq	r3, #0
  306294:	2304      	movne	r3, #4
  306296:	e001      	b.n	30629c <dma_get_valid_ch+0x24>
  306298:	2203      	movs	r2, #3
  30629a:	2302      	movs	r3, #2
  30629c:	00c0      	lsls	r0, r0, #3
  30629e:	4293      	cmp	r3, r2
  3062a0:	d80a      	bhi.n	3062b8 <dma_get_valid_ch+0x40>
  3062a2:	18c1      	adds	r1, r0, r3
  3062a4:	eb04 0181 	add.w	r1, r4, r1, lsl #2
  3062a8:	6c4d      	ldr	r5, [r1, #68]	; 0x44
  3062aa:	b91d      	cbnz	r5, 3062b4 <dma_get_valid_ch+0x3c>
  3062ac:	2201      	movs	r2, #1
  3062ae:	4618      	mov	r0, r3
  3062b0:	644a      	str	r2, [r1, #68]	; 0x44
  3062b2:	bd30      	pop	{r4, r5, pc}
  3062b4:	3301      	adds	r3, #1
  3062b6:	e7f2      	b.n	30629e <dma_get_valid_ch+0x26>
  3062b8:	f04f 30ff 	mov.w	r0, #4294967295	; 0xffffffff
  3062bc:	bd30      	pop	{r4, r5, pc}
  3062be:	2005      	movs	r0, #5
  3062c0:	bd30      	pop	{r4, r5, pc}
  3062c2:	2001      	movs	r0, #1
  3062c4:	bd30      	pop	{r4, r5, pc}
  3062c6:	bf00      	nop
  3062c8:	0030a05c 	eorseq	sl, r0, ip, asr r0

003062cc <dma_free_ch>:
  3062cc:	2801      	cmp	r0, #1
  3062ce:	d808      	bhi.n	3062e2 <dma_free_ch+0x16>
  3062d0:	2907      	cmp	r1, #7
  3062d2:	d806      	bhi.n	3062e2 <dma_free_ch+0x16>
  3062d4:	4b03      	ldr	r3, [pc, #12]	; (3062e4 <dma_free_ch+0x18>)
  3062d6:	eb01 01c0 	add.w	r1, r1, r0, lsl #3
  3062da:	eb03 0181 	add.w	r1, r3, r1, lsl #2
  3062de:	2300      	movs	r3, #0
  3062e0:	644b      	str	r3, [r1, #68]	; 0x44
  3062e2:	4770      	bx	lr
  3062e4:	0030a05c 	eorseq	sl, r0, ip, asr r0

003062e8 <dma_wait_ch_done>:
  3062e8:	2801      	cmp	r0, #1
  3062ea:	d80f      	bhi.n	30630c <dma_wait_ch_done+0x24>
  3062ec:	2907      	cmp	r1, #7
  3062ee:	d80d      	bhi.n	30630c <dma_wait_ch_done+0x24>
  3062f0:	2a01      	cmp	r2, #1
  3062f2:	d00b      	beq.n	30630c <dma_wait_ch_done+0x24>
  3062f4:	eb01 01c0 	add.w	r1, r1, r0, lsl #3
  3062f8:	4b05      	ldr	r3, [pc, #20]	; (306310 <dma_wait_ch_done+0x28>)
  3062fa:	eb03 0181 	add.w	r1, r3, r1, lsl #2
  3062fe:	f8d1 3084 	ldr.w	r3, [r1, #132]	; 0x84
  306302:	2b00      	cmp	r3, #0
  306304:	d0fb      	beq.n	3062fe <dma_wait_ch_done+0x16>
  306306:	2300      	movs	r3, #0
  306308:	f8c1 3084 	str.w	r3, [r1, #132]	; 0x84
  30630c:	4770      	bx	lr
  30630e:	bf00      	nop
  306310:	0030a05c 	eorseq	sl, r0, ip, asr r0

00306314 <dma_wait_channel_done_polling>:
  306314:	2a01      	cmp	r2, #1
  306316:	b510      	push	{r4, lr}
  306318:	d011      	beq.n	30633e <dma_wait_channel_done_polling+0x2a>
  30631a:	2801      	cmp	r0, #1
  30631c:	d80f      	bhi.n	30633e <dma_wait_channel_done_polling+0x2a>
  30631e:	2907      	cmp	r1, #7
  306320:	d80d      	bhi.n	30633e <dma_wait_channel_done_polling+0x2a>
  306322:	f000 fa2b 	bl	30677c <get_hwp_dma>
  306326:	4604      	mov	r4, r0
  306328:	4620      	mov	r0, r4
  30632a:	f000 fb43 	bl	3069b4 <dmac_ch_int_status_get>
  30632e:	0780      	lsls	r0, r0, #30
  306330:	d5fa      	bpl.n	306328 <dma_wait_channel_done_polling+0x14>
  306332:	4620      	mov	r0, r4
  306334:	2101      	movs	r1, #1
  306336:	e8bd 4010 	ldmia.w	sp!, {r4, lr}
  30633a:	f000 bb74 	b.w	306a26 <dmac_ch_int_clear>
  30633e:	bd10      	pop	{r4, pc}

00306340 <dma_close_ch>:
  306340:	2801      	cmp	r0, #1
  306342:	d803      	bhi.n	30634c <dma_close_ch+0xc>
  306344:	2907      	cmp	r1, #7
  306346:	d801      	bhi.n	30634c <dma_close_ch+0xc>
  306348:	f7ff bfc0 	b.w	3062cc <dma_free_ch>
  30634c:	4770      	bx	lr

0030634e <dma_ch_sar_set>:
  30634e:	2801      	cmp	r0, #1
  306350:	b510      	push	{r4, lr}
  306352:	4614      	mov	r4, r2
  306354:	d808      	bhi.n	306368 <dma_ch_sar_set+0x1a>
  306356:	2907      	cmp	r1, #7
  306358:	d806      	bhi.n	306368 <dma_ch_sar_set+0x1a>
  30635a:	f000 fa0f 	bl	30677c <get_hwp_dma>
  30635e:	4621      	mov	r1, r4
  306360:	e8bd 4010 	ldmia.w	sp!, {r4, lr}
  306364:	f000 baab 	b.w	3068be <dmac_ch_sar_set>
  306368:	bd10      	pop	{r4, pc}

0030636a <dma_ch_dar_set>:
  30636a:	2801      	cmp	r0, #1
  30636c:	b510      	push	{r4, lr}
  30636e:	4614      	mov	r4, r2
  306370:	d808      	bhi.n	306384 <dma_ch_dar_set+0x1a>
  306372:	2907      	cmp	r1, #7
  306374:	d806      	bhi.n	306384 <dma_ch_dar_set+0x1a>
  306376:	f000 fa01 	bl	30677c <get_hwp_dma>
  30637a:	4621      	mov	r1, r4
  30637c:	e8bd 4010 	ldmia.w	sp!, {r4, lr}
  306380:	f000 ba9f 	b.w	3068c2 <dmac_ch_dar_set>
  306384:	bd10      	pop	{r4, pc}

00306386 <dma_ch_int_ctl>:
  306386:	2801      	cmp	r0, #1
  306388:	b570      	push	{r4, r5, r6, lr}
  30638a:	4614      	mov	r4, r2
  30638c:	461d      	mov	r5, r3
  30638e:	d814      	bhi.n	3063ba <dma_ch_int_ctl+0x34>
  306390:	2907      	cmp	r1, #7
  306392:	d812      	bhi.n	3063ba <dma_ch_int_ctl+0x34>
  306394:	2a0d      	cmp	r2, #13
  306396:	d810      	bhi.n	3063ba <dma_ch_int_ctl+0x34>
  306398:	f000 f9f0 	bl	30677c <get_hwp_dma>
  30639c:	3500      	adds	r5, #0
  30639e:	4621      	mov	r1, r4
  3063a0:	bf18      	it	ne
  3063a2:	2501      	movne	r5, #1
  3063a4:	462a      	mov	r2, r5
  3063a6:	4606      	mov	r6, r0
  3063a8:	f000 fb07 	bl	3069ba <dmac_ch_int_status_ctl>
  3063ac:	4630      	mov	r0, r6
  3063ae:	4621      	mov	r1, r4
  3063b0:	462a      	mov	r2, r5
  3063b2:	e8bd 4070 	ldmia.w	sp!, {r4, r5, r6, lr}
  3063b6:	f000 bb18 	b.w	3069ea <dmac_ch_int_signal_ctl>
  3063ba:	bd70      	pop	{r4, r5, r6, pc}

003063bc <dma_dir_base>:
  3063bc:	e92d 43f8 	stmdb	sp!, {r3, r4, r5, r6, r7, r8, r9, lr}
  3063c0:	4698      	mov	r8, r3
  3063c2:	4606      	mov	r6, r0
  3063c4:	460d      	mov	r5, r1
  3063c6:	4691      	mov	r9, r2
  3063c8:	9f09      	ldr	r7, [sp, #36]	; 0x24
  3063ca:	f000 f9d7 	bl	30677c <get_hwp_dma>
  3063ce:	2300      	movs	r3, #0
  3063d0:	6203      	str	r3, [r0, #32]
  3063d2:	4604      	mov	r4, r0
  3063d4:	f89d 3038 	ldrb.w	r3, [sp, #56]	; 0x38
  3063d8:	b93b      	cbnz	r3, 3063ea <dma_dir_base+0x2e>
  3063da:	01ff      	lsls	r7, r7, #7
  3063dc:	f047 47ff 	orr.w	r7, r7, #2139095040	; 0x7f800000
  3063e0:	f047 0702 	orr.w	r7, r7, #2
  3063e4:	6247      	str	r7, [r0, #36]	; 0x24
  3063e6:	2010      	movs	r0, #16
  3063e8:	e006      	b.n	3063f8 <dma_dir_base+0x3c>
  3063ea:	033f      	lsls	r7, r7, #12
  3063ec:	f047 47ff 	orr.w	r7, r7, #2139095040	; 0x7f800000
  3063f0:	f047 0701 	orr.w	r7, r7, #1
  3063f4:	6247      	str	r7, [r0, #36]	; 0x24
  3063f6:	2040      	movs	r0, #64	; 0x40
  3063f8:	9b0d      	ldr	r3, [sp, #52]	; 0x34
  3063fa:	4649      	mov	r1, r9
  3063fc:	049a      	lsls	r2, r3, #18
  3063fe:	9b0c      	ldr	r3, [sp, #48]	; 0x30
  306400:	ea42 3283 	orr.w	r2, r2, r3, lsl #14
  306404:	9b0b      	ldr	r3, [sp, #44]	; 0x2c
  306406:	ea42 22c3 	orr.w	r2, r2, r3, lsl #11
  30640a:	9b0a      	ldr	r3, [sp, #40]	; 0x28
  30640c:	ea42 2303 	orr.w	r3, r2, r3, lsl #8
  306410:	4318      	orrs	r0, r3
  306412:	2300      	movs	r3, #0
  306414:	61a0      	str	r0, [r4, #24]
  306416:	4620      	mov	r0, r4
  306418:	61e3      	str	r3, [r4, #28]
  30641a:	f000 fa50 	bl	3068be <dmac_ch_sar_set>
  30641e:	4620      	mov	r0, r4
  306420:	4641      	mov	r1, r8
  306422:	f000 fa4e 	bl	3068c2 <dmac_ch_dar_set>
  306426:	9908      	ldr	r1, [sp, #32]
  306428:	4620      	mov	r0, r4
  30642a:	f000 fa4c 	bl	3068c6 <dmac_ch_block_ts_set>
  30642e:	4620      	mov	r0, r4
  306430:	f000 faf3 	bl	306a1a <dmac_ch_int_disable_all>
  306434:	2101      	movs	r1, #1
  306436:	4620      	mov	r0, r4
  306438:	460a      	mov	r2, r1
  30643a:	f000 fabe 	bl	3069ba <dmac_ch_int_status_ctl>
  30643e:	2101      	movs	r1, #1
  306440:	4620      	mov	r0, r4
  306442:	460a      	mov	r2, r1
  306444:	f000 fad1 	bl	3069ea <dmac_ch_int_signal_ctl>
  306448:	f3bf 8f6f 	isb	sy
  30644c:	f3bf 8f5f 	dmb	sy
  306450:	f3bf 8f4f 	dsb	sy
  306454:	4630      	mov	r0, r6
  306456:	4629      	mov	r1, r5
  306458:	f000 f9e4 	bl	306824 <dmac_ch_enable>
  30645c:	f89d 303c 	ldrb.w	r3, [sp, #60]	; 0x3c
  306460:	b15b      	cbz	r3, 30647a <dma_dir_base+0xbe>
  306462:	eb05 05c6 	add.w	r5, r5, r6, lsl #3
  306466:	4b06      	ldr	r3, [pc, #24]	; (306480 <dma_dir_base+0xc4>)
  306468:	eb03 0585 	add.w	r5, r3, r5, lsl #2
  30646c:	f8d5 3084 	ldr.w	r3, [r5, #132]	; 0x84
  306470:	2b00      	cmp	r3, #0
  306472:	d0fb      	beq.n	30646c <dma_dir_base+0xb0>
  306474:	2300      	movs	r3, #0
  306476:	f8c5 3084 	str.w	r3, [r5, #132]	; 0x84
  30647a:	2000      	movs	r0, #0
  30647c:	e8bd 83f8 	ldmia.w	sp!, {r3, r4, r5, r6, r7, r8, r9, pc}
  306480:	0030a05c 	eorseq	sl, r0, ip, asr r0

00306484 <dma_p2m_base>:
  306484:	b510      	push	{r4, lr}
  306486:	b088      	sub	sp, #32
  306488:	9c0a      	ldr	r4, [sp, #40]	; 0x28
  30648a:	9400      	str	r4, [sp, #0]
  30648c:	9c0b      	ldr	r4, [sp, #44]	; 0x2c
  30648e:	9401      	str	r4, [sp, #4]
  306490:	9c0c      	ldr	r4, [sp, #48]	; 0x30
  306492:	9402      	str	r4, [sp, #8]
  306494:	9c0d      	ldr	r4, [sp, #52]	; 0x34
  306496:	9403      	str	r4, [sp, #12]
  306498:	9c0e      	ldr	r4, [sp, #56]	; 0x38
  30649a:	9404      	str	r4, [sp, #16]
  30649c:	9c0f      	ldr	r4, [sp, #60]	; 0x3c
  30649e:	9405      	str	r4, [sp, #20]
  3064a0:	2400      	movs	r4, #0
  3064a2:	9406      	str	r4, [sp, #24]
  3064a4:	f89d 4040 	ldrb.w	r4, [sp, #64]	; 0x40
  3064a8:	9407      	str	r4, [sp, #28]
  3064aa:	f7ff ff87 	bl	3063bc <dma_dir_base>
  3064ae:	b008      	add	sp, #32
  3064b0:	bd10      	pop	{r4, pc}

003064b2 <dma_p2m_single>:
  3064b2:	e92d 4ff0 	stmdb	sp!, {r4, r5, r6, r7, r8, r9, sl, fp, lr}
  3064b6:	b089      	sub	sp, #36	; 0x24
  3064b8:	4682      	mov	sl, r0
  3064ba:	460e      	mov	r6, r1
  3064bc:	9d12      	ldr	r5, [sp, #72]	; 0x48
  3064be:	461f      	mov	r7, r3
  3064c0:	4693      	mov	fp, r2
  3064c2:	9c13      	ldr	r4, [sp, #76]	; 0x4c
  3064c4:	f8dd 9054 	ldr.w	r9, [sp, #84]	; 0x54
  3064c8:	4628      	mov	r0, r5
  3064ca:	f7ff fe6f 	bl	3061ac <get_tr_width>
  3064ce:	4680      	mov	r8, r0
  3064d0:	4638      	mov	r0, r7
  3064d2:	f7ff fe6b 	bl	3061ac <get_tr_width>
  3064d6:	2e07      	cmp	r6, #7
  3064d8:	d82e      	bhi.n	306538 <dma_p2m_single+0x86>
  3064da:	f1ba 0f01 	cmp.w	sl, #1
  3064de:	d82b      	bhi.n	306538 <dma_p2m_single+0x86>
  3064e0:	f1b9 0f0f 	cmp.w	r9, #15
  3064e4:	d82a      	bhi.n	30653c <dma_p2m_single+0x8a>
  3064e6:	2c02      	cmp	r4, #2
  3064e8:	d828      	bhi.n	30653c <dma_p2m_single+0x8a>
  3064ea:	9b14      	ldr	r3, [sp, #80]	; 0x50
  3064ec:	2b09      	cmp	r3, #9
  3064ee:	d825      	bhi.n	30653c <dma_p2m_single+0x8a>
  3064f0:	2301      	movs	r3, #1
  3064f2:	40a3      	lsls	r3, r4
  3064f4:	3b01      	subs	r3, #1
  3064f6:	ea15 0103 	ands.w	r1, r5, r3
  3064fa:	d11f      	bne.n	30653c <dma_p2m_single+0x8a>
  3064fc:	2e03      	cmp	r6, #3
  3064fe:	d804      	bhi.n	30650a <dma_p2m_single+0x58>
  306500:	4540      	cmp	r0, r8
  306502:	bf34      	ite	cc
  306504:	4601      	movcc	r1, r0
  306506:	4641      	movcs	r1, r8
  306508:	e000      	b.n	30650c <dma_p2m_single+0x5a>
  30650a:	460c      	mov	r4, r1
  30650c:	40e5      	lsrs	r5, r4
  30650e:	f5b5 1f00 	cmp.w	r5, #2097152	; 0x200000
  306512:	d213      	bcs.n	30653c <dma_p2m_single+0x8a>
  306514:	9b14      	ldr	r3, [sp, #80]	; 0x50
  306516:	4650      	mov	r0, sl
  306518:	9103      	str	r1, [sp, #12]
  30651a:	465a      	mov	r2, fp
  30651c:	e88d 0220 	stmia.w	sp, {r5, r9}
  306520:	4631      	mov	r1, r6
  306522:	9304      	str	r3, [sp, #16]
  306524:	2304      	movs	r3, #4
  306526:	9305      	str	r3, [sp, #20]
  306528:	f89d 3058 	ldrb.w	r3, [sp, #88]	; 0x58
  30652c:	9402      	str	r4, [sp, #8]
  30652e:	9306      	str	r3, [sp, #24]
  306530:	463b      	mov	r3, r7
  306532:	f7ff ffa7 	bl	306484 <dma_p2m_base>
  306536:	e002      	b.n	30653e <dma_p2m_single+0x8c>
  306538:	2002      	movs	r0, #2
  30653a:	e000      	b.n	30653e <dma_p2m_single+0x8c>
  30653c:	2005      	movs	r0, #5
  30653e:	b009      	add	sp, #36	; 0x24
  306540:	e8bd 8ff0 	ldmia.w	sp!, {r4, r5, r6, r7, r8, r9, sl, fp, pc}

00306544 <dma_m2p_base>:
  306544:	b510      	push	{r4, lr}
  306546:	b088      	sub	sp, #32
  306548:	9c0a      	ldr	r4, [sp, #40]	; 0x28
  30654a:	9400      	str	r4, [sp, #0]
  30654c:	9c0b      	ldr	r4, [sp, #44]	; 0x2c
  30654e:	9401      	str	r4, [sp, #4]
  306550:	9c0c      	ldr	r4, [sp, #48]	; 0x30
  306552:	9402      	str	r4, [sp, #8]
  306554:	9c0d      	ldr	r4, [sp, #52]	; 0x34
  306556:	9403      	str	r4, [sp, #12]
  306558:	9c0e      	ldr	r4, [sp, #56]	; 0x38
  30655a:	9404      	str	r4, [sp, #16]
  30655c:	9c0f      	ldr	r4, [sp, #60]	; 0x3c
  30655e:	9405      	str	r4, [sp, #20]
  306560:	2401      	movs	r4, #1
  306562:	9406      	str	r4, [sp, #24]
  306564:	f89d 4040 	ldrb.w	r4, [sp, #64]	; 0x40
  306568:	9407      	str	r4, [sp, #28]
  30656a:	f7ff ff27 	bl	3063bc <dma_dir_base>
  30656e:	b008      	add	sp, #32
  306570:	bd10      	pop	{r4, pc}

00306572 <dma_m2p_single>:
  306572:	e92d 4ff0 	stmdb	sp!, {r4, r5, r6, r7, r8, r9, sl, fp, lr}
  306576:	b089      	sub	sp, #36	; 0x24
  306578:	4682      	mov	sl, r0
  30657a:	461f      	mov	r7, r3
  30657c:	9d12      	ldr	r5, [sp, #72]	; 0x48
  30657e:	460c      	mov	r4, r1
  306580:	4693      	mov	fp, r2
  306582:	f8dd 8050 	ldr.w	r8, [sp, #80]	; 0x50
  306586:	f8dd 9054 	ldr.w	r9, [sp, #84]	; 0x54
  30658a:	4628      	mov	r0, r5
  30658c:	f7ff fe0e 	bl	3061ac <get_tr_width>
  306590:	4606      	mov	r6, r0
  306592:	4638      	mov	r0, r7
  306594:	f7ff fe0a 	bl	3061ac <get_tr_width>
  306598:	1ea3      	subs	r3, r4, #2
  30659a:	2b01      	cmp	r3, #1
  30659c:	d930      	bls.n	306600 <dma_m2p_single+0x8e>
  30659e:	2c07      	cmp	r4, #7
  3065a0:	d82e      	bhi.n	306600 <dma_m2p_single+0x8e>
  3065a2:	f1ba 0f01 	cmp.w	sl, #1
  3065a6:	d82b      	bhi.n	306600 <dma_m2p_single+0x8e>
  3065a8:	f1b9 0f0f 	cmp.w	r9, #15
  3065ac:	d82a      	bhi.n	306604 <dma_m2p_single+0x92>
  3065ae:	f1b8 0f09 	cmp.w	r8, #9
  3065b2:	d827      	bhi.n	306604 <dma_m2p_single+0x92>
  3065b4:	9b13      	ldr	r3, [sp, #76]	; 0x4c
  3065b6:	2b20      	cmp	r3, #32
  3065b8:	d103      	bne.n	3065c2 <dma_m2p_single+0x50>
  3065ba:	07ab      	lsls	r3, r5, #30
  3065bc:	d122      	bne.n	306604 <dma_m2p_single+0x92>
  3065be:	2102      	movs	r1, #2
  3065c0:	e000      	b.n	3065c4 <dma_m2p_single+0x52>
  3065c2:	2100      	movs	r1, #0
  3065c4:	2c03      	cmp	r4, #3
  3065c6:	d803      	bhi.n	3065d0 <dma_m2p_single+0x5e>
  3065c8:	42b0      	cmp	r0, r6
  3065ca:	bf38      	it	cc
  3065cc:	4606      	movcc	r6, r0
  3065ce:	e001      	b.n	3065d4 <dma_m2p_single+0x62>
  3065d0:	2100      	movs	r1, #0
  3065d2:	460e      	mov	r6, r1
  3065d4:	40f5      	lsrs	r5, r6
  3065d6:	f5b5 1f00 	cmp.w	r5, #2097152	; 0x200000
  3065da:	d213      	bcs.n	306604 <dma_m2p_single+0x92>
  3065dc:	2304      	movs	r3, #4
  3065de:	9304      	str	r3, [sp, #16]
  3065e0:	f89d 3058 	ldrb.w	r3, [sp, #88]	; 0x58
  3065e4:	4650      	mov	r0, sl
  3065e6:	9103      	str	r1, [sp, #12]
  3065e8:	465a      	mov	r2, fp
  3065ea:	e88d 0220 	stmia.w	sp, {r5, r9}
  3065ee:	4621      	mov	r1, r4
  3065f0:	9306      	str	r3, [sp, #24]
  3065f2:	463b      	mov	r3, r7
  3065f4:	9602      	str	r6, [sp, #8]
  3065f6:	f8cd 8014 	str.w	r8, [sp, #20]
  3065fa:	f7ff ffa3 	bl	306544 <dma_m2p_base>
  3065fe:	e002      	b.n	306606 <dma_m2p_single+0x94>
  306600:	2002      	movs	r0, #2
  306602:	e000      	b.n	306606 <dma_m2p_single+0x94>
  306604:	2005      	movs	r0, #5
  306606:	b009      	add	sp, #36	; 0x24
  306608:	e8bd 8ff0 	ldmia.w	sp!, {r4, r5, r6, r7, r8, r9, sl, fp, pc}

0030660c <dma_qspiflash_read_polling_new>:
  30660c:	b5f0      	push	{r4, r5, r6, r7, lr}
  30660e:	b087      	sub	sp, #28
  306610:	4604      	mov	r4, r0
  306612:	461d      	mov	r5, r3
  306614:	460f      	mov	r7, r1
  306616:	4616      	mov	r6, r2
  306618:	f000 f8ed 	bl	3067f6 <dmac_int_disable>
  30661c:	980c      	ldr	r0, [sp, #48]	; 0x30
  30661e:	2301      	movs	r3, #1
  306620:	9303      	str	r3, [sp, #12]
  306622:	f89d 303c 	ldrb.w	r3, [sp, #60]	; 0x3c
  306626:	4639      	mov	r1, r7
  306628:	9000      	str	r0, [sp, #0]
  30662a:	4632      	mov	r2, r6
  30662c:	980d      	ldr	r0, [sp, #52]	; 0x34
  30662e:	3300      	adds	r3, #0
  306630:	bf18      	it	ne
  306632:	2301      	movne	r3, #1
  306634:	9304      	str	r3, [sp, #16]
  306636:	9001      	str	r0, [sp, #4]
  306638:	462b      	mov	r3, r5
  30663a:	980e      	ldr	r0, [sp, #56]	; 0x38
  30663c:	9002      	str	r0, [sp, #8]
  30663e:	4620      	mov	r0, r4
  306640:	f7ff ff37 	bl	3064b2 <dma_p2m_single>
  306644:	4605      	mov	r5, r0
  306646:	4620      	mov	r0, r4
  306648:	f000 f8cc 	bl	3067e4 <dmac_int_enable>
  30664c:	4628      	mov	r0, r5
  30664e:	b007      	add	sp, #28
  306650:	bdf0      	pop	{r4, r5, r6, r7, pc}

00306652 <dma_qspiflash_write_page_polling>:
  306652:	b5f0      	push	{r4, r5, r6, r7, lr}
  306654:	b087      	sub	sp, #28
  306656:	4604      	mov	r4, r0
  306658:	4615      	mov	r5, r2
  30665a:	461f      	mov	r7, r3
  30665c:	460e      	mov	r6, r1
  30665e:	f000 f8ca 	bl	3067f6 <dmac_int_disable>
  306662:	980c      	ldr	r0, [sp, #48]	; 0x30
  306664:	2300      	movs	r3, #0
  306666:	9303      	str	r3, [sp, #12]
  306668:	f89d 303c 	ldrb.w	r3, [sp, #60]	; 0x3c
  30666c:	4631      	mov	r1, r6
  30666e:	9000      	str	r0, [sp, #0]
  306670:	463a      	mov	r2, r7
  306672:	980d      	ldr	r0, [sp, #52]	; 0x34
  306674:	3300      	adds	r3, #0
  306676:	bf18      	it	ne
  306678:	2301      	movne	r3, #1
  30667a:	9304      	str	r3, [sp, #16]
  30667c:	9001      	str	r0, [sp, #4]
  30667e:	462b      	mov	r3, r5
  306680:	980e      	ldr	r0, [sp, #56]	; 0x38
  306682:	9002      	str	r0, [sp, #8]
  306684:	4620      	mov	r0, r4
  306686:	f7ff ff74 	bl	306572 <dma_m2p_single>
  30668a:	4605      	mov	r5, r0
  30668c:	4620      	mov	r0, r4
  30668e:	f000 f8a9 	bl	3067e4 <dmac_int_enable>
  306692:	4628      	mov	r0, r5
  306694:	b007      	add	sp, #28
  306696:	bdf0      	pop	{r4, r5, r6, r7, pc}

00306698 <flash_read_dma_init_once>:
  306698:	b538      	push	{r3, r4, r5, lr}
  30669a:	4605      	mov	r5, r0
  30669c:	2000      	movs	r0, #0
  30669e:	f000 f8aa 	bl	3067f6 <dmac_int_disable>
  3066a2:	4b16      	ldr	r3, [pc, #88]	; (3066fc <flash_read_dma_init_once+0x64>)
  3066a4:	2000      	movs	r0, #0
  3066a6:	6819      	ldr	r1, [r3, #0]
  3066a8:	f000 f868 	bl	30677c <get_hwp_dma>
  3066ac:	4a14      	ldr	r2, [pc, #80]	; (306700 <flash_read_dma_init_once+0x68>)
  3066ae:	2300      	movs	r3, #0
  3066b0:	6203      	str	r3, [r0, #32]
  3066b2:	4604      	mov	r4, r0
  3066b4:	6242      	str	r2, [r0, #36]	; 0x24
  3066b6:	4a13      	ldr	r2, [pc, #76]	; (306704 <flash_read_dma_init_once+0x6c>)
  3066b8:	6182      	str	r2, [r0, #24]
  3066ba:	61c3      	str	r3, [r0, #28]
  3066bc:	f7fe fae0 	bl	304c80 <get_qspiflash_dr>
  3066c0:	4601      	mov	r1, r0
  3066c2:	4620      	mov	r0, r4
  3066c4:	f000 f8fb 	bl	3068be <dmac_ch_sar_set>
  3066c8:	08a9      	lsrs	r1, r5, #2
  3066ca:	4620      	mov	r0, r4
  3066cc:	f000 f8fb 	bl	3068c6 <dmac_ch_block_ts_set>
  3066d0:	4620      	mov	r0, r4
  3066d2:	f000 f9a2 	bl	306a1a <dmac_ch_int_disable_all>
  3066d6:	2101      	movs	r1, #1
  3066d8:	4620      	mov	r0, r4
  3066da:	460a      	mov	r2, r1
  3066dc:	f000 f96d 	bl	3069ba <dmac_ch_int_status_ctl>
  3066e0:	2101      	movs	r1, #1
  3066e2:	4620      	mov	r0, r4
  3066e4:	460a      	mov	r2, r1
  3066e6:	f000 f980 	bl	3069ea <dmac_ch_int_signal_ctl>
  3066ea:	f3bf 8f6f 	isb	sy
  3066ee:	f3bf 8f5f 	dmb	sy
  3066f2:	f3bf 8f4f 	dsb	sy
  3066f6:	2000      	movs	r0, #0
  3066f8:	bd38      	pop	{r3, r4, r5, pc}
  3066fa:	bf00      	nop
  3066fc:	003081ac 	eorseq	r8, r0, ip, lsr #3
  306700:	7f800082 	svcvc	0x00800082
  306704:	000cd210 	andeq	sp, ip, r0, lsl r2

00306708 <flash_dma_read_start>:
  306708:	b570      	push	{r4, r5, r6, lr}
  30670a:	4605      	mov	r5, r0
  30670c:	4c09      	ldr	r4, [pc, #36]	; (306734 <flash_dma_read_start+0x2c>)
  30670e:	460e      	mov	r6, r1
  306710:	2000      	movs	r0, #0
  306712:	6821      	ldr	r1, [r4, #0]
  306714:	f000 f832 	bl	30677c <get_hwp_dma>
  306718:	4631      	mov	r1, r6
  30671a:	f000 f8d2 	bl	3068c2 <dmac_ch_dar_set>
  30671e:	6821      	ldr	r1, [r4, #0]
  306720:	2000      	movs	r0, #0
  306722:	f000 f87f 	bl	306824 <dmac_ch_enable>
  306726:	4629      	mov	r1, r5
  306728:	20eb      	movs	r0, #235	; 0xeb
  30672a:	f7fe fc98 	bl	30505e <qspi_dma_read_start_new>
  30672e:	2000      	movs	r0, #0
  306730:	bd70      	pop	{r4, r5, r6, pc}
  306732:	bf00      	nop
  306734:	003081ac 	eorseq	r8, r0, ip, lsr #3

00306738 <flash_dma_read_wait_done>:
  306738:	b508      	push	{r3, lr}
  30673a:	2000      	movs	r0, #0
  30673c:	4b03      	ldr	r3, [pc, #12]	; (30674c <flash_dma_read_wait_done+0x14>)
  30673e:	4602      	mov	r2, r0
  306740:	6819      	ldr	r1, [r3, #0]
  306742:	f7ff fde7 	bl	306314 <dma_wait_channel_done_polling>
  306746:	2000      	movs	r0, #0
  306748:	bd08      	pop	{r3, pc}
  30674a:	bf00      	nop
  30674c:	003081ac 	eorseq	r8, r0, ip, lsr #3

00306750 <flash_dma_read_finished>:
  306750:	b508      	push	{r3, lr}
  306752:	f7fe f969 	bl	304a28 <qspi_hw_init>
  306756:	2000      	movs	r0, #0
  306758:	f000 f844 	bl	3067e4 <dmac_int_enable>
  30675c:	2000      	movs	r0, #0
  30675e:	bd08      	pop	{r3, pc}

00306760 <get_dmac_controller>:
  306760:	b128      	cbz	r0, 30676e <get_dmac_controller+0xe>
  306762:	4b04      	ldr	r3, [pc, #16]	; (306774 <get_dmac_controller+0x14>)
  306764:	2801      	cmp	r0, #1
  306766:	bf0c      	ite	eq
  306768:	4618      	moveq	r0, r3
  30676a:	2000      	movne	r0, #0
  30676c:	4770      	bx	lr
  30676e:	4802      	ldr	r0, [pc, #8]	; (306778 <get_dmac_controller+0x18>)
  306770:	4770      	bx	lr
  306772:	bf00      	nop
  306774:	b0040000 	andlt	r0, r4, r0
  306778:	b0030000 	andlt	r0, r3, r0

0030677c <get_hwp_dma>:
  30677c:	4b05      	ldr	r3, [pc, #20]	; (306794 <get_hwp_dma+0x18>)
  30677e:	4a06      	ldr	r2, [pc, #24]	; (306798 <get_hwp_dma+0x1c>)
  306780:	2801      	cmp	r0, #1
  306782:	bf0c      	ite	eq
  306784:	4610      	moveq	r0, r2
  306786:	4618      	movne	r0, r3
  306788:	eb00 2101 	add.w	r1, r0, r1, lsl #8
  30678c:	f501 7080 	add.w	r0, r1, #256	; 0x100
  306790:	4770      	bx	lr
  306792:	bf00      	nop
  306794:	b0030000 	andlt	r0, r3, r0
  306798:	b0040000 	andlt	r0, r4, r0

0030679c <dmac_read_id>:
  30679c:	b508      	push	{r3, lr}
  30679e:	f7ff ffdf 	bl	306760 <get_dmac_controller>
  3067a2:	b108      	cbz	r0, 3067a8 <dmac_read_id+0xc>
  3067a4:	6800      	ldr	r0, [r0, #0]
  3067a6:	bd08      	pop	{r3, pc}
  3067a8:	f04f 30ff 	mov.w	r0, #4294967295	; 0xffffffff
  3067ac:	bd08      	pop	{r3, pc}

003067ae <dmac_read_compver>:
  3067ae:	b508      	push	{r3, lr}
  3067b0:	f7ff ffd6 	bl	306760 <get_dmac_controller>
  3067b4:	b108      	cbz	r0, 3067ba <dmac_read_compver+0xc>
  3067b6:	6880      	ldr	r0, [r0, #8]
  3067b8:	bd08      	pop	{r3, pc}
  3067ba:	f04f 30ff 	mov.w	r0, #4294967295	; 0xffffffff
  3067be:	bd08      	pop	{r3, pc}

003067c0 <dma_enable>:
  3067c0:	b508      	push	{r3, lr}
  3067c2:	f7ff ffcd 	bl	306760 <get_dmac_controller>
  3067c6:	b118      	cbz	r0, 3067d0 <dma_enable+0x10>
  3067c8:	6903      	ldr	r3, [r0, #16]
  3067ca:	f043 0301 	orr.w	r3, r3, #1
  3067ce:	6103      	str	r3, [r0, #16]
  3067d0:	bd08      	pop	{r3, pc}

003067d2 <dma_disable>:
  3067d2:	b508      	push	{r3, lr}
  3067d4:	f7ff ffc4 	bl	306760 <get_dmac_controller>
  3067d8:	b118      	cbz	r0, 3067e2 <dma_disable+0x10>
  3067da:	6903      	ldr	r3, [r0, #16]
  3067dc:	f023 0301 	bic.w	r3, r3, #1
  3067e0:	6103      	str	r3, [r0, #16]
  3067e2:	bd08      	pop	{r3, pc}

003067e4 <dmac_int_enable>:
  3067e4:	b508      	push	{r3, lr}
  3067e6:	f7ff ffbb 	bl	306760 <get_dmac_controller>
  3067ea:	b118      	cbz	r0, 3067f4 <dmac_int_enable+0x10>
  3067ec:	6903      	ldr	r3, [r0, #16]
  3067ee:	f043 0302 	orr.w	r3, r3, #2
  3067f2:	6103      	str	r3, [r0, #16]
  3067f4:	bd08      	pop	{r3, pc}

003067f6 <dmac_int_disable>:
  3067f6:	b508      	push	{r3, lr}
  3067f8:	f7ff ffb2 	bl	306760 <get_dmac_controller>
  3067fc:	b118      	cbz	r0, 306806 <dmac_int_disable+0x10>
  3067fe:	6903      	ldr	r3, [r0, #16]
  306800:	f023 0302 	bic.w	r3, r3, #2
  306804:	6103      	str	r3, [r0, #16]
  306806:	bd08      	pop	{r3, pc}

00306808 <dmac_ch_idle>:
  306808:	b510      	push	{r4, lr}
  30680a:	460c      	mov	r4, r1
  30680c:	f7ff ffa8 	bl	306760 <get_dmac_controller>
  306810:	b138      	cbz	r0, 306822 <dmac_ch_idle+0x1a>
  306812:	6983      	ldr	r3, [r0, #24]
  306814:	2201      	movs	r2, #1
  306816:	fa02 f404 	lsl.w	r4, r2, r4
  30681a:	421c      	tst	r4, r3
  30681c:	bf14      	ite	ne
  30681e:	2000      	movne	r0, #0
  306820:	2001      	moveq	r0, #1
  306822:	bd10      	pop	{r4, pc}

00306824 <dmac_ch_enable>:
  306824:	b510      	push	{r4, lr}
  306826:	460c      	mov	r4, r1
  306828:	f7ff ff9a 	bl	306760 <get_dmac_controller>
  30682c:	b120      	cbz	r0, 306838 <dmac_ch_enable+0x14>
  30682e:	f240 1301 	movw	r3, #257	; 0x101
  306832:	fa03 f404 	lsl.w	r4, r3, r4
  306836:	6184      	str	r4, [r0, #24]
  306838:	bd10      	pop	{r4, pc}

0030683a <dmac_ch_disable>:
  30683a:	b570      	push	{r4, r5, r6, lr}
  30683c:	4606      	mov	r6, r0
  30683e:	460d      	mov	r5, r1
  306840:	f7ff ff8e 	bl	306760 <get_dmac_controller>
  306844:	4604      	mov	r4, r0
  306846:	b190      	cbz	r0, 30686e <dmac_ch_disable+0x34>
  306848:	4630      	mov	r0, r6
  30684a:	4629      	mov	r1, r5
  30684c:	f7ff ff96 	bl	30677c <get_hwp_dma>
  306850:	b168      	cbz	r0, 30686e <dmac_ch_disable+0x34>
  306852:	f44f 7380 	mov.w	r3, #256	; 0x100
  306856:	40ab      	lsls	r3, r5
  306858:	61a3      	str	r3, [r4, #24]
  30685a:	2301      	movs	r3, #1
  30685c:	fa03 f505 	lsl.w	r5, r3, r5
  306860:	69a3      	ldr	r3, [r4, #24]
  306862:	421d      	tst	r5, r3
  306864:	d1fc      	bne.n	306860 <dmac_ch_disable+0x26>
  306866:	f04f 4380 	mov.w	r3, #1073741824	; 0x40000000
  30686a:	f8c0 3098 	str.w	r3, [r0, #152]	; 0x98
  30686e:	bd70      	pop	{r4, r5, r6, pc}

00306870 <dmac_ch_suspend>:
  306870:	b510      	push	{r4, lr}
  306872:	460c      	mov	r4, r1
  306874:	f7ff ff74 	bl	306760 <get_dmac_controller>
  306878:	b118      	cbz	r0, 306882 <dmac_ch_suspend+0x12>
  30687a:	4b02      	ldr	r3, [pc, #8]	; (306884 <dmac_ch_suspend+0x14>)
  30687c:	fa03 f404 	lsl.w	r4, r3, r4
  306880:	6184      	str	r4, [r0, #24]
  306882:	bd10      	pop	{r4, pc}
  306884:	01010000 	mrseq	r0, (UNDEF: 1)

00306888 <dmac_ch_abort>:
  306888:	b510      	push	{r4, lr}
  30688a:	460c      	mov	r4, r1
  30688c:	f7ff ff68 	bl	306760 <get_dmac_controller>
  306890:	b120      	cbz	r0, 30689c <dmac_ch_abort+0x14>
  306892:	f240 1301 	movw	r3, #257	; 0x101
  306896:	fa03 f404 	lsl.w	r4, r3, r4
  30689a:	61c4      	str	r4, [r0, #28]
  30689c:	bd10      	pop	{r4, pc}

0030689e <dmac_int_status_get>:
  30689e:	b508      	push	{r3, lr}
  3068a0:	f7ff ff5e 	bl	306760 <get_dmac_controller>
  3068a4:	b100      	cbz	r0, 3068a8 <dmac_int_status_get+0xa>
  3068a6:	6b00      	ldr	r0, [r0, #48]	; 0x30
  3068a8:	bd08      	pop	{r3, pc}

003068aa <dmac_reset>:
  3068aa:	b508      	push	{r3, lr}
  3068ac:	f7ff ff58 	bl	306760 <get_dmac_controller>
  3068b0:	b120      	cbz	r0, 3068bc <dmac_reset+0x12>
  3068b2:	2301      	movs	r3, #1
  3068b4:	6583      	str	r3, [r0, #88]	; 0x58
  3068b6:	6d83      	ldr	r3, [r0, #88]	; 0x58
  3068b8:	2b00      	cmp	r3, #0
  3068ba:	d1fc      	bne.n	3068b6 <dmac_reset+0xc>
  3068bc:	bd08      	pop	{r3, pc}

003068be <dmac_ch_sar_set>:
  3068be:	6001      	str	r1, [r0, #0]
  3068c0:	4770      	bx	lr

003068c2 <dmac_ch_dar_set>:
  3068c2:	6081      	str	r1, [r0, #8]
  3068c4:	4770      	bx	lr

003068c6 <dmac_ch_block_ts_set>:
  3068c6:	3901      	subs	r1, #1
  3068c8:	f3c1 0114 	ubfx	r1, r1, #0, #21
  3068cc:	6101      	str	r1, [r0, #16]
  3068ce:	4770      	bx	lr

003068d0 <dmac_ch_ctl_lli_enable>:
  3068d0:	69c3      	ldr	r3, [r0, #28]
  3068d2:	f043 4300 	orr.w	r3, r3, #2147483648	; 0x80000000
  3068d6:	61c3      	str	r3, [r0, #28]
  3068d8:	4770      	bx	lr

003068da <dmac_ch_ctl_lli_disable>:
  3068da:	69c3      	ldr	r3, [r0, #28]
  3068dc:	f023 4300 	bic.w	r3, r3, #2147483648	; 0x80000000
  3068e0:	61c3      	str	r3, [r0, #28]
  3068e2:	4770      	bx	lr

003068e4 <dmac_ch_ctl_IOC_BlkTfr_enable>:
  3068e4:	69c3      	ldr	r3, [r0, #28]
  3068e6:	f043 6380 	orr.w	r3, r3, #67108864	; 0x4000000
  3068ea:	61c3      	str	r3, [r0, #28]
  3068ec:	4770      	bx	lr

003068ee <dmac_ch_ctl_IOC_BlkTfr_disable>:
  3068ee:	69c3      	ldr	r3, [r0, #28]
  3068f0:	f023 6380 	bic.w	r3, r3, #67108864	; 0x4000000
  3068f4:	61c3      	str	r3, [r0, #28]
  3068f6:	4770      	bx	lr

003068f8 <dmac_ch_ctl_src_msize_set>:
  3068f8:	6983      	ldr	r3, [r0, #24]
  3068fa:	f423 3370 	bic.w	r3, r3, #245760	; 0x3c000
  3068fe:	ea43 3181 	orr.w	r1, r3, r1, lsl #14
  306902:	6181      	str	r1, [r0, #24]
  306904:	4770      	bx	lr

00306906 <dmac_ch_ctl_dst_msize_set>:
  306906:	6983      	ldr	r3, [r0, #24]
  306908:	f423 1370 	bic.w	r3, r3, #3932160	; 0x3c0000
  30690c:	ea43 4181 	orr.w	r1, r3, r1, lsl #18
  306910:	6181      	str	r1, [r0, #24]
  306912:	4770      	bx	lr

00306914 <dmac_ch_ctl_src_tr_width_set>:
  306914:	6983      	ldr	r3, [r0, #24]
  306916:	f423 63e0 	bic.w	r3, r3, #1792	; 0x700
  30691a:	ea43 2101 	orr.w	r1, r3, r1, lsl #8
  30691e:	6181      	str	r1, [r0, #24]
  306920:	4770      	bx	lr

00306922 <dmac_ch_ctl_dst_tr_width_set>:
  306922:	6983      	ldr	r3, [r0, #24]
  306924:	f423 5360 	bic.w	r3, r3, #14336	; 0x3800
  306928:	ea43 21c1 	orr.w	r1, r3, r1, lsl #11
  30692c:	6181      	str	r1, [r0, #24]
  30692e:	4770      	bx	lr

00306930 <dmac_ch_ctl_src_inc_set>:
  306930:	6983      	ldr	r3, [r0, #24]
  306932:	f023 0310 	bic.w	r3, r3, #16
  306936:	ea43 1101 	orr.w	r1, r3, r1, lsl #4
  30693a:	6181      	str	r1, [r0, #24]
  30693c:	4770      	bx	lr

0030693e <dmac_ch_ctl_dst_inc_set>:
  30693e:	6983      	ldr	r3, [r0, #24]
  306940:	f023 0340 	bic.w	r3, r3, #64	; 0x40
  306944:	ea43 1181 	orr.w	r1, r3, r1, lsl #6
  306948:	6181      	str	r1, [r0, #24]
  30694a:	4770      	bx	lr

0030694c <dmac_ch_cfg_priority_set>:
  30694c:	6a43      	ldr	r3, [r0, #36]	; 0x24
  30694e:	f423 2360 	bic.w	r3, r3, #917504	; 0xe0000
  306952:	ea43 4141 	orr.w	r1, r3, r1, lsl #17
  306956:	6241      	str	r1, [r0, #36]	; 0x24
  306958:	4770      	bx	lr

0030695a <dmac_ch_cfg_dst_per_set>:
  30695a:	6a43      	ldr	r3, [r0, #36]	; 0x24
  30695c:	f423 43e0 	bic.w	r3, r3, #28672	; 0x7000
  306960:	ea43 3101 	orr.w	r1, r3, r1, lsl #12
  306964:	6241      	str	r1, [r0, #36]	; 0x24
  306966:	4770      	bx	lr

00306968 <dmac_ch_cfg_src_per_set>:
  306968:	6a43      	ldr	r3, [r0, #36]	; 0x24
  30696a:	f423 7360 	bic.w	r3, r3, #896	; 0x380
  30696e:	ea43 11c1 	orr.w	r1, r3, r1, lsl #7
  306972:	6241      	str	r1, [r0, #36]	; 0x24
  306974:	4770      	bx	lr

00306976 <dmac_ch_cfg_tt_fc_set>:
  306976:	6a43      	ldr	r3, [r0, #36]	; 0x24
  306978:	f023 0307 	bic.w	r3, r3, #7
  30697c:	4319      	orrs	r1, r3
  30697e:	6241      	str	r1, [r0, #36]	; 0x24
  306980:	4770      	bx	lr

00306982 <dmac_ch_cfg_dst_multblk_type_set>:
  306982:	6a03      	ldr	r3, [r0, #32]
  306984:	f023 030c 	bic.w	r3, r3, #12
  306988:	ea43 0181 	orr.w	r1, r3, r1, lsl #2
  30698c:	6201      	str	r1, [r0, #32]
  30698e:	4770      	bx	lr

00306990 <dmac_ch_cfg_src_multblk_type_set>:
  306990:	6a03      	ldr	r3, [r0, #32]
  306992:	f023 0303 	bic.w	r3, r3, #3
  306996:	4319      	orrs	r1, r3
  306998:	6201      	str	r1, [r0, #32]
  30699a:	4770      	bx	lr

0030699c <dmac_ch_llp_loc_set>:
  30699c:	f001 013f 	and.w	r1, r1, #63	; 0x3f
  3069a0:	6281      	str	r1, [r0, #40]	; 0x28
  3069a2:	4770      	bx	lr

003069a4 <dmac_ch_data_left_in_fifo>:
  3069a4:	6b40      	ldr	r0, [r0, #52]	; 0x34
  3069a6:	f3c0 000e 	ubfx	r0, r0, #0, #15
  3069aa:	4770      	bx	lr

003069ac <dmac_ch_completed_block_trans_size>:
  3069ac:	6b00      	ldr	r0, [r0, #48]	; 0x30
  3069ae:	f3c0 0015 	ubfx	r0, r0, #0, #22
  3069b2:	4770      	bx	lr

003069b4 <dmac_ch_int_status_get>:
  3069b4:	f8d0 0088 	ldr.w	r0, [r0, #136]	; 0x88
  3069b8:	4770      	bx	lr

003069ba <dmac_ch_int_status_ctl>:
  3069ba:	2901      	cmp	r1, #1
  3069bc:	d004      	beq.n	3069c8 <dmac_ch_int_status_ctl+0xe>
  3069be:	d302      	bcc.n	3069c6 <dmac_ch_int_status_ctl+0xc>
  3069c0:	290d      	cmp	r1, #13
  3069c2:	d001      	beq.n	3069c8 <dmac_ch_int_status_ctl+0xe>
  3069c4:	4770      	bx	lr
  3069c6:	2100      	movs	r1, #0
  3069c8:	2301      	movs	r3, #1
  3069ca:	b932      	cbnz	r2, 3069da <dmac_ch_int_status_ctl+0x20>
  3069cc:	f8d0 2080 	ldr.w	r2, [r0, #128]	; 0x80
  3069d0:	fa03 f101 	lsl.w	r1, r3, r1
  3069d4:	ea22 0101 	bic.w	r1, r2, r1
  3069d8:	e004      	b.n	3069e4 <dmac_ch_int_status_ctl+0x2a>
  3069da:	f8d0 2080 	ldr.w	r2, [r0, #128]	; 0x80
  3069de:	fa03 f101 	lsl.w	r1, r3, r1
  3069e2:	4311      	orrs	r1, r2
  3069e4:	f8c0 1080 	str.w	r1, [r0, #128]	; 0x80
  3069e8:	4770      	bx	lr

003069ea <dmac_ch_int_signal_ctl>:
  3069ea:	2901      	cmp	r1, #1
  3069ec:	d004      	beq.n	3069f8 <dmac_ch_int_signal_ctl+0xe>
  3069ee:	d302      	bcc.n	3069f6 <dmac_ch_int_signal_ctl+0xc>
  3069f0:	290d      	cmp	r1, #13
  3069f2:	d001      	beq.n	3069f8 <dmac_ch_int_signal_ctl+0xe>
  3069f4:	4770      	bx	lr
  3069f6:	2100      	movs	r1, #0
  3069f8:	2301      	movs	r3, #1
  3069fa:	b932      	cbnz	r2, 306a0a <dmac_ch_int_signal_ctl+0x20>
  3069fc:	f8d0 2090 	ldr.w	r2, [r0, #144]	; 0x90
  306a00:	fa03 f101 	lsl.w	r1, r3, r1
  306a04:	ea22 0101 	bic.w	r1, r2, r1
  306a08:	e004      	b.n	306a14 <dmac_ch_int_signal_ctl+0x2a>
  306a0a:	f8d0 2090 	ldr.w	r2, [r0, #144]	; 0x90
  306a0e:	fa03 f101 	lsl.w	r1, r3, r1
  306a12:	4311      	orrs	r1, r2
  306a14:	f8c0 1090 	str.w	r1, [r0, #144]	; 0x90
  306a18:	4770      	bx	lr

00306a1a <dmac_ch_int_disable_all>:
  306a1a:	2300      	movs	r3, #0
  306a1c:	f8c0 3090 	str.w	r3, [r0, #144]	; 0x90
  306a20:	f8c0 3080 	str.w	r3, [r0, #128]	; 0x80
  306a24:	4770      	bx	lr

00306a26 <dmac_ch_int_clear>:
  306a26:	2901      	cmp	r1, #1
  306a28:	d004      	beq.n	306a34 <dmac_ch_int_clear+0xe>
  306a2a:	d302      	bcc.n	306a32 <dmac_ch_int_clear+0xc>
  306a2c:	290d      	cmp	r1, #13
  306a2e:	d001      	beq.n	306a34 <dmac_ch_int_clear+0xe>
  306a30:	4770      	bx	lr
  306a32:	2100      	movs	r1, #0
  306a34:	2301      	movs	r3, #1
  306a36:	fa03 f101 	lsl.w	r1, r3, r1
  306a3a:	f8c0 1098 	str.w	r1, [r0, #152]	; 0x98
  306a3e:	4770      	bx	lr

00306a40 <serial_reset_rx_fifo>:
  306a40:	b510      	push	{r4, lr}
  306a42:	4604      	mov	r4, r0
  306a44:	f000 f8c4 	bl	306bd0 <serial_port_valid>
  306a48:	b138      	cbz	r0, 306a5a <serial_reset_rx_fifo+0x1a>
  306a4a:	4620      	mov	r0, r4
  306a4c:	f000 f8c5 	bl	306bda <serial_hwp_get>
  306a50:	2101      	movs	r1, #1
  306a52:	e8bd 4010 	ldmia.w	sp!, {r4, lr}
  306a56:	f000 b915 	b.w	306c84 <serial_FIFO_reset>
  306a5a:	bd10      	pop	{r4, pc}

00306a5c <get_fifo_addr>:
  306a5c:	f000 b8bd 	b.w	306bda <serial_hwp_get>

00306a60 <uart_init>:
  306a60:	e92d 47f3 	stmdb	sp!, {r0, r1, r4, r5, r6, r7, r8, r9, sl, lr}
  306a64:	4605      	mov	r5, r0
  306a66:	4689      	mov	r9, r1
  306a68:	4616      	mov	r6, r2
  306a6a:	f000 f92d 	bl	306cc8 <uart_clock_enable>
  306a6e:	4628      	mov	r0, r5
  306a70:	f000 f8ae 	bl	306bd0 <serial_port_valid>
  306a74:	2800      	cmp	r0, #0
  306a76:	d053      	beq.n	306b20 <uart_init+0xc0>
  306a78:	4628      	mov	r0, r5
  306a7a:	4f2c      	ldr	r7, [pc, #176]	; (306b2c <uart_init+0xcc>)
  306a7c:	f000 f8ad 	bl	306bda <serial_hwp_get>
  306a80:	f105 080b 	add.w	r8, r5, #11
  306a84:	6a7b      	ldr	r3, [r7, #36]	; 0x24
  306a86:	4604      	mov	r4, r0
  306a88:	2001      	movs	r0, #1
  306a8a:	fa00 f808 	lsl.w	r8, r0, r8
  306a8e:	ea23 0a08 	bic.w	sl, r3, r8
  306a92:	f8c7 a024 	str.w	sl, [r7, #36]	; 0x24
  306a96:	f7fd fe35 	bl	304704 <mdelay>
  306a9a:	ea4a 0308 	orr.w	r3, sl, r8
  306a9e:	627b      	str	r3, [r7, #36]	; 0x24
  306aa0:	2700      	movs	r7, #0
  306aa2:	6fe2      	ldr	r2, [r4, #124]	; 0x7c
  306aa4:	f012 0201 	ands.w	r2, r2, #1
  306aa8:	d007      	beq.n	306aba <uart_init+0x5a>
  306aaa:	f5b7 7f7a 	cmp.w	r7, #1000	; 0x3e8
  306aae:	d007      	beq.n	306ac0 <uart_init+0x60>
  306ab0:	2001      	movs	r0, #1
  306ab2:	3701      	adds	r7, #1
  306ab4:	f7fd fe26 	bl	304704 <mdelay>
  306ab8:	e7f3      	b.n	306aa2 <uart_init+0x42>
  306aba:	f5b7 7f7a 	cmp.w	r7, #1000	; 0x3e8
  306abe:	d103      	bne.n	306ac8 <uart_init+0x68>
  306ac0:	481b      	ldr	r0, [pc, #108]	; (306b30 <uart_init+0xd0>)
  306ac2:	f7fd fc83 	bl	3043cc <printf>
  306ac6:	e02b      	b.n	306b20 <uart_init+0xc0>
  306ac8:	9200      	str	r2, [sp, #0]
  306aca:	2103      	movs	r1, #3
  306acc:	2301      	movs	r3, #1
  306ace:	4620      	mov	r0, r4
  306ad0:	f000 f8fb 	bl	306cca <uart_config_set>
  306ad4:	4601      	mov	r1, r0
  306ad6:	4620      	mov	r0, r4
  306ad8:	f000 f906 	bl	306ce8 <uart_para_config_init>
  306adc:	2d05      	cmp	r5, #5
  306ade:	d801      	bhi.n	306ae4 <uart_init+0x84>
  306ae0:	2e01      	cmp	r6, #1
  306ae2:	d903      	bls.n	306aec <uart_init+0x8c>
  306ae4:	23b7      	movs	r3, #183	; 0xb7
  306ae6:	60a3      	str	r3, [r4, #8]
  306ae8:	b926      	cbnz	r6, 306af4 <uart_init+0x94>
  306aea:	e00f      	b.n	306b0c <uart_init+0xac>
  306aec:	2307      	movs	r3, #7
  306aee:	60a3      	str	r3, [r4, #8]
  306af0:	b93e      	cbnz	r6, 306b02 <uart_init+0xa2>
  306af2:	e00b      	b.n	306b0c <uart_init+0xac>
  306af4:	2d05      	cmp	r5, #5
  306af6:	d801      	bhi.n	306afc <uart_init+0x9c>
  306af8:	2e01      	cmp	r6, #1
  306afa:	d902      	bls.n	306b02 <uart_init+0xa2>
  306afc:	4620      	mov	r0, r4
  306afe:	2180      	movs	r1, #128	; 0x80
  306b00:	e001      	b.n	306b06 <uart_init+0xa6>
  306b02:	4620      	mov	r0, r4
  306b04:	2105      	movs	r1, #5
  306b06:	f000 f8d6 	bl	306cb6 <serial_int_enable>
  306b0a:	e003      	b.n	306b14 <uart_init+0xb4>
  306b0c:	4620      	mov	r0, r4
  306b0e:	218f      	movs	r1, #143	; 0x8f
  306b10:	f000 f8d5 	bl	306cbe <serial_int_disable>
  306b14:	4628      	mov	r0, r5
  306b16:	4649      	mov	r1, r9
  306b18:	f000 f903 	bl	306d22 <uart_bautrate_set>
  306b1c:	2000      	movs	r0, #0
  306b1e:	e001      	b.n	306b24 <uart_init+0xc4>
  306b20:	f04f 30ff 	mov.w	r0, #4294967295	; 0xffffffff
  306b24:	b002      	add	sp, #8
  306b26:	e8bd 87f0 	ldmia.w	sp!, {r4, r5, r6, r7, r8, r9, sl, pc}
  306b2a:	bf00      	nop
  306b2c:	c01d0000 	andsgt	r0, sp, r0
  306b30:	00301b70 	eorseq	r1, r0, r0, ror fp

00306b34 <uart_send_buffer>:
  306b34:	b5f8      	push	{r3, r4, r5, r6, r7, lr}
  306b36:	4606      	mov	r6, r0
  306b38:	460c      	mov	r4, r1
  306b3a:	4615      	mov	r5, r2
  306b3c:	f000 f848 	bl	306bd0 <serial_port_valid>
  306b40:	b178      	cbz	r0, 306b62 <uart_send_buffer+0x2e>
  306b42:	4630      	mov	r0, r6
  306b44:	f000 f849 	bl	306bda <serial_hwp_get>
  306b48:	4607      	mov	r7, r0
  306b4a:	b16c      	cbz	r4, 306b68 <uart_send_buffer+0x34>
  306b4c:	1966      	adds	r6, r4, r5
  306b4e:	42b4      	cmp	r4, r6
  306b50:	d005      	beq.n	306b5e <uart_send_buffer+0x2a>
  306b52:	4638      	mov	r0, r7
  306b54:	f814 1b01 	ldrb.w	r1, [r4], #1
  306b58:	f000 f85f 	bl	306c1a <serial_putc_hw>
  306b5c:	e7f7      	b.n	306b4e <uart_send_buffer+0x1a>
  306b5e:	4628      	mov	r0, r5
  306b60:	bdf8      	pop	{r3, r4, r5, r6, r7, pc}
  306b62:	f04f 30ff 	mov.w	r0, #4294967295	; 0xffffffff
  306b66:	bdf8      	pop	{r3, r4, r5, r6, r7, pc}
  306b68:	4620      	mov	r0, r4
  306b6a:	bdf8      	pop	{r3, r4, r5, r6, r7, pc}

00306b6c <uart_get_serial_buffer>:
  306b6c:	e92d 43f8 	stmdb	sp!, {r3, r4, r5, r6, r7, r8, r9, lr}
  306b70:	4604      	mov	r4, r0
  306b72:	4688      	mov	r8, r1
  306b74:	4691      	mov	r9, r2
  306b76:	461f      	mov	r7, r3
  306b78:	f000 f82a 	bl	306bd0 <serial_port_valid>
  306b7c:	b300      	cbz	r0, 306bc0 <uart_get_serial_buffer+0x54>
  306b7e:	4620      	mov	r0, r4
  306b80:	2400      	movs	r4, #0
  306b82:	f000 f82a 	bl	306bda <serial_hwp_get>
  306b86:	4606      	mov	r6, r0
  306b88:	f7f9 fb45 	bl	300216 <arch_counter_get_cntpct>
  306b8c:	4605      	mov	r5, r0
  306b8e:	4630      	mov	r0, r6
  306b90:	f000 f838 	bl	306c04 <__serial_tstc>
  306b94:	b150      	cbz	r0, 306bac <uart_get_serial_buffer+0x40>
  306b96:	4630      	mov	r0, r6
  306b98:	f000 f838 	bl	306c0c <__serial_getc_direct>
  306b9c:	f808 0004 	strb.w	r0, [r8, r4]
  306ba0:	3401      	adds	r4, #1
  306ba2:	454c      	cmp	r4, r9
  306ba4:	d010      	beq.n	306bc8 <uart_get_serial_buffer+0x5c>
  306ba6:	f7f9 fb36 	bl	300216 <arch_counter_get_cntpct>
  306baa:	4605      	mov	r5, r0
  306bac:	f7f9 fb33 	bl	300216 <arch_counter_get_cntpct>
  306bb0:	f644 6120 	movw	r1, #20000	; 0x4e20
  306bb4:	1b40      	subs	r0, r0, r5
  306bb6:	f001 f991 	bl	307edc <__aeabi_uidiv>
  306bba:	42b8      	cmp	r0, r7
  306bbc:	d3e7      	bcc.n	306b8e <uart_get_serial_buffer+0x22>
  306bbe:	e003      	b.n	306bc8 <uart_get_serial_buffer+0x5c>
  306bc0:	f04f 30ff 	mov.w	r0, #4294967295	; 0xffffffff
  306bc4:	e8bd 83f8 	ldmia.w	sp!, {r3, r4, r5, r6, r7, r8, r9, pc}
  306bc8:	4620      	mov	r0, r4
  306bca:	e8bd 83f8 	ldmia.w	sp!, {r3, r4, r5, r6, r7, r8, r9, pc}
  306bce:	bf00      	nop

00306bd0 <serial_port_valid>:
  306bd0:	2807      	cmp	r0, #7
  306bd2:	bf8c      	ite	hi
  306bd4:	2000      	movhi	r0, #0
  306bd6:	2001      	movls	r0, #1
  306bd8:	4770      	bx	lr

00306bda <serial_hwp_get>:
  306bda:	2807      	cmp	r0, #7
  306bdc:	d803      	bhi.n	306be6 <serial_hwp_get+0xc>
  306bde:	4b03      	ldr	r3, [pc, #12]	; (306bec <serial_hwp_get+0x12>)
  306be0:	f853 0020 	ldr.w	r0, [r3, r0, lsl #2]
  306be4:	4770      	bx	lr
  306be6:	2000      	movs	r0, #0
  306be8:	4770      	bx	lr
  306bea:	bf00      	nop
  306bec:	003007d8 	ldrsbteq	r0, [r0], -r8

00306bf0 <serial_irq_num_get>:
  306bf0:	2807      	cmp	r0, #7
  306bf2:	d802      	bhi.n	306bfa <serial_irq_num_get+0xa>
  306bf4:	4b02      	ldr	r3, [pc, #8]	; (306c00 <serial_irq_num_get+0x10>)
  306bf6:	5c18      	ldrb	r0, [r3, r0]
  306bf8:	4770      	bx	lr
  306bfa:	f04f 30ff 	mov.w	r0, #4294967295	; 0xffffffff
  306bfe:	4770      	bx	lr
  306c00:	003081b0 	ldrhteq	r8, [r0], -r0

00306c04 <__serial_tstc>:
  306c04:	6940      	ldr	r0, [r0, #20]
  306c06:	f000 0001 	and.w	r0, r0, #1
  306c0a:	4770      	bx	lr

00306c0c <__serial_getc_direct>:
  306c0c:	6800      	ldr	r0, [r0, #0]
  306c0e:	4770      	bx	lr

00306c10 <__serial_getc>:
  306c10:	6943      	ldr	r3, [r0, #20]
  306c12:	07db      	lsls	r3, r3, #31
  306c14:	d5fc      	bpl.n	306c10 <__serial_getc>
  306c16:	6800      	ldr	r0, [r0, #0]
  306c18:	4770      	bx	lr

00306c1a <serial_putc_hw>:
  306c1a:	6943      	ldr	r3, [r0, #20]
  306c1c:	069a      	lsls	r2, r3, #26
  306c1e:	d5fc      	bpl.n	306c1a <serial_putc_hw>
  306c20:	6001      	str	r1, [r0, #0]
  306c22:	4770      	bx	lr

00306c24 <serial_test_te>:
  306c24:	6940      	ldr	r0, [r0, #20]
  306c26:	f000 0020 	and.w	r0, r0, #32
  306c2a:	4770      	bx	lr

00306c2c <serial_putc_hw_direct>:
  306c2c:	6001      	str	r1, [r0, #0]
  306c2e:	4770      	bx	lr

00306c30 <serial_data_len_set>:
  306c30:	68c3      	ldr	r3, [r0, #12]
  306c32:	f023 0303 	bic.w	r3, r3, #3
  306c36:	4319      	orrs	r1, r3
  306c38:	60c1      	str	r1, [r0, #12]
  306c3a:	4770      	bx	lr

00306c3c <serial_stop_bit_set>:
  306c3c:	68c3      	ldr	r3, [r0, #12]
  306c3e:	f023 0304 	bic.w	r3, r3, #4
  306c42:	4319      	orrs	r1, r3
  306c44:	60c1      	str	r1, [r0, #12]
  306c46:	4770      	bx	lr

00306c48 <serial_parity_en_set>:
  306c48:	68c3      	ldr	r3, [r0, #12]
  306c4a:	f023 0308 	bic.w	r3, r3, #8
  306c4e:	2900      	cmp	r1, #0
  306c50:	bf0c      	ite	eq
  306c52:	4619      	moveq	r1, r3
  306c54:	f043 0101 	orrne.w	r1, r3, #1
  306c58:	60c1      	str	r1, [r0, #12]
  306c5a:	4770      	bx	lr

00306c5c <serial_DLA_en>:
  306c5c:	68c3      	ldr	r3, [r0, #12]
  306c5e:	f023 0380 	bic.w	r3, r3, #128	; 0x80
  306c62:	2900      	cmp	r1, #0
  306c64:	bf0c      	ite	eq
  306c66:	4619      	moveq	r1, r3
  306c68:	f043 0101 	orrne.w	r1, r3, #1
  306c6c:	60c1      	str	r1, [r0, #12]
  306c6e:	4770      	bx	lr

00306c70 <serial_FIFO_en>:
  306c70:	6883      	ldr	r3, [r0, #8]
  306c72:	f023 0301 	bic.w	r3, r3, #1
  306c76:	2900      	cmp	r1, #0
  306c78:	bf0c      	ite	eq
  306c7a:	4619      	moveq	r1, r3
  306c7c:	f043 0101 	orrne.w	r1, r3, #1
  306c80:	6081      	str	r1, [r0, #8]
  306c82:	4770      	bx	lr

00306c84 <serial_FIFO_reset>:
  306c84:	6883      	ldr	r3, [r0, #8]
  306c86:	2201      	movs	r2, #1
  306c88:	fa02 f101 	lsl.w	r1, r2, r1
  306c8c:	430b      	orrs	r3, r1
  306c8e:	6083      	str	r3, [r0, #8]
  306c90:	4770      	bx	lr

00306c92 <serial_dma_mode_set>:
  306c92:	6883      	ldr	r3, [r0, #8]
  306c94:	f023 0308 	bic.w	r3, r3, #8
  306c98:	4319      	orrs	r1, r3
  306c9a:	6081      	str	r1, [r0, #8]
  306c9c:	4770      	bx	lr

00306c9e <serial_tx_trigger_set>:
  306c9e:	6883      	ldr	r3, [r0, #8]
  306ca0:	f023 0330 	bic.w	r3, r3, #48	; 0x30
  306ca4:	4319      	orrs	r1, r3
  306ca6:	6081      	str	r1, [r0, #8]
  306ca8:	4770      	bx	lr

00306caa <serial_rx_trigger_set>:
  306caa:	6883      	ldr	r3, [r0, #8]
  306cac:	f023 03c0 	bic.w	r3, r3, #192	; 0xc0
  306cb0:	4319      	orrs	r1, r3
  306cb2:	6081      	str	r1, [r0, #8]
  306cb4:	4770      	bx	lr

00306cb6 <serial_int_enable>:
  306cb6:	6843      	ldr	r3, [r0, #4]
  306cb8:	4319      	orrs	r1, r3
  306cba:	6041      	str	r1, [r0, #4]
  306cbc:	4770      	bx	lr

00306cbe <serial_int_disable>:
  306cbe:	6843      	ldr	r3, [r0, #4]
  306cc0:	ea23 0101 	bic.w	r1, r3, r1
  306cc4:	6041      	str	r1, [r0, #4]
  306cc6:	4770      	bx	lr

00306cc8 <uart_clock_enable>:
  306cc8:	4770      	bx	lr

00306cca <uart_config_set>:
  306cca:	9800      	ldr	r0, [sp, #0]
  306ccc:	f021 0104 	bic.w	r1, r1, #4
  306cd0:	ea41 0080 	orr.w	r0, r1, r0, lsl #2
  306cd4:	f000 00f7 	and.w	r0, r0, #247	; 0xf7
  306cd8:	ea40 02c2 	orr.w	r2, r0, r2, lsl #3
  306cdc:	f002 00ef 	and.w	r0, r2, #239	; 0xef
  306ce0:	ea40 1003 	orr.w	r0, r0, r3, lsl #4
  306ce4:	b2c0      	uxtb	r0, r0
  306ce6:	4770      	bx	lr

00306ce8 <uart_para_config_init>:
  306ce8:	2300      	movs	r3, #0
  306cea:	f041 0180 	orr.w	r1, r1, #128	; 0x80
  306cee:	60c1      	str	r1, [r0, #12]
  306cf0:	6003      	str	r3, [r0, #0]
  306cf2:	6043      	str	r3, [r0, #4]
  306cf4:	68c3      	ldr	r3, [r0, #12]
  306cf6:	f023 0380 	bic.w	r3, r3, #128	; 0x80
  306cfa:	60c3      	str	r3, [r0, #12]
  306cfc:	4770      	bx	lr

00306cfe <calc_divisor>:
  306cfe:	b570      	push	{r4, r5, r6, lr}
  306d00:	0905      	lsrs	r5, r0, #4
  306d02:	4606      	mov	r6, r0
  306d04:	460c      	mov	r4, r1
  306d06:	4628      	mov	r0, r5
  306d08:	f001 f8e8 	bl	307edc <__aeabi_uidiv>
  306d0c:	fb04 f300 	mul.w	r3, r4, r0
  306d10:	ebb6 1f03 	cmp.w	r6, r3, lsl #4
  306d14:	d904      	bls.n	306d20 <calc_divisor+0x22>
  306d16:	1aeb      	subs	r3, r5, r3
  306d18:	005b      	lsls	r3, r3, #1
  306d1a:	42a3      	cmp	r3, r4
  306d1c:	bf88      	it	hi
  306d1e:	3001      	addhi	r0, #1
  306d20:	bd70      	pop	{r4, r5, r6, pc}

00306d22 <uart_bautrate_set>:
  306d22:	2807      	cmp	r0, #7
  306d24:	b5f7      	push	{r0, r1, r2, r4, r5, r6, r7, lr}
  306d26:	bf8c      	ite	hi
  306d28:	2400      	movhi	r4, #0
  306d2a:	4b2a      	ldrls	r3, [pc, #168]	; (306dd4 <uart_bautrate_set+0xb2>)
  306d2c:	4605      	mov	r5, r0
  306d2e:	460e      	mov	r6, r1
  306d30:	bf98      	it	ls
  306d32:	f853 4020 	ldrls.w	r4, [r3, r0, lsl #2]
  306d36:	4b28      	ldr	r3, [pc, #160]	; (306dd8 <uart_bautrate_set+0xb6>)
  306d38:	4299      	cmp	r1, r3
  306d3a:	d003      	beq.n	306d44 <uart_bautrate_set+0x22>
  306d3c:	4b27      	ldr	r3, [pc, #156]	; (306ddc <uart_bautrate_set+0xba>)
  306d3e:	4299      	cmp	r1, r3
  306d40:	d016      	beq.n	306d70 <uart_bautrate_set+0x4e>
  306d42:	e02b      	b.n	306d9c <uart_bautrate_set+0x7a>
  306d44:	1f83      	subs	r3, r0, #6
  306d46:	2b01      	cmp	r3, #1
  306d48:	d842      	bhi.n	306dd0 <uart_bautrate_set+0xae>
  306d4a:	2206      	movs	r2, #6
  306d4c:	4b24      	ldr	r3, [pc, #144]	; (306de0 <uart_bautrate_set+0xbe>)
  306d4e:	436a      	muls	r2, r5
  306d50:	213f      	movs	r1, #63	; 0x3f
  306d52:	68d8      	ldr	r0, [r3, #12]
  306d54:	3a10      	subs	r2, #16
  306d56:	4091      	lsls	r1, r2
  306d58:	ea20 0101 	bic.w	r1, r0, r1
  306d5c:	2009      	movs	r0, #9
  306d5e:	fa00 f202 	lsl.w	r2, r0, r2
  306d62:	2001      	movs	r0, #1
  306d64:	430a      	orrs	r2, r1
  306d66:	60da      	str	r2, [r3, #12]
  306d68:	f7fd fccc 	bl	304704 <mdelay>
  306d6c:	481d      	ldr	r0, [pc, #116]	; (306de4 <uart_bautrate_set+0xc2>)
  306d6e:	e016      	b.n	306d9e <uart_bautrate_set+0x7c>
  306d70:	1f83      	subs	r3, r0, #6
  306d72:	2b01      	cmp	r3, #1
  306d74:	d82c      	bhi.n	306dd0 <uart_bautrate_set+0xae>
  306d76:	2206      	movs	r2, #6
  306d78:	4b19      	ldr	r3, [pc, #100]	; (306de0 <uart_bautrate_set+0xbe>)
  306d7a:	436a      	muls	r2, r5
  306d7c:	213f      	movs	r1, #63	; 0x3f
  306d7e:	68d8      	ldr	r0, [r3, #12]
  306d80:	3a10      	subs	r2, #16
  306d82:	4091      	lsls	r1, r2
  306d84:	ea20 0101 	bic.w	r1, r0, r1
  306d88:	200e      	movs	r0, #14
  306d8a:	fa00 f202 	lsl.w	r2, r0, r2
  306d8e:	2001      	movs	r0, #1
  306d90:	430a      	orrs	r2, r1
  306d92:	60da      	str	r2, [r3, #12]
  306d94:	f7fd fcb6 	bl	304704 <mdelay>
  306d98:	4813      	ldr	r0, [pc, #76]	; (306de8 <uart_bautrate_set+0xc6>)
  306d9a:	e000      	b.n	306d9e <uart_bautrate_set+0x7c>
  306d9c:	4813      	ldr	r0, [pc, #76]	; (306dec <uart_bautrate_set+0xca>)
  306d9e:	4631      	mov	r1, r6
  306da0:	f7ff ffad 	bl	306cfe <calc_divisor>
  306da4:	4b0e      	ldr	r3, [pc, #56]	; (306de0 <uart_bautrate_set+0xbe>)
  306da6:	4629      	mov	r1, r5
  306da8:	68da      	ldr	r2, [r3, #12]
  306daa:	9600      	str	r6, [sp, #0]
  306dac:	4607      	mov	r7, r0
  306dae:	4810      	ldr	r0, [pc, #64]	; (306df0 <uart_bautrate_set+0xce>)
  306db0:	463b      	mov	r3, r7
  306db2:	f7fd fb0b 	bl	3043cc <printf>
  306db6:	68e3      	ldr	r3, [r4, #12]
  306db8:	f043 0380 	orr.w	r3, r3, #128	; 0x80
  306dbc:	60e3      	str	r3, [r4, #12]
  306dbe:	b2fb      	uxtb	r3, r7
  306dc0:	f3c7 2707 	ubfx	r7, r7, #8, #8
  306dc4:	6023      	str	r3, [r4, #0]
  306dc6:	6067      	str	r7, [r4, #4]
  306dc8:	68e3      	ldr	r3, [r4, #12]
  306dca:	f023 0380 	bic.w	r3, r3, #128	; 0x80
  306dce:	60e3      	str	r3, [r4, #12]
  306dd0:	b003      	add	sp, #12
  306dd2:	bdf0      	pop	{r4, r5, r6, r7, pc}
  306dd4:	003007d8 	ldrsbteq	r0, [r0], -r8
  306dd8:	001c9c38 	andseq	r9, ip, r8, lsr ip
  306ddc:	002b7cd0 	ldrdeq	r7, [fp], -r0	; <UNPREDICTABLE>
  306de0:	c01d0000 	andsgt	r0, sp, r0
  306de4:	01c9c380 	biceq	ip, r9, r0, lsl #7
  306de8:	02b7cd00 	adcseq	ip, r7, #0, 26
  306dec:	05a995c0 	streq	r9, [r9, #1472]!	; 0x5c0
  306df0:	00301b86 	eorseq	r1, r0, r6, lsl #23

00306df4 <control_swrst_ctrl_regs>:
  306df4:	b570      	push	{r4, r5, r6, lr}
  306df6:	2501      	movs	r5, #1
  306df8:	4c05      	ldr	r4, [pc, #20]	; (306e10 <control_swrst_ctrl_regs+0x1c>)
  306dfa:	4085      	lsls	r5, r0
  306dfc:	200a      	movs	r0, #10
  306dfe:	6a66      	ldr	r6, [r4, #36]	; 0x24
  306e00:	ea26 0605 	bic.w	r6, r6, r5
  306e04:	6266      	str	r6, [r4, #36]	; 0x24
  306e06:	f7fd fc7d 	bl	304704 <mdelay>
  306e0a:	4335      	orrs	r5, r6
  306e0c:	6265      	str	r5, [r4, #36]	; 0x24
  306e0e:	bd70      	pop	{r4, r5, r6, pc}
  306e10:	c01d0000 	andsgt	r0, sp, r0

00306e14 <swrst_cpu1_reset>:
  306e14:	2000      	movs	r0, #0
  306e16:	f7ff bfed 	b.w	306df4 <control_swrst_ctrl_regs>

00306e1a <swrst_ddr_reset>:
  306e1a:	2001      	movs	r0, #1
  306e1c:	f7ff bfea 	b.w	306df4 <control_swrst_ctrl_regs>

00306e20 <swrst_rom_reset>:
  306e20:	2003      	movs	r0, #3
  306e22:	f7ff bfe7 	b.w	306df4 <control_swrst_ctrl_regs>

00306e26 <swrst_ram_reset>:
  306e26:	2004      	movs	r0, #4
  306e28:	f7ff bfe4 	b.w	306df4 <control_swrst_ctrl_regs>

00306e2c <swrst_bb_reset>:
  306e2c:	2005      	movs	r0, #5
  306e2e:	f7ff bfe1 	b.w	306df4 <control_swrst_ctrl_regs>

00306e32 <swrst_mp_reset>:
  306e32:	2006      	movs	r0, #6
  306e34:	f7ff bfde 	b.w	306df4 <control_swrst_ctrl_regs>

00306e38 <swrst_dmac0_reset>:
  306e38:	2007      	movs	r0, #7
  306e3a:	f7ff bfdb 	b.w	306df4 <control_swrst_ctrl_regs>

00306e3e <swrst_dmac1_reset>:
  306e3e:	2008      	movs	r0, #8
  306e40:	f7ff bfd8 	b.w	306df4 <control_swrst_ctrl_regs>

00306e44 <swrst_qspi_reset>:
  306e44:	2009      	movs	r0, #9
  306e46:	f7ff bfd5 	b.w	306df4 <control_swrst_ctrl_regs>

00306e4a <swrst_sd_reset>:
  306e4a:	200a      	movs	r0, #10
  306e4c:	f7ff bfd2 	b.w	306df4 <control_swrst_ctrl_regs>

00306e50 <swrst_uart0_reset>:
  306e50:	200b      	movs	r0, #11
  306e52:	f7ff bfcf 	b.w	306df4 <control_swrst_ctrl_regs>

00306e56 <swrst_uart1_reset>:
  306e56:	200c      	movs	r0, #12
  306e58:	f7ff bfcc 	b.w	306df4 <control_swrst_ctrl_regs>

00306e5c <swrst_uart2_reset>:
  306e5c:	200d      	movs	r0, #13
  306e5e:	f7ff bfc9 	b.w	306df4 <control_swrst_ctrl_regs>

00306e62 <swrst_uart3_reset>:
  306e62:	200e      	movs	r0, #14
  306e64:	f7ff bfc6 	b.w	306df4 <control_swrst_ctrl_regs>

00306e68 <swrst_uart4_reset>:
  306e68:	200f      	movs	r0, #15
  306e6a:	f7ff bfc3 	b.w	306df4 <control_swrst_ctrl_regs>

00306e6e <swrst_uart5_reset>:
  306e6e:	2010      	movs	r0, #16
  306e70:	f7ff bfc0 	b.w	306df4 <control_swrst_ctrl_regs>

00306e74 <swrst_uart6_reset>:
  306e74:	2011      	movs	r0, #17
  306e76:	f7ff bfbd 	b.w	306df4 <control_swrst_ctrl_regs>

00306e7a <swrst_uart7_reset>:
  306e7a:	2012      	movs	r0, #18
  306e7c:	f7ff bfba 	b.w	306df4 <control_swrst_ctrl_regs>

00306e80 <swrst_i2c0_reset>:
  306e80:	2013      	movs	r0, #19
  306e82:	f7ff bfb7 	b.w	306df4 <control_swrst_ctrl_regs>

00306e86 <swrst_i2c1_reset>:
  306e86:	2014      	movs	r0, #20
  306e88:	f7ff bfb4 	b.w	306df4 <control_swrst_ctrl_regs>

00306e8c <swrst_spi0_reset>:
  306e8c:	2015      	movs	r0, #21
  306e8e:	f7ff bfb1 	b.w	306df4 <control_swrst_ctrl_regs>

00306e92 <swrst_spi1_reset>:
  306e92:	2016      	movs	r0, #22
  306e94:	f7ff bfae 	b.w	306df4 <control_swrst_ctrl_regs>

00306e98 <swrst_spi2_reset>:
  306e98:	2017      	movs	r0, #23
  306e9a:	f7ff bfab 	b.w	306df4 <control_swrst_ctrl_regs>

00306e9e <swrst_spi3_reset>:
  306e9e:	2018      	movs	r0, #24
  306ea0:	f7ff bfa8 	b.w	306df4 <control_swrst_ctrl_regs>

00306ea4 <swrst_sim0_reset>:
  306ea4:	2019      	movs	r0, #25
  306ea6:	f7ff bfa5 	b.w	306df4 <control_swrst_ctrl_regs>

00306eaa <swrst_sim1_reset>:
  306eaa:	201a      	movs	r0, #26
  306eac:	f7ff bfa2 	b.w	306df4 <control_swrst_ctrl_regs>

00306eb0 <swrst_sim2_reset>:
  306eb0:	201b      	movs	r0, #27
  306eb2:	f7ff bf9f 	b.w	306df4 <control_swrst_ctrl_regs>

00306eb6 <swrst_pwm_reset>:
  306eb6:	201c      	movs	r0, #28
  306eb8:	f7ff bf9c 	b.w	306df4 <control_swrst_ctrl_regs>

00306ebc <swrst_gpio_reset>:
  306ebc:	201d      	movs	r0, #29
  306ebe:	f7ff bf99 	b.w	306df4 <control_swrst_ctrl_regs>

00306ec2 <swrst_timer_reset>:
  306ec2:	201e      	movs	r0, #30
  306ec4:	f7ff bf96 	b.w	306df4 <control_swrst_ctrl_regs>

00306ec8 <swrst_global_reset>:
  306ec8:	b538      	push	{r3, r4, r5, lr}
  306eca:	200a      	movs	r0, #10
  306ecc:	4c05      	ldr	r4, [pc, #20]	; (306ee4 <swrst_global_reset+0x1c>)
  306ece:	6825      	ldr	r5, [r4, #0]
  306ed0:	f025 0501 	bic.w	r5, r5, #1
  306ed4:	6025      	str	r5, [r4, #0]
  306ed6:	f7fd fc15 	bl	304704 <mdelay>
  306eda:	f045 0501 	orr.w	r5, r5, #1
  306ede:	6025      	str	r5, [r4, #0]
  306ee0:	bd38      	pop	{r3, r4, r5, pc}
  306ee2:	bf00      	nop
  306ee4:	c01d3000 	andsgt	r3, sp, r0

00306ee8 <swrst_gic_reset>:
  306ee8:	b538      	push	{r3, r4, r5, lr}
  306eea:	200a      	movs	r0, #10
  306eec:	4c05      	ldr	r4, [pc, #20]	; (306f04 <swrst_gic_reset+0x1c>)
  306eee:	6825      	ldr	r5, [r4, #0]
  306ef0:	f025 0502 	bic.w	r5, r5, #2
  306ef4:	6025      	str	r5, [r4, #0]
  306ef6:	f7fd fc05 	bl	304704 <mdelay>
  306efa:	f045 0502 	orr.w	r5, r5, #2
  306efe:	6025      	str	r5, [r4, #0]
  306f00:	bd38      	pop	{r3, r4, r5, pc}
  306f02:	bf00      	nop
  306f04:	c01d3000 	andsgt	r3, sp, r0

00306f08 <calc_div_value>:
  306f08:	b510      	push	{r4, lr}
  306f0a:	240a      	movs	r4, #10
  306f0c:	4360      	muls	r0, r4
  306f0e:	f000 ffe5 	bl	307edc <__aeabi_uidiv>
  306f12:	4621      	mov	r1, r4
  306f14:	3005      	adds	r0, #5
  306f16:	f000 ffe1 	bl	307edc <__aeabi_uidiv>
  306f1a:	2800      	cmp	r0, #0
  306f1c:	bf08      	it	eq
  306f1e:	2001      	moveq	r0, #1
  306f20:	bd10      	pop	{r4, pc}

00306f22 <get_clk_div_value.constprop.0>:
  306f22:	2826      	cmp	r0, #38	; 0x26
  306f24:	d873      	bhi.n	30700e <get_clk_div_value.constprop.0+0xec>
  306f26:	e8df f000 	tbb	[pc, r0]
  306f2a:	1d1a1714 	ldcne	7, cr1, [sl, #-80]	; 0xffffffb0
  306f2e:	72262320 	eorvc	r2, r6, #32, 6	; 0x80000000
  306f32:	72363129 	eorsvc	r3, r6, #1073741834	; 0x4000000a
  306f36:	722c3b72 	eorvc	r3, ip, #116736	; 0x1c800
  306f3a:	72727272 	rsbsvc	r7, r2, #536870919	; 0x20000007
  306f3e:	40484372 	submi	r4, r8, r2, ror r3
  306f42:	524f4c40 	subpl	r4, pc, #64, 24	; 0x4000
  306f46:	605b5855 	subsvs	r5, fp, r5, asr r8
  306f4a:	72727265 	rsbsvc	r7, r2, #1342177286	; 0x50000006
  306f4e:	00697272 	rsbeq	r7, r9, r2, ror r2
  306f52:	4b32      	ldr	r3, [pc, #200]	; (30701c <get_clk_div_value.constprop.0+0xfa>)
  306f54:	689b      	ldr	r3, [r3, #8]
  306f56:	e016      	b.n	306f86 <get_clk_div_value.constprop.0+0x64>
  306f58:	4b30      	ldr	r3, [pc, #192]	; (30701c <get_clk_div_value.constprop.0+0xfa>)
  306f5a:	689b      	ldr	r3, [r3, #8]
  306f5c:	e018      	b.n	306f90 <get_clk_div_value.constprop.0+0x6e>
  306f5e:	4b2f      	ldr	r3, [pc, #188]	; (30701c <get_clk_div_value.constprop.0+0xfa>)
  306f60:	689b      	ldr	r3, [r3, #8]
  306f62:	e01a      	b.n	306f9a <get_clk_div_value.constprop.0+0x78>
  306f64:	4b2d      	ldr	r3, [pc, #180]	; (30701c <get_clk_div_value.constprop.0+0xfa>)
  306f66:	689b      	ldr	r3, [r3, #8]
  306f68:	e01c      	b.n	306fa4 <get_clk_div_value.constprop.0+0x82>
  306f6a:	4b2c      	ldr	r3, [pc, #176]	; (30701c <get_clk_div_value.constprop.0+0xfa>)
  306f6c:	689b      	ldr	r3, [r3, #8]
  306f6e:	e048      	b.n	307002 <get_clk_div_value.constprop.0+0xe0>
  306f70:	4b2a      	ldr	r3, [pc, #168]	; (30701c <get_clk_div_value.constprop.0+0xfa>)
  306f72:	689b      	ldr	r3, [r3, #8]
  306f74:	e036      	b.n	306fe4 <get_clk_div_value.constprop.0+0xc2>
  306f76:	4b29      	ldr	r3, [pc, #164]	; (30701c <get_clk_div_value.constprop.0+0xfa>)
  306f78:	689b      	ldr	r3, [r3, #8]
  306f7a:	e038      	b.n	306fee <get_clk_div_value.constprop.0+0xcc>
  306f7c:	4b27      	ldr	r3, [pc, #156]	; (30701c <get_clk_div_value.constprop.0+0xfa>)
  306f7e:	689b      	ldr	r3, [r3, #8]
  306f80:	e03a      	b.n	306ff8 <get_clk_div_value.constprop.0+0xd6>
  306f82:	4b26      	ldr	r3, [pc, #152]	; (30701c <get_clk_div_value.constprop.0+0xfa>)
  306f84:	68db      	ldr	r3, [r3, #12]
  306f86:	f003 030f 	and.w	r3, r3, #15
  306f8a:	e03c      	b.n	307006 <get_clk_div_value.constprop.0+0xe4>
  306f8c:	4b23      	ldr	r3, [pc, #140]	; (30701c <get_clk_div_value.constprop.0+0xfa>)
  306f8e:	68db      	ldr	r3, [r3, #12]
  306f90:	f3c3 1303 	ubfx	r3, r3, #4, #4
  306f94:	e037      	b.n	307006 <get_clk_div_value.constprop.0+0xe4>
  306f96:	4b21      	ldr	r3, [pc, #132]	; (30701c <get_clk_div_value.constprop.0+0xfa>)
  306f98:	68db      	ldr	r3, [r3, #12]
  306f9a:	f3c3 2303 	ubfx	r3, r3, #8, #4
  306f9e:	e032      	b.n	307006 <get_clk_div_value.constprop.0+0xe4>
  306fa0:	4b1e      	ldr	r3, [pc, #120]	; (30701c <get_clk_div_value.constprop.0+0xfa>)
  306fa2:	68db      	ldr	r3, [r3, #12]
  306fa4:	f3c3 3303 	ubfx	r3, r3, #12, #4
  306fa8:	e02d      	b.n	307006 <get_clk_div_value.constprop.0+0xe4>
  306faa:	4b1c      	ldr	r3, [pc, #112]	; (30701c <get_clk_div_value.constprop.0+0xfa>)
  306fac:	68db      	ldr	r3, [r3, #12]
  306fae:	e028      	b.n	307002 <get_clk_div_value.constprop.0+0xe0>
  306fb0:	4b1a      	ldr	r3, [pc, #104]	; (30701c <get_clk_div_value.constprop.0+0xfa>)
  306fb2:	68db      	ldr	r3, [r3, #12]
  306fb4:	f3c3 5305 	ubfx	r3, r3, #20, #6
  306fb8:	e025      	b.n	307006 <get_clk_div_value.constprop.0+0xe4>
  306fba:	4b18      	ldr	r3, [pc, #96]	; (30701c <get_clk_div_value.constprop.0+0xfa>)
  306fbc:	68db      	ldr	r3, [r3, #12]
  306fbe:	0e9b      	lsrs	r3, r3, #26
  306fc0:	e021      	b.n	307006 <get_clk_div_value.constprop.0+0xe4>
  306fc2:	4b16      	ldr	r3, [pc, #88]	; (30701c <get_clk_div_value.constprop.0+0xfa>)
  306fc4:	691b      	ldr	r3, [r3, #16]
  306fc6:	e7de      	b.n	306f86 <get_clk_div_value.constprop.0+0x64>
  306fc8:	4b14      	ldr	r3, [pc, #80]	; (30701c <get_clk_div_value.constprop.0+0xfa>)
  306fca:	691b      	ldr	r3, [r3, #16]
  306fcc:	e7e0      	b.n	306f90 <get_clk_div_value.constprop.0+0x6e>
  306fce:	4b13      	ldr	r3, [pc, #76]	; (30701c <get_clk_div_value.constprop.0+0xfa>)
  306fd0:	691b      	ldr	r3, [r3, #16]
  306fd2:	e7e2      	b.n	306f9a <get_clk_div_value.constprop.0+0x78>
  306fd4:	4b11      	ldr	r3, [pc, #68]	; (30701c <get_clk_div_value.constprop.0+0xfa>)
  306fd6:	691b      	ldr	r3, [r3, #16]
  306fd8:	e7e4      	b.n	306fa4 <get_clk_div_value.constprop.0+0x82>
  306fda:	4b10      	ldr	r3, [pc, #64]	; (30701c <get_clk_div_value.constprop.0+0xfa>)
  306fdc:	691b      	ldr	r3, [r3, #16]
  306fde:	e010      	b.n	307002 <get_clk_div_value.constprop.0+0xe0>
  306fe0:	4b0e      	ldr	r3, [pc, #56]	; (30701c <get_clk_div_value.constprop.0+0xfa>)
  306fe2:	691b      	ldr	r3, [r3, #16]
  306fe4:	f3c3 5303 	ubfx	r3, r3, #20, #4
  306fe8:	e00d      	b.n	307006 <get_clk_div_value.constprop.0+0xe4>
  306fea:	4b0c      	ldr	r3, [pc, #48]	; (30701c <get_clk_div_value.constprop.0+0xfa>)
  306fec:	691b      	ldr	r3, [r3, #16]
  306fee:	f3c3 6303 	ubfx	r3, r3, #24, #4
  306ff2:	e008      	b.n	307006 <get_clk_div_value.constprop.0+0xe4>
  306ff4:	4b09      	ldr	r3, [pc, #36]	; (30701c <get_clk_div_value.constprop.0+0xfa>)
  306ff6:	691b      	ldr	r3, [r3, #16]
  306ff8:	0f1b      	lsrs	r3, r3, #28
  306ffa:	e004      	b.n	307006 <get_clk_div_value.constprop.0+0xe4>
  306ffc:	4b07      	ldr	r3, [pc, #28]	; (30701c <get_clk_div_value.constprop.0+0xfa>)
  306ffe:	f8d3 30a4 	ldr.w	r3, [r3, #164]	; 0xa4
  307002:	f3c3 4303 	ubfx	r3, r3, #16, #4
  307006:	b12b      	cbz	r3, 307014 <get_clk_div_value.constprop.0+0xf2>
  307008:	600b      	str	r3, [r1, #0]
  30700a:	2000      	movs	r0, #0
  30700c:	4770      	bx	lr
  30700e:	f06f 0001 	mvn.w	r0, #1
  307012:	4770      	bx	lr
  307014:	f06f 0002 	mvn.w	r0, #2
  307018:	4770      	bx	lr
  30701a:	bf00      	nop
  30701c:	c01d0000 	andsgt	r0, sp, r0

00307020 <set_clk_div_value>:
  307020:	2900      	cmp	r1, #0
  307022:	f000 8180 	beq.w	307326 <set_clk_div_value+0x306>
  307026:	2826      	cmp	r0, #38	; 0x26
  307028:	f200 817d 	bhi.w	307326 <set_clk_div_value+0x306>
  30702c:	e8df f010 	tbh	[pc, r0, lsl #1]
  307030:	002d0027 	eoreq	r0, sp, r7, lsr #32
  307034:	00390033 	eorseq	r0, r9, r3, lsr r0
  307038:	0045003f 	subeq	r0, r5, pc, lsr r0
  30703c:	017b004b 	cmneq	fp, fp, asr #32
  307040:	005d0051 	subseq	r0, sp, r1, asr r0
  307044:	017b0063 	cmneq	fp, r3, rrx
  307048:	0069017b 	rsbeq	r0, r9, fp, ror r1
  30704c:	017b0057 	cmneq	fp, r7, asr r0
  307050:	017b017b 	cmneq	fp, fp, ror r1
  307054:	017b017b 	cmneq	fp, fp, ror r1
  307058:	0074017b 	rsbseq	r0, r4, fp, ror r1
  30705c:	006f007a 	rsbeq	r0, pc, sl, ror r0	; <UNPREDICTABLE>
  307060:	0080006f 	addeq	r0, r0, pc, rrx
  307064:	008c0086 	addeq	r0, ip, r6, lsl #1
  307068:	00980092 	umullseq	r0, r8, r2, r0
  30706c:	00a4009e 	umlaleq	r0, r4, lr, r0
  307070:	017b00aa 	cmneq	fp, sl, lsr #1
  307074:	017b017b 	cmneq	fp, fp, ror r1
  307078:	017b017b 	cmneq	fp, fp, ror r1
  30707c:	f00100b0 			; <UNDEFINED> instruction: 0xf00100b0
  307080:	030f      	lsls	r7, r1, #12
  307082:	428b      	cmp	r3, r1
  307084:	f000 80a3 	beq.w	3071ce <set_clk_div_value+0x1ae>
  307088:	e150      	b.n	30732c <set_clk_div_value+0x30c>
  30708a:	f001 030f 	and.w	r3, r1, #15
  30708e:	428b      	cmp	r3, r1
  307090:	f000 80a3 	beq.w	3071da <set_clk_div_value+0x1ba>
  307094:	e14a      	b.n	30732c <set_clk_div_value+0x30c>
  307096:	f001 030f 	and.w	r3, r1, #15
  30709a:	428b      	cmp	r3, r1
  30709c:	f000 80a6 	beq.w	3071ec <set_clk_div_value+0x1cc>
  3070a0:	e144      	b.n	30732c <set_clk_div_value+0x30c>
  3070a2:	f001 030f 	and.w	r3, r1, #15
  3070a6:	428b      	cmp	r3, r1
  3070a8:	f000 80a7 	beq.w	3071fa <set_clk_div_value+0x1da>
  3070ac:	e13e      	b.n	30732c <set_clk_div_value+0x30c>
  3070ae:	f001 030f 	and.w	r3, r1, #15
  3070b2:	428b      	cmp	r3, r1
  3070b4:	f000 80a8 	beq.w	307208 <set_clk_div_value+0x1e8>
  3070b8:	e138      	b.n	30732c <set_clk_div_value+0x30c>
  3070ba:	f001 030f 	and.w	r3, r1, #15
  3070be:	428b      	cmp	r3, r1
  3070c0:	f000 80a9 	beq.w	307216 <set_clk_div_value+0x1f6>
  3070c4:	e132      	b.n	30732c <set_clk_div_value+0x30c>
  3070c6:	f001 030f 	and.w	r3, r1, #15
  3070ca:	428b      	cmp	r3, r1
  3070cc:	f000 80aa 	beq.w	307224 <set_clk_div_value+0x204>
  3070d0:	e12c      	b.n	30732c <set_clk_div_value+0x30c>
  3070d2:	f001 030f 	and.w	r3, r1, #15
  3070d6:	428b      	cmp	r3, r1
  3070d8:	f000 80ab 	beq.w	307232 <set_clk_div_value+0x212>
  3070dc:	e126      	b.n	30732c <set_clk_div_value+0x30c>
  3070de:	f001 030f 	and.w	r3, r1, #15
  3070e2:	428b      	cmp	r3, r1
  3070e4:	f000 80ac 	beq.w	307240 <set_clk_div_value+0x220>
  3070e8:	e120      	b.n	30732c <set_clk_div_value+0x30c>
  3070ea:	f001 030f 	and.w	r3, r1, #15
  3070ee:	428b      	cmp	r3, r1
  3070f0:	f000 80ac 	beq.w	30724c <set_clk_div_value+0x22c>
  3070f4:	e11a      	b.n	30732c <set_clk_div_value+0x30c>
  3070f6:	f001 030f 	and.w	r3, r1, #15
  3070fa:	428b      	cmp	r3, r1
  3070fc:	f000 80ad 	beq.w	30725a <set_clk_div_value+0x23a>
  307100:	e114      	b.n	30732c <set_clk_div_value+0x30c>
  307102:	f001 030f 	and.w	r3, r1, #15
  307106:	428b      	cmp	r3, r1
  307108:	f000 80ae 	beq.w	307268 <set_clk_div_value+0x248>
  30710c:	e10e      	b.n	30732c <set_clk_div_value+0x30c>
  30710e:	f001 030f 	and.w	r3, r1, #15
  307112:	428b      	cmp	r3, r1
  307114:	d042      	beq.n	30719c <set_clk_div_value+0x17c>
  307116:	e109      	b.n	30732c <set_clk_div_value+0x30c>
  307118:	f001 033f 	and.w	r3, r1, #63	; 0x3f
  30711c:	428b      	cmp	r3, r1
  30711e:	f000 80b1 	beq.w	307284 <set_clk_div_value+0x264>
  307122:	e103      	b.n	30732c <set_clk_div_value+0x30c>
  307124:	f001 033f 	and.w	r3, r1, #63	; 0x3f
  307128:	428b      	cmp	r3, r1
  30712a:	f000 80b2 	beq.w	307292 <set_clk_div_value+0x272>
  30712e:	e0fd      	b.n	30732c <set_clk_div_value+0x30c>
  307130:	f001 030f 	and.w	r3, r1, #15
  307134:	428b      	cmp	r3, r1
  307136:	f000 80b4 	beq.w	3072a2 <set_clk_div_value+0x282>
  30713a:	e0f7      	b.n	30732c <set_clk_div_value+0x30c>
  30713c:	f001 030f 	and.w	r3, r1, #15
  307140:	428b      	cmp	r3, r1
  307142:	f000 80b4 	beq.w	3072ae <set_clk_div_value+0x28e>
  307146:	e0f1      	b.n	30732c <set_clk_div_value+0x30c>
  307148:	f001 030f 	and.w	r3, r1, #15
  30714c:	428b      	cmp	r3, r1
  30714e:	f000 80b5 	beq.w	3072bc <set_clk_div_value+0x29c>
  307152:	e0eb      	b.n	30732c <set_clk_div_value+0x30c>
  307154:	f001 030f 	and.w	r3, r1, #15
  307158:	428b      	cmp	r3, r1
  30715a:	f000 80b6 	beq.w	3072ca <set_clk_div_value+0x2aa>
  30715e:	e0e5      	b.n	30732c <set_clk_div_value+0x30c>
  307160:	f001 030f 	and.w	r3, r1, #15
  307164:	428b      	cmp	r3, r1
  307166:	f000 80b7 	beq.w	3072d8 <set_clk_div_value+0x2b8>
  30716a:	e0df      	b.n	30732c <set_clk_div_value+0x30c>
  30716c:	f001 030f 	and.w	r3, r1, #15
  307170:	428b      	cmp	r3, r1
  307172:	f000 80b8 	beq.w	3072e6 <set_clk_div_value+0x2c6>
  307176:	e0d9      	b.n	30732c <set_clk_div_value+0x30c>
  307178:	f001 030f 	and.w	r3, r1, #15
  30717c:	428b      	cmp	r3, r1
  30717e:	f000 80b9 	beq.w	3072f4 <set_clk_div_value+0x2d4>
  307182:	e0d3      	b.n	30732c <set_clk_div_value+0x30c>
  307184:	f001 030f 	and.w	r3, r1, #15
  307188:	428b      	cmp	r3, r1
  30718a:	f000 80ba 	beq.w	307302 <set_clk_div_value+0x2e2>
  30718e:	e0cd      	b.n	30732c <set_clk_div_value+0x30c>
  307190:	f001 030f 	and.w	r3, r1, #15
  307194:	428b      	cmp	r3, r1
  307196:	f000 80bc 	beq.w	307312 <set_clk_div_value+0x2f2>
  30719a:	e0c7      	b.n	30732c <set_clk_div_value+0x30c>
  30719c:	2826      	cmp	r0, #38	; 0x26
  30719e:	f200 80c2 	bhi.w	307326 <set_clk_div_value+0x306>
  3071a2:	e8df f000 	tbb	[pc, r0]
  3071a6:	2a231a14 	bcs	bcd9fe <__bss_end__+0x8c35fa>
  3071aa:	c03f3831 	eorsgt	r3, pc, r1, lsr r8	; <UNPREDICTABLE>
  3071ae:	c05a5346 	subsgt	r5, sl, r6, asr #6
  3071b2:	c04d61c0 	subgt	r6, sp, r0, asr #3
  3071b6:	c0c0c0c0 	sbcgt	ip, r0, r0, asr #1
  3071ba:	68766fc0 	ldmdavs	r6!, {r6, r7, r8, r9, sl, fp, sp, lr}^
  3071be:	8b847e68 	blhi	fe426b66 <__bss_end__+0xfe11c762>
  3071c2:	a7a09992 			; <UNDEFINED> instruction: 0xa7a09992
  3071c6:	c0c0c0ae 	sbcgt	ip, r0, lr, lsr #1
  3071ca:	00b6c0c0 	adcseq	ip, r6, r0, asr #1
  3071ce:	4a59      	ldr	r2, [pc, #356]	; (307334 <set_clk_div_value+0x314>)
  3071d0:	6891      	ldr	r1, [r2, #8]
  3071d2:	f021 010f 	bic.w	r1, r1, #15
  3071d6:	430b      	orrs	r3, r1
  3071d8:	e005      	b.n	3071e6 <set_clk_div_value+0x1c6>
  3071da:	4a56      	ldr	r2, [pc, #344]	; (307334 <set_clk_div_value+0x314>)
  3071dc:	6891      	ldr	r1, [r2, #8]
  3071de:	f021 01f0 	bic.w	r1, r1, #240	; 0xf0
  3071e2:	ea41 1303 	orr.w	r3, r1, r3, lsl #4
  3071e6:	6093      	str	r3, [r2, #8]
  3071e8:	2000      	movs	r0, #0
  3071ea:	4770      	bx	lr
  3071ec:	4a51      	ldr	r2, [pc, #324]	; (307334 <set_clk_div_value+0x314>)
  3071ee:	6891      	ldr	r1, [r2, #8]
  3071f0:	f421 6170 	bic.w	r1, r1, #3840	; 0xf00
  3071f4:	ea41 2303 	orr.w	r3, r1, r3, lsl #8
  3071f8:	e7f5      	b.n	3071e6 <set_clk_div_value+0x1c6>
  3071fa:	4a4e      	ldr	r2, [pc, #312]	; (307334 <set_clk_div_value+0x314>)
  3071fc:	6891      	ldr	r1, [r2, #8]
  3071fe:	f421 4170 	bic.w	r1, r1, #61440	; 0xf000
  307202:	ea41 3303 	orr.w	r3, r1, r3, lsl #12
  307206:	e7ee      	b.n	3071e6 <set_clk_div_value+0x1c6>
  307208:	4a4a      	ldr	r2, [pc, #296]	; (307334 <set_clk_div_value+0x314>)
  30720a:	6891      	ldr	r1, [r2, #8]
  30720c:	f421 2170 	bic.w	r1, r1, #983040	; 0xf0000
  307210:	ea41 4303 	orr.w	r3, r1, r3, lsl #16
  307214:	e7e7      	b.n	3071e6 <set_clk_div_value+0x1c6>
  307216:	4a47      	ldr	r2, [pc, #284]	; (307334 <set_clk_div_value+0x314>)
  307218:	6891      	ldr	r1, [r2, #8]
  30721a:	f421 0170 	bic.w	r1, r1, #15728640	; 0xf00000
  30721e:	ea41 5303 	orr.w	r3, r1, r3, lsl #20
  307222:	e7e0      	b.n	3071e6 <set_clk_div_value+0x1c6>
  307224:	4a43      	ldr	r2, [pc, #268]	; (307334 <set_clk_div_value+0x314>)
  307226:	6891      	ldr	r1, [r2, #8]
  307228:	f021 6170 	bic.w	r1, r1, #251658240	; 0xf000000
  30722c:	ea41 6303 	orr.w	r3, r1, r3, lsl #24
  307230:	e7d9      	b.n	3071e6 <set_clk_div_value+0x1c6>
  307232:	4a40      	ldr	r2, [pc, #256]	; (307334 <set_clk_div_value+0x314>)
  307234:	6891      	ldr	r1, [r2, #8]
  307236:	f021 4170 	bic.w	r1, r1, #4026531840	; 0xf0000000
  30723a:	ea41 7303 	orr.w	r3, r1, r3, lsl #28
  30723e:	e7d2      	b.n	3071e6 <set_clk_div_value+0x1c6>
  307240:	4a3c      	ldr	r2, [pc, #240]	; (307334 <set_clk_div_value+0x314>)
  307242:	68d1      	ldr	r1, [r2, #12]
  307244:	f021 010f 	bic.w	r1, r1, #15
  307248:	430b      	orrs	r3, r1
  30724a:	e028      	b.n	30729e <set_clk_div_value+0x27e>
  30724c:	4a39      	ldr	r2, [pc, #228]	; (307334 <set_clk_div_value+0x314>)
  30724e:	68d1      	ldr	r1, [r2, #12]
  307250:	f021 01f0 	bic.w	r1, r1, #240	; 0xf0
  307254:	ea41 1303 	orr.w	r3, r1, r3, lsl #4
  307258:	e021      	b.n	30729e <set_clk_div_value+0x27e>
  30725a:	4a36      	ldr	r2, [pc, #216]	; (307334 <set_clk_div_value+0x314>)
  30725c:	68d1      	ldr	r1, [r2, #12]
  30725e:	f421 6170 	bic.w	r1, r1, #3840	; 0xf00
  307262:	ea41 2303 	orr.w	r3, r1, r3, lsl #8
  307266:	e01a      	b.n	30729e <set_clk_div_value+0x27e>
  307268:	4a32      	ldr	r2, [pc, #200]	; (307334 <set_clk_div_value+0x314>)
  30726a:	68d1      	ldr	r1, [r2, #12]
  30726c:	f421 4170 	bic.w	r1, r1, #61440	; 0xf000
  307270:	ea41 3303 	orr.w	r3, r1, r3, lsl #12
  307274:	e013      	b.n	30729e <set_clk_div_value+0x27e>
  307276:	4a2f      	ldr	r2, [pc, #188]	; (307334 <set_clk_div_value+0x314>)
  307278:	68d1      	ldr	r1, [r2, #12]
  30727a:	f421 2170 	bic.w	r1, r1, #983040	; 0xf0000
  30727e:	ea41 4303 	orr.w	r3, r1, r3, lsl #16
  307282:	e00c      	b.n	30729e <set_clk_div_value+0x27e>
  307284:	4a2b      	ldr	r2, [pc, #172]	; (307334 <set_clk_div_value+0x314>)
  307286:	68d1      	ldr	r1, [r2, #12]
  307288:	f021 717c 	bic.w	r1, r1, #66060288	; 0x3f00000
  30728c:	ea41 5303 	orr.w	r3, r1, r3, lsl #20
  307290:	e005      	b.n	30729e <set_clk_div_value+0x27e>
  307292:	4a28      	ldr	r2, [pc, #160]	; (307334 <set_clk_div_value+0x314>)
  307294:	68d1      	ldr	r1, [r2, #12]
  307296:	f021 417c 	bic.w	r1, r1, #4227858432	; 0xfc000000
  30729a:	ea41 6383 	orr.w	r3, r1, r3, lsl #26
  30729e:	60d3      	str	r3, [r2, #12]
  3072a0:	e7a2      	b.n	3071e8 <set_clk_div_value+0x1c8>
  3072a2:	4a24      	ldr	r2, [pc, #144]	; (307334 <set_clk_div_value+0x314>)
  3072a4:	6911      	ldr	r1, [r2, #16]
  3072a6:	f021 010f 	bic.w	r1, r1, #15
  3072aa:	430b      	orrs	r3, r1
  3072ac:	e02f      	b.n	30730e <set_clk_div_value+0x2ee>
  3072ae:	4a21      	ldr	r2, [pc, #132]	; (307334 <set_clk_div_value+0x314>)
  3072b0:	6911      	ldr	r1, [r2, #16]
  3072b2:	f021 01f0 	bic.w	r1, r1, #240	; 0xf0
  3072b6:	ea41 1303 	orr.w	r3, r1, r3, lsl #4
  3072ba:	e028      	b.n	30730e <set_clk_div_value+0x2ee>
  3072bc:	4a1d      	ldr	r2, [pc, #116]	; (307334 <set_clk_div_value+0x314>)
  3072be:	6911      	ldr	r1, [r2, #16]
  3072c0:	f421 6170 	bic.w	r1, r1, #3840	; 0xf00
  3072c4:	ea41 2303 	orr.w	r3, r1, r3, lsl #8
  3072c8:	e021      	b.n	30730e <set_clk_div_value+0x2ee>
  3072ca:	4a1a      	ldr	r2, [pc, #104]	; (307334 <set_clk_div_value+0x314>)
  3072cc:	6911      	ldr	r1, [r2, #16]
  3072ce:	f421 4170 	bic.w	r1, r1, #61440	; 0xf000
  3072d2:	ea41 3303 	orr.w	r3, r1, r3, lsl #12
  3072d6:	e01a      	b.n	30730e <set_clk_div_value+0x2ee>
  3072d8:	4a16      	ldr	r2, [pc, #88]	; (307334 <set_clk_div_value+0x314>)
  3072da:	6911      	ldr	r1, [r2, #16]
  3072dc:	f421 2170 	bic.w	r1, r1, #983040	; 0xf0000
  3072e0:	ea41 4303 	orr.w	r3, r1, r3, lsl #16
  3072e4:	e013      	b.n	30730e <set_clk_div_value+0x2ee>
  3072e6:	4a13      	ldr	r2, [pc, #76]	; (307334 <set_clk_div_value+0x314>)
  3072e8:	6911      	ldr	r1, [r2, #16]
  3072ea:	f421 0170 	bic.w	r1, r1, #15728640	; 0xf00000
  3072ee:	ea41 5303 	orr.w	r3, r1, r3, lsl #20
  3072f2:	e00c      	b.n	30730e <set_clk_div_value+0x2ee>
  3072f4:	4a0f      	ldr	r2, [pc, #60]	; (307334 <set_clk_div_value+0x314>)
  3072f6:	6911      	ldr	r1, [r2, #16]
  3072f8:	f021 6170 	bic.w	r1, r1, #251658240	; 0xf000000
  3072fc:	ea41 6303 	orr.w	r3, r1, r3, lsl #24
  307300:	e005      	b.n	30730e <set_clk_div_value+0x2ee>
  307302:	4a0c      	ldr	r2, [pc, #48]	; (307334 <set_clk_div_value+0x314>)
  307304:	6911      	ldr	r1, [r2, #16]
  307306:	f021 4170 	bic.w	r1, r1, #4026531840	; 0xf0000000
  30730a:	ea41 7303 	orr.w	r3, r1, r3, lsl #28
  30730e:	6113      	str	r3, [r2, #16]
  307310:	e76a      	b.n	3071e8 <set_clk_div_value+0x1c8>
  307312:	4a08      	ldr	r2, [pc, #32]	; (307334 <set_clk_div_value+0x314>)
  307314:	f8d2 10a4 	ldr.w	r1, [r2, #164]	; 0xa4
  307318:	f421 2170 	bic.w	r1, r1, #983040	; 0xf0000
  30731c:	ea41 4303 	orr.w	r3, r1, r3, lsl #16
  307320:	f8c2 30a4 	str.w	r3, [r2, #164]	; 0xa4
  307324:	e760      	b.n	3071e8 <set_clk_div_value+0x1c8>
  307326:	f06f 0001 	mvn.w	r0, #1
  30732a:	4770      	bx	lr
  30732c:	f06f 0003 	mvn.w	r0, #3
  307330:	4770      	bx	lr
  307332:	bf00      	nop
  307334:	c01d0000 	andsgt	r0, sp, r0

00307338 <clk_disable>:
  307338:	3801      	subs	r0, #1
  30733a:	2825      	cmp	r0, #37	; 0x25
  30733c:	f200 80da 	bhi.w	3074f4 <clk_disable+0x1bc>
  307340:	e8df f010 	tbh	[pc, r0, lsl #1]
  307344:	00d80026 	sbcseq	r0, r8, r6, lsr #32
  307348:	00d800d8 	ldrsbeq	r0, [r8], #8
  30734c:	0030002b 	eorseq	r0, r0, fp, lsr #32
  307350:	003a0035 	eorseq	r0, sl, r5, lsr r0
  307354:	0044003f 	subeq	r0, r4, pc, lsr r0
  307358:	004e0049 	subeq	r0, lr, r9, asr #32
  30735c:	00580053 	subseq	r0, r8, r3, asr r0
  307360:	0062005d 	rsbeq	r0, r2, sp, asr r0
  307364:	006c0067 	rsbeq	r0, ip, r7, rrx
  307368:	00760071 	rsbseq	r0, r6, r1, ror r0
  30736c:	0080007b 	addeq	r0, r0, fp, ror r0
  307370:	008a0085 	addeq	r0, sl, r5, lsl #1
  307374:	0094008f 	addseq	r0, r4, pc, lsl #1
  307378:	009e0099 	umullseq	r0, lr, r9, r0
  30737c:	00a800a3 	adceq	r0, r8, r3, lsr #1
  307380:	00b200ad 	adcseq	r0, r2, sp, lsr #1
  307384:	00bc00b7 	ldrhteq	r0, [ip], r7
  307388:	00c700c1 	sbceq	r0, r7, r1, asr #1
  30738c:	00d100cc 	sbcseq	r0, r1, ip, asr #1
  307390:	4b5a      	ldr	r3, [pc, #360]	; (3074fc <clk_disable+0x1c4>)
  307392:	69da      	ldr	r2, [r3, #28]
  307394:	f022 0201 	bic.w	r2, r2, #1
  307398:	e099      	b.n	3074ce <clk_disable+0x196>
  30739a:	4b58      	ldr	r3, [pc, #352]	; (3074fc <clk_disable+0x1c4>)
  30739c:	69da      	ldr	r2, [r3, #28]
  30739e:	f022 0202 	bic.w	r2, r2, #2
  3073a2:	e094      	b.n	3074ce <clk_disable+0x196>
  3073a4:	4b55      	ldr	r3, [pc, #340]	; (3074fc <clk_disable+0x1c4>)
  3073a6:	69da      	ldr	r2, [r3, #28]
  3073a8:	f022 0204 	bic.w	r2, r2, #4
  3073ac:	e08f      	b.n	3074ce <clk_disable+0x196>
  3073ae:	4b53      	ldr	r3, [pc, #332]	; (3074fc <clk_disable+0x1c4>)
  3073b0:	69da      	ldr	r2, [r3, #28]
  3073b2:	f022 0208 	bic.w	r2, r2, #8
  3073b6:	e08a      	b.n	3074ce <clk_disable+0x196>
  3073b8:	4b50      	ldr	r3, [pc, #320]	; (3074fc <clk_disable+0x1c4>)
  3073ba:	69da      	ldr	r2, [r3, #28]
  3073bc:	f022 0210 	bic.w	r2, r2, #16
  3073c0:	e085      	b.n	3074ce <clk_disable+0x196>
  3073c2:	4b4e      	ldr	r3, [pc, #312]	; (3074fc <clk_disable+0x1c4>)
  3073c4:	69da      	ldr	r2, [r3, #28]
  3073c6:	f022 0220 	bic.w	r2, r2, #32
  3073ca:	e080      	b.n	3074ce <clk_disable+0x196>
  3073cc:	4b4b      	ldr	r3, [pc, #300]	; (3074fc <clk_disable+0x1c4>)
  3073ce:	69da      	ldr	r2, [r3, #28]
  3073d0:	f022 0240 	bic.w	r2, r2, #64	; 0x40
  3073d4:	e07b      	b.n	3074ce <clk_disable+0x196>
  3073d6:	4b49      	ldr	r3, [pc, #292]	; (3074fc <clk_disable+0x1c4>)
  3073d8:	69da      	ldr	r2, [r3, #28]
  3073da:	f022 0280 	bic.w	r2, r2, #128	; 0x80
  3073de:	e076      	b.n	3074ce <clk_disable+0x196>
  3073e0:	4b46      	ldr	r3, [pc, #280]	; (3074fc <clk_disable+0x1c4>)
  3073e2:	69da      	ldr	r2, [r3, #28]
  3073e4:	f422 7280 	bic.w	r2, r2, #256	; 0x100
  3073e8:	e071      	b.n	3074ce <clk_disable+0x196>
  3073ea:	4b44      	ldr	r3, [pc, #272]	; (3074fc <clk_disable+0x1c4>)
  3073ec:	69da      	ldr	r2, [r3, #28]
  3073ee:	f422 7200 	bic.w	r2, r2, #512	; 0x200
  3073f2:	e06c      	b.n	3074ce <clk_disable+0x196>
  3073f4:	4b41      	ldr	r3, [pc, #260]	; (3074fc <clk_disable+0x1c4>)
  3073f6:	69da      	ldr	r2, [r3, #28]
  3073f8:	f422 6280 	bic.w	r2, r2, #1024	; 0x400
  3073fc:	e067      	b.n	3074ce <clk_disable+0x196>
  3073fe:	4b3f      	ldr	r3, [pc, #252]	; (3074fc <clk_disable+0x1c4>)
  307400:	69da      	ldr	r2, [r3, #28]
  307402:	f422 6200 	bic.w	r2, r2, #2048	; 0x800
  307406:	e062      	b.n	3074ce <clk_disable+0x196>
  307408:	4b3c      	ldr	r3, [pc, #240]	; (3074fc <clk_disable+0x1c4>)
  30740a:	69da      	ldr	r2, [r3, #28]
  30740c:	f422 5280 	bic.w	r2, r2, #4096	; 0x1000
  307410:	e05d      	b.n	3074ce <clk_disable+0x196>
  307412:	4b3a      	ldr	r3, [pc, #232]	; (3074fc <clk_disable+0x1c4>)
  307414:	69da      	ldr	r2, [r3, #28]
  307416:	f422 5200 	bic.w	r2, r2, #8192	; 0x2000
  30741a:	e058      	b.n	3074ce <clk_disable+0x196>
  30741c:	4b37      	ldr	r3, [pc, #220]	; (3074fc <clk_disable+0x1c4>)
  30741e:	69da      	ldr	r2, [r3, #28]
  307420:	f422 4280 	bic.w	r2, r2, #16384	; 0x4000
  307424:	e053      	b.n	3074ce <clk_disable+0x196>
  307426:	4b35      	ldr	r3, [pc, #212]	; (3074fc <clk_disable+0x1c4>)
  307428:	69da      	ldr	r2, [r3, #28]
  30742a:	f422 4200 	bic.w	r2, r2, #32768	; 0x8000
  30742e:	e04e      	b.n	3074ce <clk_disable+0x196>
  307430:	4b32      	ldr	r3, [pc, #200]	; (3074fc <clk_disable+0x1c4>)
  307432:	69da      	ldr	r2, [r3, #28]
  307434:	f422 3280 	bic.w	r2, r2, #65536	; 0x10000
  307438:	e049      	b.n	3074ce <clk_disable+0x196>
  30743a:	4b30      	ldr	r3, [pc, #192]	; (3074fc <clk_disable+0x1c4>)
  30743c:	69da      	ldr	r2, [r3, #28]
  30743e:	f422 3200 	bic.w	r2, r2, #131072	; 0x20000
  307442:	e044      	b.n	3074ce <clk_disable+0x196>
  307444:	4b2d      	ldr	r3, [pc, #180]	; (3074fc <clk_disable+0x1c4>)
  307446:	69da      	ldr	r2, [r3, #28]
  307448:	f422 2280 	bic.w	r2, r2, #262144	; 0x40000
  30744c:	e03f      	b.n	3074ce <clk_disable+0x196>
  30744e:	4b2b      	ldr	r3, [pc, #172]	; (3074fc <clk_disable+0x1c4>)
  307450:	69da      	ldr	r2, [r3, #28]
  307452:	f422 2200 	bic.w	r2, r2, #524288	; 0x80000
  307456:	e03a      	b.n	3074ce <clk_disable+0x196>
  307458:	4b28      	ldr	r3, [pc, #160]	; (3074fc <clk_disable+0x1c4>)
  30745a:	69da      	ldr	r2, [r3, #28]
  30745c:	f422 1280 	bic.w	r2, r2, #1048576	; 0x100000
  307460:	e035      	b.n	3074ce <clk_disable+0x196>
  307462:	4b26      	ldr	r3, [pc, #152]	; (3074fc <clk_disable+0x1c4>)
  307464:	69da      	ldr	r2, [r3, #28]
  307466:	f422 1200 	bic.w	r2, r2, #2097152	; 0x200000
  30746a:	e030      	b.n	3074ce <clk_disable+0x196>
  30746c:	4b23      	ldr	r3, [pc, #140]	; (3074fc <clk_disable+0x1c4>)
  30746e:	69da      	ldr	r2, [r3, #28]
  307470:	f422 0280 	bic.w	r2, r2, #4194304	; 0x400000
  307474:	e02b      	b.n	3074ce <clk_disable+0x196>
  307476:	4b21      	ldr	r3, [pc, #132]	; (3074fc <clk_disable+0x1c4>)
  307478:	69da      	ldr	r2, [r3, #28]
  30747a:	f422 0200 	bic.w	r2, r2, #8388608	; 0x800000
  30747e:	e026      	b.n	3074ce <clk_disable+0x196>
  307480:	4b1e      	ldr	r3, [pc, #120]	; (3074fc <clk_disable+0x1c4>)
  307482:	69da      	ldr	r2, [r3, #28]
  307484:	f022 7280 	bic.w	r2, r2, #16777216	; 0x1000000
  307488:	e021      	b.n	3074ce <clk_disable+0x196>
  30748a:	4b1c      	ldr	r3, [pc, #112]	; (3074fc <clk_disable+0x1c4>)
  30748c:	69da      	ldr	r2, [r3, #28]
  30748e:	f022 7200 	bic.w	r2, r2, #33554432	; 0x2000000
  307492:	e01c      	b.n	3074ce <clk_disable+0x196>
  307494:	4b19      	ldr	r3, [pc, #100]	; (3074fc <clk_disable+0x1c4>)
  307496:	69da      	ldr	r2, [r3, #28]
  307498:	f022 6280 	bic.w	r2, r2, #67108864	; 0x4000000
  30749c:	e017      	b.n	3074ce <clk_disable+0x196>
  30749e:	4b17      	ldr	r3, [pc, #92]	; (3074fc <clk_disable+0x1c4>)
  3074a0:	69da      	ldr	r2, [r3, #28]
  3074a2:	f022 6200 	bic.w	r2, r2, #134217728	; 0x8000000
  3074a6:	e012      	b.n	3074ce <clk_disable+0x196>
  3074a8:	4b14      	ldr	r3, [pc, #80]	; (3074fc <clk_disable+0x1c4>)
  3074aa:	69da      	ldr	r2, [r3, #28]
  3074ac:	f022 5280 	bic.w	r2, r2, #268435456	; 0x10000000
  3074b0:	e00d      	b.n	3074ce <clk_disable+0x196>
  3074b2:	4b12      	ldr	r3, [pc, #72]	; (3074fc <clk_disable+0x1c4>)
  3074b4:	69da      	ldr	r2, [r3, #28]
  3074b6:	f022 5200 	bic.w	r2, r2, #536870912	; 0x20000000
  3074ba:	e008      	b.n	3074ce <clk_disable+0x196>
  3074bc:	4b0f      	ldr	r3, [pc, #60]	; (3074fc <clk_disable+0x1c4>)
  3074be:	69da      	ldr	r2, [r3, #28]
  3074c0:	f022 4280 	bic.w	r2, r2, #1073741824	; 0x40000000
  3074c4:	e003      	b.n	3074ce <clk_disable+0x196>
  3074c6:	4b0d      	ldr	r3, [pc, #52]	; (3074fc <clk_disable+0x1c4>)
  3074c8:	69da      	ldr	r2, [r3, #28]
  3074ca:	f022 4200 	bic.w	r2, r2, #2147483648	; 0x80000000
  3074ce:	61da      	str	r2, [r3, #28]
  3074d0:	e00e      	b.n	3074f0 <clk_disable+0x1b8>
  3074d2:	4b0a      	ldr	r3, [pc, #40]	; (3074fc <clk_disable+0x1c4>)
  3074d4:	6a1a      	ldr	r2, [r3, #32]
  3074d6:	f022 0201 	bic.w	r2, r2, #1
  3074da:	e008      	b.n	3074ee <clk_disable+0x1b6>
  3074dc:	4b07      	ldr	r3, [pc, #28]	; (3074fc <clk_disable+0x1c4>)
  3074de:	6a1a      	ldr	r2, [r3, #32]
  3074e0:	f022 0202 	bic.w	r2, r2, #2
  3074e4:	e003      	b.n	3074ee <clk_disable+0x1b6>
  3074e6:	4b05      	ldr	r3, [pc, #20]	; (3074fc <clk_disable+0x1c4>)
  3074e8:	6a1a      	ldr	r2, [r3, #32]
  3074ea:	f022 0204 	bic.w	r2, r2, #4
  3074ee:	621a      	str	r2, [r3, #32]
  3074f0:	2000      	movs	r0, #0
  3074f2:	4770      	bx	lr
  3074f4:	f06f 0001 	mvn.w	r0, #1
  3074f8:	4770      	bx	lr
  3074fa:	bf00      	nop
  3074fc:	c01d0000 	andsgt	r0, sp, r0

00307500 <clk_enable>:
  307500:	3801      	subs	r0, #1
  307502:	2825      	cmp	r0, #37	; 0x25
  307504:	f200 80da 	bhi.w	3076bc <clk_enable+0x1bc>
  307508:	e8df f010 	tbh	[pc, r0, lsl #1]
  30750c:	00d80026 	sbcseq	r0, r8, r6, lsr #32
  307510:	00d800d8 	ldrsbeq	r0, [r8], #8
  307514:	0030002b 	eorseq	r0, r0, fp, lsr #32
  307518:	003a0035 	eorseq	r0, sl, r5, lsr r0
  30751c:	0044003f 	subeq	r0, r4, pc, lsr r0
  307520:	004e0049 	subeq	r0, lr, r9, asr #32
  307524:	00580053 	subseq	r0, r8, r3, asr r0
  307528:	0062005d 	rsbeq	r0, r2, sp, asr r0
  30752c:	006c0067 	rsbeq	r0, ip, r7, rrx
  307530:	00760071 	rsbseq	r0, r6, r1, ror r0
  307534:	0080007b 	addeq	r0, r0, fp, ror r0
  307538:	008a0085 	addeq	r0, sl, r5, lsl #1
  30753c:	0094008f 	addseq	r0, r4, pc, lsl #1
  307540:	009e0099 	umullseq	r0, lr, r9, r0
  307544:	00a800a3 	adceq	r0, r8, r3, lsr #1
  307548:	00b200ad 	adcseq	r0, r2, sp, lsr #1
  30754c:	00bc00b7 	ldrhteq	r0, [ip], r7
  307550:	00c700c1 	sbceq	r0, r7, r1, asr #1
  307554:	00d100cc 	sbcseq	r0, r1, ip, asr #1
  307558:	4b5a      	ldr	r3, [pc, #360]	; (3076c4 <clk_enable+0x1c4>)
  30755a:	69da      	ldr	r2, [r3, #28]
  30755c:	f042 0201 	orr.w	r2, r2, #1
  307560:	e099      	b.n	307696 <clk_enable+0x196>
  307562:	4b58      	ldr	r3, [pc, #352]	; (3076c4 <clk_enable+0x1c4>)
  307564:	69da      	ldr	r2, [r3, #28]
  307566:	f042 0202 	orr.w	r2, r2, #2
  30756a:	e094      	b.n	307696 <clk_enable+0x196>
  30756c:	4b55      	ldr	r3, [pc, #340]	; (3076c4 <clk_enable+0x1c4>)
  30756e:	69da      	ldr	r2, [r3, #28]
  307570:	f042 0204 	orr.w	r2, r2, #4
  307574:	e08f      	b.n	307696 <clk_enable+0x196>
  307576:	4b53      	ldr	r3, [pc, #332]	; (3076c4 <clk_enable+0x1c4>)
  307578:	69da      	ldr	r2, [r3, #28]
  30757a:	f042 0208 	orr.w	r2, r2, #8
  30757e:	e08a      	b.n	307696 <clk_enable+0x196>
  307580:	4b50      	ldr	r3, [pc, #320]	; (3076c4 <clk_enable+0x1c4>)
  307582:	69da      	ldr	r2, [r3, #28]
  307584:	f042 0210 	orr.w	r2, r2, #16
  307588:	e085      	b.n	307696 <clk_enable+0x196>
  30758a:	4b4e      	ldr	r3, [pc, #312]	; (3076c4 <clk_enable+0x1c4>)
  30758c:	69da      	ldr	r2, [r3, #28]
  30758e:	f042 0220 	orr.w	r2, r2, #32
  307592:	e080      	b.n	307696 <clk_enable+0x196>
  307594:	4b4b      	ldr	r3, [pc, #300]	; (3076c4 <clk_enable+0x1c4>)
  307596:	69da      	ldr	r2, [r3, #28]
  307598:	f042 0240 	orr.w	r2, r2, #64	; 0x40
  30759c:	e07b      	b.n	307696 <clk_enable+0x196>
  30759e:	4b49      	ldr	r3, [pc, #292]	; (3076c4 <clk_enable+0x1c4>)
  3075a0:	69da      	ldr	r2, [r3, #28]
  3075a2:	f042 0280 	orr.w	r2, r2, #128	; 0x80
  3075a6:	e076      	b.n	307696 <clk_enable+0x196>
  3075a8:	4b46      	ldr	r3, [pc, #280]	; (3076c4 <clk_enable+0x1c4>)
  3075aa:	69da      	ldr	r2, [r3, #28]
  3075ac:	f442 7280 	orr.w	r2, r2, #256	; 0x100
  3075b0:	e071      	b.n	307696 <clk_enable+0x196>
  3075b2:	4b44      	ldr	r3, [pc, #272]	; (3076c4 <clk_enable+0x1c4>)
  3075b4:	69da      	ldr	r2, [r3, #28]
  3075b6:	f442 7200 	orr.w	r2, r2, #512	; 0x200
  3075ba:	e06c      	b.n	307696 <clk_enable+0x196>
  3075bc:	4b41      	ldr	r3, [pc, #260]	; (3076c4 <clk_enable+0x1c4>)
  3075be:	69da      	ldr	r2, [r3, #28]
  3075c0:	f442 6280 	orr.w	r2, r2, #1024	; 0x400
  3075c4:	e067      	b.n	307696 <clk_enable+0x196>
  3075c6:	4b3f      	ldr	r3, [pc, #252]	; (3076c4 <clk_enable+0x1c4>)
  3075c8:	69da      	ldr	r2, [r3, #28]
  3075ca:	f442 6200 	orr.w	r2, r2, #2048	; 0x800
  3075ce:	e062      	b.n	307696 <clk_enable+0x196>
  3075d0:	4b3c      	ldr	r3, [pc, #240]	; (3076c4 <clk_enable+0x1c4>)
  3075d2:	69da      	ldr	r2, [r3, #28]
  3075d4:	f442 5280 	orr.w	r2, r2, #4096	; 0x1000
  3075d8:	e05d      	b.n	307696 <clk_enable+0x196>
  3075da:	4b3a      	ldr	r3, [pc, #232]	; (3076c4 <clk_enable+0x1c4>)
  3075dc:	69da      	ldr	r2, [r3, #28]
  3075de:	f442 5200 	orr.w	r2, r2, #8192	; 0x2000
  3075e2:	e058      	b.n	307696 <clk_enable+0x196>
  3075e4:	4b37      	ldr	r3, [pc, #220]	; (3076c4 <clk_enable+0x1c4>)
  3075e6:	69da      	ldr	r2, [r3, #28]
  3075e8:	f442 4280 	orr.w	r2, r2, #16384	; 0x4000
  3075ec:	e053      	b.n	307696 <clk_enable+0x196>
  3075ee:	4b35      	ldr	r3, [pc, #212]	; (3076c4 <clk_enable+0x1c4>)
  3075f0:	69da      	ldr	r2, [r3, #28]
  3075f2:	f442 4200 	orr.w	r2, r2, #32768	; 0x8000
  3075f6:	e04e      	b.n	307696 <clk_enable+0x196>
  3075f8:	4b32      	ldr	r3, [pc, #200]	; (3076c4 <clk_enable+0x1c4>)
  3075fa:	69da      	ldr	r2, [r3, #28]
  3075fc:	f442 3280 	orr.w	r2, r2, #65536	; 0x10000
  307600:	e049      	b.n	307696 <clk_enable+0x196>
  307602:	4b30      	ldr	r3, [pc, #192]	; (3076c4 <clk_enable+0x1c4>)
  307604:	69da      	ldr	r2, [r3, #28]
  307606:	f442 3200 	orr.w	r2, r2, #131072	; 0x20000
  30760a:	e044      	b.n	307696 <clk_enable+0x196>
  30760c:	4b2d      	ldr	r3, [pc, #180]	; (3076c4 <clk_enable+0x1c4>)
  30760e:	69da      	ldr	r2, [r3, #28]
  307610:	f442 2280 	orr.w	r2, r2, #262144	; 0x40000
  307614:	e03f      	b.n	307696 <clk_enable+0x196>
  307616:	4b2b      	ldr	r3, [pc, #172]	; (3076c4 <clk_enable+0x1c4>)
  307618:	69da      	ldr	r2, [r3, #28]
  30761a:	f442 2200 	orr.w	r2, r2, #524288	; 0x80000
  30761e:	e03a      	b.n	307696 <clk_enable+0x196>
  307620:	4b28      	ldr	r3, [pc, #160]	; (3076c4 <clk_enable+0x1c4>)
  307622:	69da      	ldr	r2, [r3, #28]
  307624:	f442 1280 	orr.w	r2, r2, #1048576	; 0x100000
  307628:	e035      	b.n	307696 <clk_enable+0x196>
  30762a:	4b26      	ldr	r3, [pc, #152]	; (3076c4 <clk_enable+0x1c4>)
  30762c:	69da      	ldr	r2, [r3, #28]
  30762e:	f442 1200 	orr.w	r2, r2, #2097152	; 0x200000
  307632:	e030      	b.n	307696 <clk_enable+0x196>
  307634:	4b23      	ldr	r3, [pc, #140]	; (3076c4 <clk_enable+0x1c4>)
  307636:	69da      	ldr	r2, [r3, #28]
  307638:	f442 0280 	orr.w	r2, r2, #4194304	; 0x400000
  30763c:	e02b      	b.n	307696 <clk_enable+0x196>
  30763e:	4b21      	ldr	r3, [pc, #132]	; (3076c4 <clk_enable+0x1c4>)
  307640:	69da      	ldr	r2, [r3, #28]
  307642:	f442 0200 	orr.w	r2, r2, #8388608	; 0x800000
  307646:	e026      	b.n	307696 <clk_enable+0x196>
  307648:	4b1e      	ldr	r3, [pc, #120]	; (3076c4 <clk_enable+0x1c4>)
  30764a:	69da      	ldr	r2, [r3, #28]
  30764c:	f042 7280 	orr.w	r2, r2, #16777216	; 0x1000000
  307650:	e021      	b.n	307696 <clk_enable+0x196>
  307652:	4b1c      	ldr	r3, [pc, #112]	; (3076c4 <clk_enable+0x1c4>)
  307654:	69da      	ldr	r2, [r3, #28]
  307656:	f042 7200 	orr.w	r2, r2, #33554432	; 0x2000000
  30765a:	e01c      	b.n	307696 <clk_enable+0x196>
  30765c:	4b19      	ldr	r3, [pc, #100]	; (3076c4 <clk_enable+0x1c4>)
  30765e:	69da      	ldr	r2, [r3, #28]
  307660:	f042 6280 	orr.w	r2, r2, #67108864	; 0x4000000
  307664:	e017      	b.n	307696 <clk_enable+0x196>
  307666:	4b17      	ldr	r3, [pc, #92]	; (3076c4 <clk_enable+0x1c4>)
  307668:	69da      	ldr	r2, [r3, #28]
  30766a:	f042 6200 	orr.w	r2, r2, #134217728	; 0x8000000
  30766e:	e012      	b.n	307696 <clk_enable+0x196>
  307670:	4b14      	ldr	r3, [pc, #80]	; (3076c4 <clk_enable+0x1c4>)
  307672:	69da      	ldr	r2, [r3, #28]
  307674:	f042 5280 	orr.w	r2, r2, #268435456	; 0x10000000
  307678:	e00d      	b.n	307696 <clk_enable+0x196>
  30767a:	4b12      	ldr	r3, [pc, #72]	; (3076c4 <clk_enable+0x1c4>)
  30767c:	69da      	ldr	r2, [r3, #28]
  30767e:	f042 5200 	orr.w	r2, r2, #536870912	; 0x20000000
  307682:	e008      	b.n	307696 <clk_enable+0x196>
  307684:	4b0f      	ldr	r3, [pc, #60]	; (3076c4 <clk_enable+0x1c4>)
  307686:	69da      	ldr	r2, [r3, #28]
  307688:	f042 4280 	orr.w	r2, r2, #1073741824	; 0x40000000
  30768c:	e003      	b.n	307696 <clk_enable+0x196>
  30768e:	4b0d      	ldr	r3, [pc, #52]	; (3076c4 <clk_enable+0x1c4>)
  307690:	69da      	ldr	r2, [r3, #28]
  307692:	f042 4200 	orr.w	r2, r2, #2147483648	; 0x80000000
  307696:	61da      	str	r2, [r3, #28]
  307698:	e00e      	b.n	3076b8 <clk_enable+0x1b8>
  30769a:	4b0a      	ldr	r3, [pc, #40]	; (3076c4 <clk_enable+0x1c4>)
  30769c:	6a1a      	ldr	r2, [r3, #32]
  30769e:	f042 0201 	orr.w	r2, r2, #1
  3076a2:	e008      	b.n	3076b6 <clk_enable+0x1b6>
  3076a4:	4b07      	ldr	r3, [pc, #28]	; (3076c4 <clk_enable+0x1c4>)
  3076a6:	6a1a      	ldr	r2, [r3, #32]
  3076a8:	f042 0202 	orr.w	r2, r2, #2
  3076ac:	e003      	b.n	3076b6 <clk_enable+0x1b6>
  3076ae:	4b05      	ldr	r3, [pc, #20]	; (3076c4 <clk_enable+0x1c4>)
  3076b0:	6a1a      	ldr	r2, [r3, #32]
  3076b2:	f042 0204 	orr.w	r2, r2, #4
  3076b6:	621a      	str	r2, [r3, #32]
  3076b8:	2000      	movs	r0, #0
  3076ba:	4770      	bx	lr
  3076bc:	f06f 0001 	mvn.w	r0, #1
  3076c0:	4770      	bx	lr
  3076c2:	bf00      	nop
  3076c4:	c01d0000 	andsgt	r0, sp, r0

003076c8 <clk_get_rate_kHz>:
  3076c8:	b507      	push	{r0, r1, r2, lr}
  3076ca:	2826      	cmp	r0, #38	; 0x26
  3076cc:	d85a      	bhi.n	307784 <clk_get_rate_kHz+0xbc>
  3076ce:	e8df f000 	tbb	[pc, r0]
  3076d2:	2c2c1414 	cfstrscs	mvf1, [ip], #-80	; 0xffffffb0
  3076d6:	591f1f2c 	ldmdbpl	pc, {r2, r3, r5, r8, r9, sl, fp, ip}	; <UNPREDICTABLE>
  3076da:	592c362c 	stmdbpl	ip!, {r2, r3, r5, r9, sl, ip, sp}
  3076de:	592c2c59 	stmdbpl	ip!, {r0, r3, r4, r6, sl, fp, sp}
  3076e2:	59595959 	ldmdbpl	r9, {r0, r3, r4, r6, r8, fp, ip, lr}^
  3076e6:	2c2c2c59 	stccs	12, cr2, [ip], #-356	; 0xfffffe9c
  3076ea:	2c2c2c2c 	stccs	12, cr2, [ip], #-176	; 0xffffff50
  3076ee:	4747472c 	strbmi	r4, [r7, -ip, lsr #14]
  3076f2:	5959592c 	ldmdbpl	r9, {r2, r3, r5, r8, fp, ip, lr}^
  3076f6:	003c5959 	eorseq	r5, ip, r9, asr r9
  3076fa:	a902      	add	r1, sp, #8
  3076fc:	2300      	movs	r3, #0
  3076fe:	f841 3d04 	str.w	r3, [r1, #-4]!
  307702:	f7ff fc0e 	bl	306f22 <get_clk_div_value.constprop.0>
  307706:	2800      	cmp	r0, #0
  307708:	d13e      	bne.n	307788 <clk_get_rate_kHz+0xc0>
  30770a:	f7fa fbd3 	bl	301eb4 <pll0_get_rate_kHz>
  30770e:	e008      	b.n	307722 <clk_get_rate_kHz+0x5a>
  307710:	a902      	add	r1, sp, #8
  307712:	2300      	movs	r3, #0
  307714:	f841 3d04 	str.w	r3, [r1, #-4]!
  307718:	f7ff fc03 	bl	306f22 <get_clk_div_value.constprop.0>
  30771c:	bba0      	cbnz	r0, 307788 <clk_get_rate_kHz+0xc0>
  30771e:	f7fa fc25 	bl	301f6c <pll1_get_rate_kHz>
  307722:	9901      	ldr	r1, [sp, #4]
  307724:	f000 fbda 	bl	307edc <__aeabi_uidiv>
  307728:	e02e      	b.n	307788 <clk_get_rate_kHz+0xc0>
  30772a:	a902      	add	r1, sp, #8
  30772c:	2300      	movs	r3, #0
  30772e:	f841 3d04 	str.w	r3, [r1, #-4]!
  307732:	f7ff fbf6 	bl	306f22 <get_clk_div_value.constprop.0>
  307736:	bb38      	cbnz	r0, 307788 <clk_get_rate_kHz+0xc0>
  307738:	f7fa fc76 	bl	302028 <pll2_get_rate_kHz>
  30773c:	e7f1      	b.n	307722 <clk_get_rate_kHz+0x5a>
  30773e:	a902      	add	r1, sp, #8
  307740:	2300      	movs	r3, #0
  307742:	2009      	movs	r0, #9
  307744:	f841 3d04 	str.w	r3, [r1, #-4]!
  307748:	e004      	b.n	307754 <clk_get_rate_kHz+0x8c>
  30774a:	a902      	add	r1, sp, #8
  30774c:	2026      	movs	r0, #38	; 0x26
  30774e:	2300      	movs	r3, #0
  307750:	f841 3d04 	str.w	r3, [r1, #-4]!
  307754:	f7ff fbe5 	bl	306f22 <get_clk_div_value.constprop.0>
  307758:	b9b0      	cbnz	r0, 307788 <clk_get_rate_kHz+0xc0>
  30775a:	f7fa fcc7 	bl	3020ec <pll3_get_rate_kHz>
  30775e:	e7e0      	b.n	307722 <clk_get_rate_kHz+0x5a>
  307760:	a902      	add	r1, sp, #8
  307762:	2300      	movs	r3, #0
  307764:	f841 3d04 	str.w	r3, [r1, #-4]!
  307768:	f7ff fbdb 	bl	306f22 <get_clk_div_value.constprop.0>
  30776c:	b960      	cbnz	r0, 307788 <clk_get_rate_kHz+0xc0>
  30776e:	4b08      	ldr	r3, [pc, #32]	; (307790 <clk_get_rate_kHz+0xc8>)
  307770:	6edb      	ldr	r3, [r3, #108]	; 0x6c
  307772:	f003 030c 	and.w	r3, r3, #12
  307776:	2b08      	cmp	r3, #8
  307778:	d804      	bhi.n	307784 <clk_get_rate_kHz+0xbc>
  30777a:	4a06      	ldr	r2, [pc, #24]	; (307794 <clk_get_rate_kHz+0xcc>)
  30777c:	f932 0013 	ldrsh.w	r0, [r2, r3, lsl #1]
  307780:	2800      	cmp	r0, #0
  307782:	dace      	bge.n	307722 <clk_get_rate_kHz+0x5a>
  307784:	f06f 0001 	mvn.w	r0, #1
  307788:	b003      	add	sp, #12
  30778a:	f85d fb04 	ldr.w	pc, [sp], #4
  30778e:	bf00      	nop
  307790:	c01d0000 	andsgt	r0, sp, r0
  307794:	003007f8 	ldrshteq	r0, [r0], -r8

00307798 <clk_set_rate_kHz>:
  307798:	b538      	push	{r3, r4, r5, lr}
  30779a:	4605      	mov	r5, r0
  30779c:	460c      	mov	r4, r1
  30779e:	2826      	cmp	r0, #38	; 0x26
  3077a0:	d84e      	bhi.n	307840 <clk_set_rate_kHz+0xa8>
  3077a2:	e8df f000 	tbb	[pc, r0]
  3077a6:	1e1e1414 	cfmvrdlne	r1, mvd14
  3077aa:	4d19191e 	ldcmi	9, cr1, [r9, #-120]	; 0xffffff88
  3077ae:	4d1e231e 	ldcmi	3, cr2, [lr, #-120]	; 0xffffff88
  3077b2:	4d1e1e4d 	ldcmi	14, cr1, [lr, #-308]	; 0xfffffecc
  3077b6:	4d4d4d4d 	stclmi	13, cr4, [sp, #-308]	; 0xfffffecc
  3077ba:	1e1e1e4d 	cdpne	14, 1, cr1, cr14, cr13, {2}
  3077be:	1e1e1e1e 	mrcne	14, 0, r1, cr14, cr14, {0}
  3077c2:	3737371e 			; <UNDEFINED> instruction: 0x3737371e
  3077c6:	4d4d4d1e 	stclmi	13, cr4, [sp, #-120]	; 0xffffff88
  3077ca:	002d4d4d 	eoreq	r4, sp, sp, asr #26
  3077ce:	2900      	cmp	r1, #0
  3077d0:	dd36      	ble.n	307840 <clk_set_rate_kHz+0xa8>
  3077d2:	f7fa fb6f 	bl	301eb4 <pll0_get_rate_kHz>
  3077d6:	e02a      	b.n	30782e <clk_set_rate_kHz+0x96>
  3077d8:	2900      	cmp	r1, #0
  3077da:	dd31      	ble.n	307840 <clk_set_rate_kHz+0xa8>
  3077dc:	f7fa fbc6 	bl	301f6c <pll1_get_rate_kHz>
  3077e0:	e025      	b.n	30782e <clk_set_rate_kHz+0x96>
  3077e2:	2900      	cmp	r1, #0
  3077e4:	dd2c      	ble.n	307840 <clk_set_rate_kHz+0xa8>
  3077e6:	f7fa fc1f 	bl	302028 <pll2_get_rate_kHz>
  3077ea:	e020      	b.n	30782e <clk_set_rate_kHz+0x96>
  3077ec:	2900      	cmp	r1, #0
  3077ee:	dd27      	ble.n	307840 <clk_set_rate_kHz+0xa8>
  3077f0:	f7fa fc7c 	bl	3020ec <pll3_get_rate_kHz>
  3077f4:	4621      	mov	r1, r4
  3077f6:	f7ff fb87 	bl	306f08 <calc_div_value>
  3077fa:	4601      	mov	r1, r0
  3077fc:	2009      	movs	r0, #9
  3077fe:	e01b      	b.n	307838 <clk_set_rate_kHz+0xa0>
  307800:	2900      	cmp	r1, #0
  307802:	dd1d      	ble.n	307840 <clk_set_rate_kHz+0xa8>
  307804:	f7fa fc72 	bl	3020ec <pll3_get_rate_kHz>
  307808:	4621      	mov	r1, r4
  30780a:	f7ff fb7d 	bl	306f08 <calc_div_value>
  30780e:	4601      	mov	r1, r0
  307810:	2026      	movs	r0, #38	; 0x26
  307812:	e011      	b.n	307838 <clk_set_rate_kHz+0xa0>
  307814:	2900      	cmp	r1, #0
  307816:	dd13      	ble.n	307840 <clk_set_rate_kHz+0xa8>
  307818:	4b0b      	ldr	r3, [pc, #44]	; (307848 <clk_set_rate_kHz+0xb0>)
  30781a:	6edb      	ldr	r3, [r3, #108]	; 0x6c
  30781c:	f003 030c 	and.w	r3, r3, #12
  307820:	2b08      	cmp	r3, #8
  307822:	bf96      	itet	ls
  307824:	4a09      	ldrls	r2, [pc, #36]	; (30784c <clk_set_rate_kHz+0xb4>)
  307826:	f06f 0002 	mvnhi.w	r0, #2
  30782a:	f932 0013 	ldrshls.w	r0, [r2, r3, lsl #1]
  30782e:	4621      	mov	r1, r4
  307830:	f7ff fb6a 	bl	306f08 <calc_div_value>
  307834:	4601      	mov	r1, r0
  307836:	4628      	mov	r0, r5
  307838:	e8bd 4038 	ldmia.w	sp!, {r3, r4, r5, lr}
  30783c:	f7ff bbf0 	b.w	307020 <set_clk_div_value>
  307840:	f06f 0001 	mvn.w	r0, #1
  307844:	bd38      	pop	{r3, r4, r5, pc}
  307846:	bf00      	nop
  307848:	c01d0000 	andsgt	r0, sp, r0
  30784c:	003007f8 	ldrshteq	r0, [r0], -r8

00307850 <ddr_burst_write>:
  307850:	e92d1ff0 	push	{r4, r5, r6, r7, r8, r9, sl, fp, ip}
  307854:	e1a03002 	mov	r3, r2
  307858:	e1a04002 	mov	r4, r2
  30785c:	e1a05002 	mov	r5, r2
  307860:	e1a06002 	mov	r6, r2
  307864:	e1a07002 	mov	r7, r2
  307868:	e1a08002 	mov	r8, r2
  30786c:	e1a09002 	mov	r9, r2
  307870:	e1a0a002 	mov	sl, r2
  307874:	e1a0b002 	mov	fp, r2
  307878:	e1a0c002 	mov	ip, r2
  30787c:	e8801ff8 	stm	r0, {r3, r4, r5, r6, r7, r8, r9, sl, fp, ip}
  307880:	e8bd1ff0 	pop	{r4, r5, r6, r7, r8, r9, sl, fp, ip}
  307884:	e1a0f00e 	mov	pc, lr

00307888 <ddr_burst_read>:
  307888:	e92d1ff0 	push	{r4, r5, r6, r7, r8, r9, sl, fp, ip}
  30788c:	e8901ff8 	ldm	r0, {r3, r4, r5, r6, r7, r8, r9, sl, fp, ip}
  307890:	e8821ff8 	stm	r2, {r3, r4, r5, r6, r7, r8, r9, sl, fp, ip}
  307894:	e8bd1ff0 	pop	{r4, r5, r6, r7, r8, r9, sl, fp, ip}
  307898:	e1a0f00e 	mov	pc, lr

0030789c <lpddr_init>:
  30789c:	4a08      	ldr	r2, [pc, #32]	; (3078c0 <lpddr_init+0x24>)
  30789e:	2301      	movs	r3, #1
  3078a0:	b5f0      	push	{r4, r5, r6, r7, lr}
  3078a2:	f5a2 7235 	sub.w	r2, r2, #724	; 0x2d4
  3078a6:	f8c2 32d4 	str.w	r3, [r2, #724]	; 0x2d4
  3078aa:	b087      	sub	sp, #28
  3078ac:	6013      	str	r3, [r2, #0]
  3078ae:	4b05      	ldr	r3, [pc, #20]	; (3078c4 <lpddr_init+0x28>)
  3078b0:	681a      	ldr	r2, [r3, #0]
  3078b2:	9201      	str	r2, [sp, #4]
  3078b4:	461a      	mov	r2, r3
  3078b6:	9b01      	ldr	r3, [sp, #4]
  3078b8:	b133      	cbz	r3, 3078c8 <lpddr_init+0x2c>
  3078ba:	6813      	ldr	r3, [r2, #0]
  3078bc:	9301      	str	r3, [sp, #4]
  3078be:	e7fa      	b.n	3078b6 <lpddr_init+0x1a>
  3078c0:	c0190304 	andsgt	r0, r9, r4, lsl #6
  3078c4:	c0190004 	andsgt	r0, r9, r4
  3078c8:	4ab3      	ldr	r2, [pc, #716]	; (307b98 <lpddr_init+0x2fc>)
  3078ca:	f04f 7141 	mov.w	r1, #50593792	; 0x3040000
  3078ce:	4cb3      	ldr	r4, [pc, #716]	; (307b9c <lpddr_init+0x300>)
  3078d0:	2002      	movs	r0, #2
  3078d2:	3210      	adds	r2, #16
  3078d4:	250a      	movs	r5, #10
  3078d6:	f842 1c10 	str.w	r1, [r2, #-16]
  3078da:	3102      	adds	r1, #2
  3078dc:	f842 1c10 	str.w	r1, [r2, #-16]
  3078e0:	f240 2702 	movw	r7, #514	; 0x202
  3078e4:	f842 1c10 	str.w	r1, [r2, #-16]
  3078e8:	f247 0ca0 	movw	ip, #28832	; 0x70a0
  3078ec:	f842 1c10 	str.w	r1, [r2, #-16]
  3078f0:	f501 6180 	add.w	r1, r1, #1024	; 0x400
  3078f4:	f842 1c10 	str.w	r1, [r2, #-16]
  3078f8:	f842 1c10 	str.w	r1, [r2, #-16]
  3078fc:	f842 1c10 	str.w	r1, [r2, #-16]
  307900:	f5a1 3100 	sub.w	r1, r1, #131072	; 0x20000
  307904:	f842 1c10 	str.w	r1, [r2, #-16]
  307908:	f1a1 71ff 	sub.w	r1, r1, #33423360	; 0x1fe0000
  30790c:	f842 1c10 	str.w	r1, [r2, #-16]
  307910:	2130      	movs	r1, #48	; 0x30
  307912:	6011      	str	r1, [r2, #0]
  307914:	6011      	str	r1, [r2, #0]
  307916:	f501 41e0 	add.w	r1, r1, #28672	; 0x7000
  30791a:	6011      	str	r1, [r2, #0]
  30791c:	6011      	str	r1, [r2, #0]
  30791e:	6051      	str	r1, [r2, #4]
  307920:	499f      	ldr	r1, [pc, #636]	; (307ba0 <lpddr_init+0x304>)
  307922:	6113      	str	r3, [r2, #16]
  307924:	6113      	str	r3, [r2, #16]
  307926:	6151      	str	r1, [r2, #20]
  307928:	499e      	ldr	r1, [pc, #632]	; (307ba4 <lpddr_init+0x308>)
  30792a:	6213      	str	r3, [r2, #32]
  30792c:	6210      	str	r0, [r2, #32]
  30792e:	318c      	adds	r1, #140	; 0x8c
  307930:	6210      	str	r0, [r2, #32]
  307932:	6215      	str	r5, [r2, #32]
  307934:	6215      	str	r5, [r2, #32]
  307936:	f841 4c8c 	str.w	r4, [r1, #-140]
  30793a:	f5a4 64c0 	sub.w	r4, r4, #1536	; 0x600
  30793e:	f841 4c8c 	str.w	r4, [r1, #-140]
  307942:	f5a4 14a8 	sub.w	r4, r4, #1376256	; 0x150000
  307946:	f841 4c8c 	str.w	r4, [r1, #-140]
  30794a:	4c97      	ldr	r4, [pc, #604]	; (307ba8 <lpddr_init+0x30c>)
  30794c:	f841 0c88 	str.w	r0, [r1, #-136]
  307950:	f841 0c88 	str.w	r0, [r1, #-136]
  307954:	f841 4c88 	str.w	r4, [r1, #-136]
  307958:	f44f 1404 	mov.w	r4, #2162688	; 0x210000
  30795c:	f841 4c70 	str.w	r4, [r1, #-112]
  307960:	3420      	adds	r4, #32
  307962:	f841 4c70 	str.w	r4, [r1, #-112]
  307966:	f504 44e0 	add.w	r4, r4, #28672	; 0x7000
  30796a:	f841 4c70 	str.w	r4, [r1, #-112]
  30796e:	f504 0440 	add.w	r4, r4, #12582912	; 0xc00000
  307972:	f841 4c70 	str.w	r4, [r1, #-112]
  307976:	2412      	movs	r4, #18
  307978:	f841 4c6c 	str.w	r4, [r1, #-108]
  30797c:	f504 3440 	add.w	r4, r4, #196608	; 0x30000
  307980:	f841 4c6c 	str.w	r4, [r1, #-108]
  307984:	4c89      	ldr	r4, [pc, #548]	; (307bac <lpddr_init+0x310>)
  307986:	f841 3c60 	str.w	r3, [r1, #-96]
  30798a:	f841 3c60 	str.w	r3, [r1, #-96]
  30798e:	f841 4c5c 	str.w	r4, [r1, #-92]
  307992:	f5a4 04a4 	sub.w	r4, r4, #5373952	; 0x520000
  307996:	f841 4c5c 	str.w	r4, [r1, #-92]
  30799a:	4c85      	ldr	r4, [pc, #532]	; (307bb0 <lpddr_init+0x314>)
  30799c:	600b      	str	r3, [r1, #0]
  30799e:	600b      	str	r3, [r1, #0]
  3079a0:	600b      	str	r3, [r1, #0]
  3079a2:	610c      	str	r4, [r1, #16]
  3079a4:	f04f 1403 	mov.w	r4, #196611	; 0x30003
  3079a8:	610c      	str	r4, [r1, #16]
  3079aa:	f104 4480 	add.w	r4, r4, #1073741824	; 0x40000000
  3079ae:	610c      	str	r4, [r1, #16]
  3079b0:	2409      	movs	r4, #9
  3079b2:	614c      	str	r4, [r1, #20]
  3079b4:	614c      	str	r4, [r1, #20]
  3079b6:	f504 3480 	add.w	r4, r4, #65536	; 0x10000
  3079ba:	614c      	str	r4, [r1, #20]
  3079bc:	f640 5406 	movw	r4, #3334	; 0xd06
  3079c0:	618c      	str	r4, [r1, #24]
  3079c2:	f5a4 64a0 	sub.w	r4, r4, #1280	; 0x500
  3079c6:	618c      	str	r4, [r1, #24]
  3079c8:	f44f 1448 	mov.w	r4, #3276800	; 0x320000
  3079cc:	61cb      	str	r3, [r1, #28]
  3079ce:	61cc      	str	r4, [r1, #28]
  3079d0:	4c78      	ldr	r4, [pc, #480]	; (307bb4 <lpddr_init+0x318>)
  3079d2:	620b      	str	r3, [r1, #32]
  3079d4:	620b      	str	r3, [r1, #32]
  3079d6:	624c      	str	r4, [r1, #36]	; 0x24
  3079d8:	f5a4 2470 	sub.w	r4, r4, #983040	; 0xf0000
  3079dc:	624c      	str	r4, [r1, #36]	; 0x24
  3079de:	3130      	adds	r1, #48	; 0x30
  3079e0:	f240 646f 	movw	r4, #1647	; 0x66f
  3079e4:	600b      	str	r3, [r1, #0]
  3079e6:	600b      	str	r3, [r1, #0]
  3079e8:	604c      	str	r4, [r1, #4]
  3079ea:	f240 641f 	movw	r4, #1567	; 0x61f
  3079ee:	604c      	str	r4, [r1, #4]
  3079f0:	f504 64c0 	add.w	r4, r4, #1536	; 0x600
  3079f4:	604c      	str	r4, [r1, #4]
  3079f6:	4c70      	ldr	r4, [pc, #448]	; (307bb8 <lpddr_init+0x31c>)
  3079f8:	4e70      	ldr	r6, [pc, #448]	; (307bbc <lpddr_init+0x320>)
  3079fa:	610c      	str	r4, [r1, #16]
  3079fc:	f5a4 54b0 	sub.w	r4, r4, #5632	; 0x1600
  307a00:	610c      	str	r4, [r1, #16]
  307a02:	f5a4 1480 	sub.w	r4, r4, #1048576	; 0x100000
  307a06:	610c      	str	r4, [r1, #16]
  307a08:	f104 4474 	add.w	r4, r4, #4093640704	; 0xf4000000
  307a0c:	610c      	str	r4, [r1, #16]
  307a0e:	4c6c      	ldr	r4, [pc, #432]	; (307bc0 <lpddr_init+0x324>)
  307a10:	614c      	str	r4, [r1, #20]
  307a12:	f5a4 7440 	sub.w	r4, r4, #768	; 0x300
  307a16:	614c      	str	r4, [r1, #20]
  307a18:	f5a4 24e0 	sub.w	r4, r4, #458752	; 0x70000
  307a1c:	614c      	str	r4, [r1, #20]
  307a1e:	4c69      	ldr	r4, [pc, #420]	; (307bc4 <lpddr_init+0x328>)
  307a20:	618c      	str	r4, [r1, #24]
  307a22:	f5a4 7440 	sub.w	r4, r4, #768	; 0x300
  307a26:	618c      	str	r4, [r1, #24]
  307a28:	f5a4 3440 	sub.w	r4, r4, #196608	; 0x30000
  307a2c:	618c      	str	r4, [r1, #24]
  307a2e:	f104 447e 	add.w	r4, r4, #4261412864	; 0xfe000000
  307a32:	618c      	str	r4, [r1, #24]
  307a34:	311c      	adds	r1, #28
  307a36:	4c64      	ldr	r4, [pc, #400]	; (307bc8 <lpddr_init+0x32c>)
  307a38:	600c      	str	r4, [r1, #0]
  307a3a:	f5a4 5440 	sub.w	r4, r4, #12288	; 0x3000
  307a3e:	600c      	str	r4, [r1, #0]
  307a40:	f5a4 04a0 	sub.w	r4, r4, #5242880	; 0x500000
  307a44:	600c      	str	r4, [r1, #0]
  307a46:	4c61      	ldr	r4, [pc, #388]	; (307bcc <lpddr_init+0x330>)
  307a48:	604c      	str	r4, [r1, #4]
  307a4a:	f5a4 7440 	sub.w	r4, r4, #768	; 0x300
  307a4e:	604c      	str	r4, [r1, #4]
  307a50:	f5a4 3440 	sub.w	r4, r4, #196608	; 0x30000
  307a54:	604c      	str	r4, [r1, #4]
  307a56:	4c5e      	ldr	r4, [pc, #376]	; (307bd0 <lpddr_init+0x334>)
  307a58:	604c      	str	r4, [r1, #4]
  307a5a:	4c5e      	ldr	r4, [pc, #376]	; (307bd4 <lpddr_init+0x338>)
  307a5c:	608c      	str	r4, [r1, #8]
  307a5e:	f504 6420 	add.w	r4, r4, #2560	; 0xa00
  307a62:	608c      	str	r4, [r1, #8]
  307a64:	f504 3400 	add.w	r4, r4, #131072	; 0x20000
  307a68:	608c      	str	r4, [r1, #8]
  307a6a:	f104 64e0 	add.w	r4, r4, #117440512	; 0x7000000
  307a6e:	608c      	str	r4, [r1, #8]
  307a70:	4c59      	ldr	r4, [pc, #356]	; (307bd8 <lpddr_init+0x33c>)
  307a72:	60cc      	str	r4, [r1, #12]
  307a74:	f504 2480 	add.w	r4, r4, #262144	; 0x40000
  307a78:	60cc      	str	r4, [r1, #12]
  307a7a:	f104 6480 	add.w	r4, r4, #67108864	; 0x4000000
  307a7e:	60cc      	str	r4, [r1, #12]
  307a80:	f240 240d 	movw	r4, #525	; 0x20d
  307a84:	610c      	str	r4, [r1, #16]
  307a86:	f504 6420 	add.w	r4, r4, #2560	; 0xa00
  307a8a:	610c      	str	r4, [r1, #16]
  307a8c:	3114      	adds	r1, #20
  307a8e:	f244 440a 	movw	r4, #17418	; 0x440a
  307a92:	600c      	str	r4, [r1, #0]
  307a94:	f504 6440 	add.w	r4, r4, #3072	; 0xc00
  307a98:	600c      	str	r4, [r1, #0]
  307a9a:	f04f 7400 	mov.w	r4, #33554432	; 0x2000000
  307a9e:	660c      	str	r4, [r1, #96]	; 0x60
  307aa0:	3470      	adds	r4, #112	; 0x70
  307aa2:	660b      	str	r3, [r1, #96]	; 0x60
  307aa4:	660b      	str	r3, [r1, #96]	; 0x60
  307aa6:	660b      	str	r3, [r1, #96]	; 0x60
  307aa8:	660b      	str	r3, [r1, #96]	; 0x60
  307aaa:	664c      	str	r4, [r1, #100]	; 0x64
  307aac:	2470      	movs	r4, #112	; 0x70
  307aae:	664c      	str	r4, [r1, #100]	; 0x64
  307ab0:	4c4a      	ldr	r4, [pc, #296]	; (307bdc <lpddr_init+0x340>)
  307ab2:	668b      	str	r3, [r1, #104]	; 0x68
  307ab4:	670c      	str	r4, [r1, #112]	; 0x70
  307ab6:	f504 7480 	add.w	r4, r4, #256	; 0x100
  307aba:	670c      	str	r4, [r1, #112]	; 0x70
  307abc:	670c      	str	r4, [r1, #112]	; 0x70
  307abe:	f5a4 3400 	sub.w	r4, r4, #131072	; 0x20000
  307ac2:	670c      	str	r4, [r1, #112]	; 0x70
  307ac4:	670c      	str	r4, [r1, #112]	; 0x70
  307ac6:	f104 447b 	add.w	r4, r4, #4211081216	; 0xfb000000
  307aca:	670c      	str	r4, [r1, #112]	; 0x70
  307acc:	3174      	adds	r1, #116	; 0x74
  307ace:	f240 4402 	movw	r4, #1026	; 0x402
  307ad2:	600c      	str	r4, [r1, #0]
  307ad4:	f44f 7481 	mov.w	r4, #258	; 0x102
  307ad8:	600c      	str	r4, [r1, #0]
  307ada:	f504 3440 	add.w	r4, r4, #196608	; 0x30000
  307ade:	600c      	str	r4, [r1, #0]
  307ae0:	f04f 64e0 	mov.w	r4, #117440512	; 0x7000000
  307ae4:	604c      	str	r4, [r1, #4]
  307ae6:	3410      	adds	r4, #16
  307ae8:	604c      	str	r4, [r1, #4]
  307aea:	604c      	str	r4, [r1, #4]
  307aec:	f504 4450 	add.w	r4, r4, #53248	; 0xd000
  307af0:	604c      	str	r4, [r1, #4]
  307af2:	604c      	str	r4, [r1, #4]
  307af4:	604c      	str	r4, [r1, #4]
  307af6:	604c      	str	r4, [r1, #4]
  307af8:	4c39      	ldr	r4, [pc, #228]	; (307be0 <lpddr_init+0x344>)
  307afa:	60cc      	str	r4, [r1, #12]
  307afc:	60cc      	str	r4, [r1, #12]
  307afe:	60cc      	str	r4, [r1, #12]
  307b00:	240c      	movs	r4, #12
  307b02:	610c      	str	r4, [r1, #16]
  307b04:	f504 24a0 	add.w	r4, r4, #327680	; 0x50000
  307b08:	610c      	str	r4, [r1, #16]
  307b0a:	4c36      	ldr	r4, [pc, #216]	; (307be4 <lpddr_init+0x348>)
  307b0c:	614c      	str	r4, [r1, #20]
  307b0e:	4c36      	ldr	r4, [pc, #216]	; (307be8 <lpddr_init+0x34c>)
  307b10:	614c      	str	r4, [r1, #20]
  307b12:	f104 4400 	add.w	r4, r4, #2147483648	; 0x80000000
  307b16:	614c      	str	r4, [r1, #20]
  307b18:	3118      	adds	r1, #24
  307b1a:	4c34      	ldr	r4, [pc, #208]	; (307bec <lpddr_init+0x350>)
  307b1c:	600c      	str	r4, [r1, #0]
  307b1e:	f504 14f8 	add.w	r4, r4, #2031616	; 0x1f0000
  307b22:	600c      	str	r4, [r1, #0]
  307b24:	2401      	movs	r4, #1
  307b26:	6034      	str	r4, [r6, #0]
  307b28:	608f      	str	r7, [r1, #8]
  307b2a:	f240 1705 	movw	r7, #261	; 0x105
  307b2e:	6088      	str	r0, [r1, #8]
  307b30:	f04f 3001 	mov.w	r0, #16843009	; 0x1010101
  307b34:	60c8      	str	r0, [r1, #12]
  307b36:	60c8      	str	r0, [r1, #12]
  307b38:	60c8      	str	r0, [r1, #12]
  307b3a:	60c8      	str	r0, [r1, #12]
  307b3c:	f44f 1020 	mov.w	r0, #2621440	; 0x280000
  307b40:	6248      	str	r0, [r1, #36]	; 0x24
  307b42:	6248      	str	r0, [r1, #36]	; 0x24
  307b44:	6248      	str	r0, [r1, #36]	; 0x24
  307b46:	482a      	ldr	r0, [pc, #168]	; (307bf0 <lpddr_init+0x354>)
  307b48:	6248      	str	r0, [r1, #36]	; 0x24
  307b4a:	f640 70ff 	movw	r0, #4095	; 0xfff
  307b4e:	6288      	str	r0, [r1, #40]	; 0x28
  307b50:	f06f 20f0 	mvn.w	r0, #4026593280	; 0xf000f000
  307b54:	6288      	str	r0, [r1, #40]	; 0x28
  307b56:	4827      	ldr	r0, [pc, #156]	; (307bf4 <lpddr_init+0x358>)
  307b58:	62c8      	str	r0, [r1, #44]	; 0x2c
  307b5a:	f500 10d8 	add.w	r0, r0, #1769472	; 0x1b0000
  307b5e:	62c8      	str	r0, [r1, #44]	; 0x2c
  307b60:	201f      	movs	r0, #31
  307b62:	6548      	str	r0, [r1, #84]	; 0x54
  307b64:	3158      	adds	r1, #88	; 0x58
  307b66:	f44f 60e0 	mov.w	r0, #1792	; 0x700
  307b6a:	600b      	str	r3, [r1, #0]
  307b6c:	6008      	str	r0, [r1, #0]
  307b6e:	f500 10f8 	add.w	r0, r0, #2031616	; 0x1f0000
  307b72:	6008      	str	r0, [r1, #0]
  307b74:	2003      	movs	r0, #3
  307b76:	6048      	str	r0, [r1, #4]
  307b78:	6048      	str	r0, [r1, #4]
  307b7a:	6048      	str	r0, [r1, #4]
  307b7c:	f100 60e0 	add.w	r0, r0, #117440512	; 0x7000000
  307b80:	6048      	str	r0, [r1, #4]
  307b82:	f44f 3080 	mov.w	r0, #65536	; 0x10000
  307b86:	608b      	str	r3, [r1, #8]
  307b88:	608b      	str	r3, [r1, #8]
  307b8a:	6088      	str	r0, [r1, #8]
  307b8c:	f100 6070 	add.w	r0, r0, #251658240	; 0xf000000
  307b90:	6088      	str	r0, [r1, #8]
  307b92:	200f      	movs	r0, #15
  307b94:	e030      	b.n	307bf8 <lpddr_init+0x35c>
  307b96:	bf00      	nop
  307b98:	c0190000 	andsgt	r0, r9, r0
  307b9c:	00402003 	subeq	r2, r0, r3
  307ba0:	a94e5a1d 	stmdbge	lr, {r0, r2, r3, r4, r9, fp, ip, lr}^
  307ba4:	c0190034 	andsgt	r0, r9, r4, lsr r0
  307ba8:	00090002 	andeq	r0, r9, r2
  307bac:	0062000e 	rsbeq	r0, r2, lr
  307bb0:	00020003 	andeq	r0, r2, r3
  307bb4:	00100003 	andseq	r0, r0, r3
  307bb8:	0f101b04 	svceq	0x00101b04
  307bbc:	c01901b0 			; <UNDEFINED> instruction: 0xc01901b0
  307bc0:	00080406 	andeq	r0, r8, r6, lsl #8
  307bc4:	03050603 	movweq	r0, #22019	; 0x5603
  307bc8:	00504006 	subseq	r4, r0, r6
  307bcc:	05040402 	streq	r0, [r4, #-1026]	; 0x402
  307bd0:	02020102 	andeq	r0, r2, #-2147483648	; 0x80000000
  307bd4:	05050401 	streq	r0, [r5, #-1025]	; 0x401
  307bd8:	02020004 	andeq	r0, r2, #4
  307bdc:	07020000 	streq	r0, [r2, -r0]
  307be0:	00400003 	subeq	r0, r0, r3
  307be4:	8010014c 	andshi	r0, r0, ip, asr #2
  307be8:	8db7014c 	ldfhis	f0, [r7, #304]!	; 0x130
  307bec:	00100a67 	andseq	r0, r0, r7, ror #20
  307bf0:	03ea0000 	mvneq	r0, #0
  307bf4:	0027009f 	mlaeq	r7, pc, r0, r0	; <UNPREDICTABLE>
  307bf8:	60c8      	str	r0, [r1, #12]
  307bfa:	f500 6070 	add.w	r0, r0, #3840	; 0xf00
  307bfe:	60c8      	str	r0, [r1, #12]
  307c00:	2005      	movs	r0, #5
  307c02:	6108      	str	r0, [r1, #16]
  307c04:	610f      	str	r7, [r1, #16]
  307c06:	f507 27a0 	add.w	r7, r7, #327680	; 0x50000
  307c0a:	610f      	str	r7, [r1, #16]
  307c0c:	f107 67a0 	add.w	r7, r7, #83886080	; 0x5000000
  307c10:	610f      	str	r7, [r1, #16]
  307c12:	3114      	adds	r1, #20
  307c14:	6008      	str	r0, [r1, #0]
  307c16:	f500 60a0 	add.w	r0, r0, #1280	; 0x500
  307c1a:	6008      	str	r0, [r1, #0]
  307c1c:	f500 2070 	add.w	r0, r0, #983040	; 0xf0000
  307c20:	6008      	str	r0, [r1, #0]
  307c22:	f100 6070 	add.w	r0, r0, #251658240	; 0xf000000
  307c26:	6008      	str	r0, [r1, #0]
  307c28:	487f      	ldr	r0, [pc, #508]	; (307e28 <lpddr_init+0x58c>)
  307c2a:	4f80      	ldr	r7, [pc, #512]	; (307e2c <lpddr_init+0x590>)
  307c2c:	6288      	str	r0, [r1, #40]	; 0x28
  307c2e:	f5a0 7000 	sub.w	r0, r0, #512	; 0x200
  307c32:	6288      	str	r0, [r1, #40]	; 0x28
  307c34:	6288      	str	r0, [r1, #40]	; 0x28
  307c36:	f100 60c0 	add.w	r0, r0, #100663296	; 0x6000000
  307c3a:	6288      	str	r0, [r1, #40]	; 0x28
  307c3c:	f242 2010 	movw	r0, #8720	; 0x2210
  307c40:	62c8      	str	r0, [r1, #44]	; 0x2c
  307c42:	3010      	adds	r0, #16
  307c44:	62c8      	str	r0, [r1, #44]	; 0x2c
  307c46:	62c8      	str	r0, [r1, #44]	; 0x2c
  307c48:	f44f 7008 	mov.w	r0, #544	; 0x220
  307c4c:	62c8      	str	r0, [r1, #44]	; 0x2c
  307c4e:	30e5      	adds	r0, #229	; 0xe5
  307c50:	6388      	str	r0, [r1, #56]	; 0x38
  307c52:	3002      	adds	r0, #2
  307c54:	6388      	str	r0, [r1, #56]	; 0x38
  307c56:	f240 3003 	movw	r0, #771	; 0x303
  307c5a:	6388      	str	r0, [r1, #56]	; 0x38
  307c5c:	6388      	str	r0, [r1, #56]	; 0x38
  307c5e:	f500 0057 	add.w	r0, r0, #14090240	; 0xd70000
  307c62:	6388      	str	r0, [r1, #56]	; 0x38
  307c64:	4872      	ldr	r0, [pc, #456]	; (307e30 <lpddr_init+0x594>)
  307c66:	6388      	str	r0, [r1, #56]	; 0x38
  307c68:	20ff      	movs	r0, #255	; 0xff
  307c6a:	63c8      	str	r0, [r1, #60]	; 0x3c
  307c6c:	3144      	adds	r1, #68	; 0x44
  307c6e:	4871      	ldr	r0, [pc, #452]	; (307e34 <lpddr_init+0x598>)
  307c70:	6008      	str	r0, [r1, #0]
  307c72:	f100 40b2 	add.w	r0, r0, #1493172224	; 0x59000000
  307c76:	6008      	str	r0, [r1, #0]
  307c78:	486f      	ldr	r0, [pc, #444]	; (307e38 <lpddr_init+0x59c>)
  307c7a:	6088      	str	r0, [r1, #8]
  307c7c:	f100 405b 	add.w	r0, r0, #3674210304	; 0xdb000000
  307c80:	6088      	str	r0, [r1, #8]
  307c82:	486e      	ldr	r0, [pc, #440]	; (307e3c <lpddr_init+0x5a0>)
  307c84:	6108      	str	r0, [r1, #16]
  307c86:	f100 40ac 	add.w	r0, r0, #1442840576	; 0x56000000
  307c8a:	6108      	str	r0, [r1, #16]
  307c8c:	2004      	movs	r0, #4
  307c8e:	f8c1 30a4 	str.w	r3, [r1, #164]	; 0xa4
  307c92:	f8c1 30a4 	str.w	r3, [r1, #164]	; 0xa4
  307c96:	f8c1 00a4 	str.w	r0, [r1, #164]	; 0xa4
  307c9a:	2014      	movs	r0, #20
  307c9c:	f8c1 00a4 	str.w	r0, [r1, #164]	; 0xa4
  307ca0:	4867      	ldr	r0, [pc, #412]	; (307e40 <lpddr_init+0x5a4>)
  307ca2:	6003      	str	r3, [r0, #0]
  307ca4:	6003      	str	r3, [r0, #0]
  307ca6:	f8c1 30b0 	str.w	r3, [r1, #176]	; 0xb0
  307caa:	f8c1 30b0 	str.w	r3, [r1, #176]	; 0xb0
  307cae:	f8c1 30b0 	str.w	r3, [r1, #176]	; 0xb0
  307cb2:	f8c1 30b0 	str.w	r3, [r1, #176]	; 0xb0
  307cb6:	f8c1 40c4 	str.w	r4, [r1, #196]	; 0xc4
  307cba:	603c      	str	r4, [r7, #0]
  307cbc:	f8c7 c004 	str.w	ip, [r7, #4]
  307cc0:	f243 3c09 	movw	ip, #13065	; 0x3309
  307cc4:	f8c7 c008 	str.w	ip, [r7, #8]
  307cc8:	f8df c1e0 	ldr.w	ip, [pc, #480]	; 307eac <lpddr_init+0x610>
  307ccc:	f8c7 c094 	str.w	ip, [r7, #148]	; 0x94
  307cd0:	f8c7 4090 	str.w	r4, [r7, #144]	; 0x90
  307cd4:	2422      	movs	r4, #34	; 0x22
  307cd6:	6003      	str	r3, [r0, #0]
  307cd8:	6a10      	ldr	r0, [r2, #32]
  307cda:	6215      	str	r5, [r2, #32]
  307cdc:	6a10      	ldr	r0, [r2, #32]
  307cde:	2008      	movs	r0, #8
  307ce0:	6210      	str	r0, [r2, #32]
  307ce2:	4a58      	ldr	r2, [pc, #352]	; (307e44 <lpddr_init+0x5a8>)
  307ce4:	f8c1 30c4 	str.w	r3, [r1, #196]	; 0xc4
  307ce8:	6033      	str	r3, [r6, #0]
  307cea:	321c      	adds	r2, #28
  307cec:	f852 1c1c 	ldr.w	r1, [r2, #-28]
  307cf0:	4855      	ldr	r0, [pc, #340]	; (307e48 <lpddr_init+0x5ac>)
  307cf2:	9102      	str	r1, [sp, #8]
  307cf4:	f5a0 70d2 	sub.w	r0, r0, #420	; 0x1a4
  307cf8:	9902      	ldr	r1, [sp, #8]
  307cfa:	9102      	str	r1, [sp, #8]
  307cfc:	4953      	ldr	r1, [pc, #332]	; (307e4c <lpddr_init+0x5b0>)
  307cfe:	f842 1c1c 	str.w	r1, [r2, #-28]
  307d02:	4953      	ldr	r1, [pc, #332]	; (307e50 <lpddr_init+0x5b4>)
  307d04:	f8c0 11a4 	str.w	r1, [r0, #420]	; 0x1a4
  307d08:	f8c2 11dc 	str.w	r1, [r2, #476]	; 0x1dc
  307d0c:	f5a1 2190 	sub.w	r1, r1, #294912	; 0x48000
  307d10:	f8c0 11a4 	str.w	r1, [r0, #420]	; 0x1a4
  307d14:	f8c2 11dc 	str.w	r1, [r2, #476]	; 0x1dc
  307d18:	494e      	ldr	r1, [pc, #312]	; (307e54 <lpddr_init+0x5b8>)
  307d1a:	6011      	str	r1, [r2, #0]
  307d1c:	f644 0102 	movw	r1, #18434	; 0x4802
  307d20:	6051      	str	r1, [r2, #4]
  307d22:	f44f 6181 	mov.w	r1, #1032	; 0x408
  307d26:	60d1      	str	r1, [r2, #12]
  307d28:	494b      	ldr	r1, [pc, #300]	; (307e58 <lpddr_init+0x5bc>)
  307d2a:	f842 1c0c 	str.w	r1, [r2, #-12]
  307d2e:	f04f 1280 	mov.w	r2, #8388736	; 0x800080
  307d32:	494a      	ldr	r1, [pc, #296]	; (307e5c <lpddr_init+0x5c0>)
  307d34:	6002      	str	r2, [r0, #0]
  307d36:	4a4a      	ldr	r2, [pc, #296]	; (307e60 <lpddr_init+0x5c4>)
  307d38:	600a      	str	r2, [r1, #0]
  307d3a:	4a4a      	ldr	r2, [pc, #296]	; (307e64 <lpddr_init+0x5c8>)
  307d3c:	6014      	str	r4, [r2, #0]
  307d3e:	4c4a      	ldr	r4, [pc, #296]	; (307e68 <lpddr_init+0x5cc>)
  307d40:	6023      	str	r3, [r4, #0]
  307d42:	6063      	str	r3, [r4, #4]
  307d44:	60a3      	str	r3, [r4, #8]
  307d46:	4b49      	ldr	r3, [pc, #292]	; (307e6c <lpddr_init+0x5d0>)
  307d48:	4c49      	ldr	r4, [pc, #292]	; (307e70 <lpddr_init+0x5d4>)
  307d4a:	601c      	str	r4, [r3, #0]
  307d4c:	4c49      	ldr	r4, [pc, #292]	; (307e74 <lpddr_init+0x5d8>)
  307d4e:	605c      	str	r4, [r3, #4]
  307d50:	4c49      	ldr	r4, [pc, #292]	; (307e78 <lpddr_init+0x5dc>)
  307d52:	609c      	str	r4, [r3, #8]
  307d54:	4c49      	ldr	r4, [pc, #292]	; (307e7c <lpddr_init+0x5e0>)
  307d56:	f843 4c08 	str.w	r4, [r3, #-8]
  307d5a:	4b49      	ldr	r3, [pc, #292]	; (307e80 <lpddr_init+0x5e4>)
  307d5c:	6003      	str	r3, [r0, #0]
  307d5e:	4b49      	ldr	r3, [pc, #292]	; (307e84 <lpddr_init+0x5e8>)
  307d60:	600b      	str	r3, [r1, #0]
  307d62:	2333      	movs	r3, #51	; 0x33
  307d64:	6013      	str	r3, [r2, #0]
  307d66:	4b48      	ldr	r3, [pc, #288]	; (307e88 <lpddr_init+0x5ec>)
  307d68:	681a      	ldr	r2, [r3, #0]
  307d6a:	9203      	str	r2, [sp, #12]
  307d6c:	9a03      	ldr	r2, [sp, #12]
  307d6e:	07d0      	lsls	r0, r2, #31
  307d70:	d5fa      	bpl.n	307d68 <lpddr_init+0x4cc>
  307d72:	4b46      	ldr	r3, [pc, #280]	; (307e8c <lpddr_init+0x5f0>)
  307d74:	2261      	movs	r2, #97	; 0x61
  307d76:	4935      	ldr	r1, [pc, #212]	; (307e4c <lpddr_init+0x5b0>)
  307d78:	3308      	adds	r3, #8
  307d7a:	f843 2c08 	str.w	r2, [r3, #-8]
  307d7e:	681a      	ldr	r2, [r3, #0]
  307d80:	9203      	str	r2, [sp, #12]
  307d82:	4a30      	ldr	r2, [pc, #192]	; (307e44 <lpddr_init+0x5a8>)
  307d84:	6011      	str	r1, [r2, #0]
  307d86:	681a      	ldr	r2, [r3, #0]
  307d88:	9203      	str	r2, [sp, #12]
  307d8a:	9a03      	ldr	r2, [sp, #12]
  307d8c:	07d1      	lsls	r1, r2, #31
  307d8e:	d5fa      	bpl.n	307d86 <lpddr_init+0x4ea>
  307d90:	4b34      	ldr	r3, [pc, #208]	; (307e64 <lpddr_init+0x5c8>)
  307d92:	2223      	movs	r2, #35	; 0x23
  307d94:	493e      	ldr	r1, [pc, #248]	; (307e90 <lpddr_init+0x5f4>)
  307d96:	2008      	movs	r0, #8
  307d98:	4c3e      	ldr	r4, [pc, #248]	; (307e94 <lpddr_init+0x5f8>)
  307d9a:	601a      	str	r2, [r3, #0]
  307d9c:	2301      	movs	r3, #1
  307d9e:	4a3e      	ldr	r2, [pc, #248]	; (307e98 <lpddr_init+0x5fc>)
  307da0:	6023      	str	r3, [r4, #0]
  307da2:	6013      	str	r3, [r2, #0]
  307da4:	6008      	str	r0, [r1, #0]
  307da6:	6008      	str	r0, [r1, #0]
  307da8:	6008      	str	r0, [r1, #0]
  307daa:	630b      	str	r3, [r1, #48]	; 0x30
  307dac:	2100      	movs	r1, #0
  307dae:	6011      	str	r1, [r2, #0]
  307db0:	6021      	str	r1, [r4, #0]
  307db2:	6013      	str	r3, [r2, #0]
  307db4:	4b39      	ldr	r3, [pc, #228]	; (307e9c <lpddr_init+0x600>)
  307db6:	681a      	ldr	r2, [r3, #0]
  307db8:	9204      	str	r2, [sp, #16]
  307dba:	9a04      	ldr	r2, [sp, #16]
  307dbc:	2a01      	cmp	r2, #1
  307dbe:	d1fa      	bne.n	307db6 <lpddr_init+0x51a>
  307dc0:	4b20      	ldr	r3, [pc, #128]	; (307e44 <lpddr_init+0x5a8>)
  307dc2:	4a22      	ldr	r2, [pc, #136]	; (307e4c <lpddr_init+0x5b0>)
  307dc4:	3b04      	subs	r3, #4
  307dc6:	605a      	str	r2, [r3, #4]
  307dc8:	681a      	ldr	r2, [r3, #0]
  307dca:	9205      	str	r2, [sp, #20]
  307dcc:	9a05      	ldr	r2, [sp, #20]
  307dce:	2a00      	cmp	r2, #0
  307dd0:	d1fa      	bne.n	307dc8 <lpddr_init+0x52c>
  307dd2:	2203      	movs	r2, #3
  307dd4:	601a      	str	r2, [r3, #0]
  307dd6:	4a2d      	ldr	r2, [pc, #180]	; (307e8c <lpddr_init+0x5f0>)
  307dd8:	681b      	ldr	r3, [r3, #0]
  307dda:	9305      	str	r3, [sp, #20]
  307ddc:	9b05      	ldr	r3, [sp, #20]
  307dde:	b113      	cbz	r3, 307de6 <lpddr_init+0x54a>
  307de0:	6813      	ldr	r3, [r2, #0]
  307de2:	9305      	str	r3, [sp, #20]
  307de4:	e7fa      	b.n	307ddc <lpddr_init+0x540>
  307de6:	4b28      	ldr	r3, [pc, #160]	; (307e88 <lpddr_init+0x5ec>)
  307de8:	681a      	ldr	r2, [r3, #0]
  307dea:	9203      	str	r2, [sp, #12]
  307dec:	9a03      	ldr	r2, [sp, #12]
  307dee:	07d2      	lsls	r2, r2, #31
  307df0:	d5fa      	bpl.n	307de8 <lpddr_init+0x54c>
  307df2:	4b2b      	ldr	r3, [pc, #172]	; (307ea0 <lpddr_init+0x604>)
  307df4:	2000      	movs	r0, #0
  307df6:	4928      	ldr	r1, [pc, #160]	; (307e98 <lpddr_init+0x5fc>)
  307df8:	2208      	movs	r2, #8
  307dfa:	4d26      	ldr	r5, [pc, #152]	; (307e94 <lpddr_init+0x5f8>)
  307dfc:	2401      	movs	r4, #1
  307dfe:	6018      	str	r0, [r3, #0]
  307e00:	f843 2c30 	str.w	r2, [r3, #-48]
  307e04:	f843 2c30 	str.w	r2, [r3, #-48]
  307e08:	f843 2c30 	str.w	r2, [r3, #-48]
  307e0c:	6008      	str	r0, [r1, #0]
  307e0e:	602c      	str	r4, [r5, #0]
  307e10:	600c      	str	r4, [r1, #0]
  307e12:	f843 2c30 	str.w	r2, [r3, #-48]
  307e16:	f843 0c30 	str.w	r0, [r3, #-48]
  307e1a:	4a22      	ldr	r2, [pc, #136]	; (307ea4 <lpddr_init+0x608>)
  307e1c:	4b22      	ldr	r3, [pc, #136]	; (307ea8 <lpddr_init+0x60c>)
  307e1e:	6013      	str	r3, [r2, #0]
  307e20:	6413      	str	r3, [r2, #64]	; 0x40
  307e22:	b007      	add	sp, #28
  307e24:	bdf0      	pop	{r4, r5, r6, r7, pc}
  307e26:	bf00      	nop
  307e28:	04000410 	streq	r0, [r0], #-1040	; 0x410
  307e2c:	c0190400 	andsgt	r0, r9, r0, lsl #8
  307e30:	0b74ff05 	bleq	2047a4c <__bss_end__+0x1d3d648>
  307e34:	0f0080f8 	svceq	0x000080f8
  307e38:	0f003719 	svceq	0x00003719
  307e3c:	0f0089ed 	svceq	0x000089ed
  307e40:	c0190304 	andsgt	r0, r9, r4, lsl #6
  307e44:	c01a0008 	andsgt	r0, sl, r8
  307e48:	c01a01c0 	andsgt	r0, sl, r0, asr #3
  307e4c:	07842e05 	streq	r2, [r4, r5, lsl #28]
  307e50:	000d8e89 	andeq	r8, sp, r9, lsl #29
  307e54:	30c01813 	sbccc	r1, r0, r3, lsl r8
  307e58:	10000010 	andne	r0, r0, r0, lsl r0
  307e5c:	c01a0020 	andsgt	r0, sl, r0, lsr #32
  307e60:	00080421 	andeq	r0, r8, r1, lsr #8
  307e64:	c01a0040 	andsgt	r0, sl, r0, asr #32
  307e68:	c01a0044 	andsgt	r0, sl, r4, asr #32
  307e6c:	c01a0034 	andsgt	r0, sl, r4, lsr r0
  307e70:	1648334a 	strbne	r3, [r8], -sl, asr #6
  307e74:	161c3000 	ldrne	r3, [ip], -r0
  307e78:	10010802 	andne	r0, r1, r2, lsl #16
  307e7c:	fa00001f 	blx	307f00 <__aeabi_uidiv+0x24>
  307e80:	0600ac40 	streq	sl, [r0], -r0, asr #24
  307e84:	0190006e 	orrseq	r0, r0, lr, rrx
  307e88:	c01a000c 	andsgt	r0, sl, ip
  307e8c:	c01a0004 	andsgt	r0, sl, r4
  307e90:	c0190030 	andsgt	r0, r9, r0, lsr r0
  307e94:	c01901b0 			; <UNDEFINED> instruction: 0xc01901b0
  307e98:	c0190320 	andsgt	r0, r9, r0, lsr #6
  307e9c:	c0190324 	andsgt	r0, r9, r4, lsr #6
  307ea0:	c0190060 	andsgt	r0, r9, r0, rrx
  307ea4:	c01a01d4 			; <UNDEFINED> instruction: 0xc01a01d4
  307ea8:	3db09001 	ldccc	0, cr9, [r0, #4]!
  307eac:	0012000d 	andseq	r0, r2, sp

00307eb0 <ddrc_init>:
  307eb0:	b508      	push	{r3, lr}
  307eb2:	4808      	ldr	r0, [pc, #32]	; (307ed4 <ddrc_init+0x24>)
  307eb4:	f7fc fc98 	bl	3047e8 <fastboot_pll1_set>
  307eb8:	3001      	adds	r0, #1
  307eba:	d00a      	beq.n	307ed2 <ddrc_init+0x22>
  307ebc:	2005      	movs	r0, #5
  307ebe:	4906      	ldr	r1, [pc, #24]	; (307ed8 <ddrc_init+0x28>)
  307ec0:	f7ff fc6a 	bl	307798 <clk_set_rate_kHz>
  307ec4:	b928      	cbnz	r0, 307ed2 <ddrc_init+0x22>
  307ec6:	f7fe ffa8 	bl	306e1a <swrst_ddr_reset>
  307eca:	e8bd 4008 	ldmia.w	sp!, {r3, lr}
  307ece:	f7ff bce5 	b.w	30789c <lpddr_init>
  307ed2:	bd08      	pop	{r3, pc}
  307ed4:	000c3500 	andeq	r3, ip, r0, lsl #10
  307ed8:	00030d40 	andeq	r0, r3, r0, asr #26

00307edc <__aeabi_uidiv>:
  307edc:	1e4a      	subs	r2, r1, #1
  307ede:	bf08      	it	eq
  307ee0:	4770      	bxeq	lr
  307ee2:	d33d      	bcc.n	307f60 <__aeabi_uidiv+0x84>
  307ee4:	4288      	cmp	r0, r1
  307ee6:	d930      	bls.n	307f4a <__aeabi_uidiv+0x6e>
  307ee8:	4211      	tst	r1, r2
  307eea:	d032      	beq.n	307f52 <__aeabi_uidiv+0x76>
  307eec:	fab1 f381 	clz	r3, r1
  307ef0:	fab0 f280 	clz	r2, r0
  307ef4:	eba3 0202 	sub.w	r2, r3, r2
  307ef8:	f04f 0301 	mov.w	r3, #1
  307efc:	fa01 f102 	lsl.w	r1, r1, r2
  307f00:	fa03 f302 	lsl.w	r3, r3, r2
  307f04:	f04f 0200 	mov.w	r2, #0
  307f08:	4288      	cmp	r0, r1
  307f0a:	bf24      	itt	cs
  307f0c:	1a40      	subcs	r0, r0, r1
  307f0e:	431a      	orrcs	r2, r3
  307f10:	ebb0 0f51 	cmp.w	r0, r1, lsr #1
  307f14:	bf24      	itt	cs
  307f16:	eba0 0051 	subcs.w	r0, r0, r1, lsr #1
  307f1a:	ea42 0253 	orrcs.w	r2, r2, r3, lsr #1
  307f1e:	ebb0 0f91 	cmp.w	r0, r1, lsr #2
  307f22:	bf24      	itt	cs
  307f24:	eba0 0091 	subcs.w	r0, r0, r1, lsr #2
  307f28:	ea42 0293 	orrcs.w	r2, r2, r3, lsr #2
  307f2c:	ebb0 0fd1 	cmp.w	r0, r1, lsr #3
  307f30:	bf24      	itt	cs
  307f32:	eba0 00d1 	subcs.w	r0, r0, r1, lsr #3
  307f36:	ea42 02d3 	orrcs.w	r2, r2, r3, lsr #3
  307f3a:	2800      	cmp	r0, #0
  307f3c:	bf1c      	itt	ne
  307f3e:	ea5f 1313 	movsne.w	r3, r3, lsr #4
  307f42:	0909      	lsrne	r1, r1, #4
  307f44:	d1e0      	bne.n	307f08 <__aeabi_uidiv+0x2c>
  307f46:	4610      	mov	r0, r2
  307f48:	4770      	bx	lr
  307f4a:	bf0c      	ite	eq
  307f4c:	2001      	moveq	r0, #1
  307f4e:	2000      	movne	r0, #0
  307f50:	4770      	bx	lr
  307f52:	fab1 f281 	clz	r2, r1
  307f56:	f1c2 021f 	rsb	r2, r2, #31
  307f5a:	fa20 f002 	lsr.w	r0, r0, r2
  307f5e:	4770      	bx	lr
  307f60:	b108      	cbz	r0, 307f66 <__aeabi_uidiv+0x8a>
  307f62:	f04f 30ff 	mov.w	r0, #4294967295	; 0xffffffff
  307f66:	f000 b87f 	b.w	308068 <__aeabi_idiv0>
  307f6a:	bf00      	nop

00307f6c <__aeabi_uidivmod>:
  307f6c:	2900      	cmp	r1, #0
  307f6e:	d0f7      	beq.n	307f60 <__aeabi_uidiv+0x84>
  307f70:	e92d 4003 	stmdb	sp!, {r0, r1, lr}
  307f74:	f7ff ffb2 	bl	307edc <__aeabi_uidiv>
  307f78:	e8bd 4006 	ldmia.w	sp!, {r1, r2, lr}
  307f7c:	fb02 f300 	mul.w	r3, r2, r0
  307f80:	eba1 0103 	sub.w	r1, r1, r3
  307f84:	4770      	bx	lr
  307f86:	bf00      	nop

00307f88 <__aeabi_idiv>:
  307f88:	2900      	cmp	r1, #0
  307f8a:	d056      	beq.n	30803a <.divsi3_skip_div0_test+0xae>

00307f8c <.divsi3_skip_div0_test>:
  307f8c:	ea80 0c01 	eor.w	ip, r0, r1
  307f90:	bf48      	it	mi
  307f92:	4249      	negmi	r1, r1
  307f94:	1e4a      	subs	r2, r1, #1
  307f96:	d038      	beq.n	30800a <.divsi3_skip_div0_test+0x7e>
  307f98:	0003      	movs	r3, r0
  307f9a:	bf48      	it	mi
  307f9c:	4243      	negmi	r3, r0
  307f9e:	428b      	cmp	r3, r1
  307fa0:	d938      	bls.n	308014 <.divsi3_skip_div0_test+0x88>
  307fa2:	4211      	tst	r1, r2
  307fa4:	d03e      	beq.n	308024 <.divsi3_skip_div0_test+0x98>
  307fa6:	fab1 f281 	clz	r2, r1
  307faa:	fab3 f083 	clz	r0, r3
  307fae:	eba2 0000 	sub.w	r0, r2, r0
  307fb2:	f04f 0201 	mov.w	r2, #1
  307fb6:	fa01 f100 	lsl.w	r1, r1, r0
  307fba:	fa02 f200 	lsl.w	r2, r2, r0
  307fbe:	f04f 0000 	mov.w	r0, #0
  307fc2:	428b      	cmp	r3, r1
  307fc4:	bf24      	itt	cs
  307fc6:	1a5b      	subcs	r3, r3, r1
  307fc8:	4310      	orrcs	r0, r2
  307fca:	ebb3 0f51 	cmp.w	r3, r1, lsr #1
  307fce:	bf24      	itt	cs
  307fd0:	eba3 0351 	subcs.w	r3, r3, r1, lsr #1
  307fd4:	ea40 0052 	orrcs.w	r0, r0, r2, lsr #1
  307fd8:	ebb3 0f91 	cmp.w	r3, r1, lsr #2
  307fdc:	bf24      	itt	cs
  307fde:	eba3 0391 	subcs.w	r3, r3, r1, lsr #2
  307fe2:	ea40 0092 	orrcs.w	r0, r0, r2, lsr #2
  307fe6:	ebb3 0fd1 	cmp.w	r3, r1, lsr #3
  307fea:	bf24      	itt	cs
  307fec:	eba3 03d1 	subcs.w	r3, r3, r1, lsr #3
  307ff0:	ea40 00d2 	orrcs.w	r0, r0, r2, lsr #3
  307ff4:	2b00      	cmp	r3, #0
  307ff6:	bf1c      	itt	ne
  307ff8:	ea5f 1212 	movsne.w	r2, r2, lsr #4
  307ffc:	0909      	lsrne	r1, r1, #4
  307ffe:	d1e0      	bne.n	307fc2 <.divsi3_skip_div0_test+0x36>
  308000:	f1bc 0f00 	cmp.w	ip, #0
  308004:	bf48      	it	mi
  308006:	4240      	negmi	r0, r0
  308008:	4770      	bx	lr
  30800a:	ea9c 0f00 	teq	ip, r0
  30800e:	bf48      	it	mi
  308010:	4240      	negmi	r0, r0
  308012:	4770      	bx	lr
  308014:	bf38      	it	cc
  308016:	2000      	movcc	r0, #0
  308018:	bf04      	itt	eq
  30801a:	ea4f 70ec 	moveq.w	r0, ip, asr #31
  30801e:	f040 0001 	orreq.w	r0, r0, #1
  308022:	4770      	bx	lr
  308024:	fab1 f281 	clz	r2, r1
  308028:	f1c2 021f 	rsb	r2, r2, #31
  30802c:	f1bc 0f00 	cmp.w	ip, #0
  308030:	fa23 f002 	lsr.w	r0, r3, r2
  308034:	bf48      	it	mi
  308036:	4240      	negmi	r0, r0
  308038:	4770      	bx	lr
  30803a:	2800      	cmp	r0, #0
  30803c:	bfc8      	it	gt
  30803e:	f06f 4000 	mvngt.w	r0, #2147483648	; 0x80000000
  308042:	bfb8      	it	lt
  308044:	f04f 4000 	movlt.w	r0, #2147483648	; 0x80000000
  308048:	f000 b80e 	b.w	308068 <__aeabi_idiv0>

0030804c <__aeabi_idivmod>:
  30804c:	2900      	cmp	r1, #0
  30804e:	d0f4      	beq.n	30803a <.divsi3_skip_div0_test+0xae>
  308050:	e92d 4003 	stmdb	sp!, {r0, r1, lr}
  308054:	f7ff ff9a 	bl	307f8c <.divsi3_skip_div0_test>
  308058:	e8bd 4006 	ldmia.w	sp!, {r1, r2, lr}
  30805c:	fb02 f300 	mul.w	r3, r2, r0
  308060:	eba1 0103 	sub.w	r1, r1, r3
  308064:	4770      	bx	lr
  308066:	bf00      	nop

00308068 <__aeabi_idiv0>:
  308068:	4770      	bx	lr
  30806a:	bf00      	nop

0030806c <__aeabi_llsr>:
  30806c:	40d0      	lsrs	r0, r2
  30806e:	1c0b      	adds	r3, r1, #0
  308070:	40d1      	lsrs	r1, r2
  308072:	469c      	mov	ip, r3
  308074:	3a20      	subs	r2, #32
  308076:	40d3      	lsrs	r3, r2
  308078:	4318      	orrs	r0, r3
  30807a:	4252      	negs	r2, r2
  30807c:	4663      	mov	r3, ip
  30807e:	4093      	lsls	r3, r2
  308080:	4318      	orrs	r0, r3
  308082:	4770      	bx	lr
  308084:	0000      	movs	r0, r0
	...

00308088 <__do_exception_from_arm>:
  308088:	e51ff004 	ldr	pc, [pc, #-4]	; 30808c <__do_exception_from_arm+0x4>
  30808c:	00300319 	eorseq	r0, r0, r9, lsl r3

Disassembly of section .data:

00308090 <__data_start>:
  308090:	002f8000 	eoreq	r8, pc, r0

00308094 <pll3_ref_clk_khz>:
  308094:	0000fa00 	andeq	pc, r0, r0, lsl #20

00308098 <randomnum>:
  308098:	00000001 	andeq	r0, r0, r1

0030809c <select_id>:
  30809c:	ffffffff 			; <UNDEFINED> instruction: 0xffffffff

003080a0 <version_curr>:
  3080a0:	39313032 	ldmdbcc	r1!, {r1, r4, r5, ip, sp}
  3080a4:	33323031 	teqcc	r2, #49	; 0x31
	...

003080e0 <upgrade_recv_serial_buffer>:
  3080e0:	002a0000 	eoreq	r0, sl, r0

003080e4 <fl_info>:
  3080e4:	71353277 	teqvc	r5, r7, ror r2
  3080e8:	66363532 			; <UNDEFINED> instruction: 0x66363532
  3080ec:	00000076 	andeq	r0, r0, r6, ror r0
  3080f0:	00000000 	andeq	r0, r0, r0
  3080f4:	00ef4019 	rsceq	r4, pc, r9, lsl r0	; <UNPREDICTABLE>
  3080f8:	00010000 	andeq	r0, r1, r0
  3080fc:	00000200 	andeq	r0, r0, r0, lsl #4
  308100:	00305bad 	eorseq	r5, r0, sp, lsr #23
  308104:	00305bc1 	eorseq	r5, r0, r1, asr #23
  308108:	00305bd5 	ldrsbteq	r5, [r0], -r5
  30810c:	00305d27 	eorseq	r5, r0, r7, lsr #26
  308110:	00305db5 	ldrhteq	r5, [r0], -r5
  308114:	00305e39 	eorseq	r5, r0, r9, lsr lr
  308118:	00305ea5 	eorseq	r5, r0, r5, lsr #29
  30811c:	00305f0d 	eorseq	r5, r0, sp, lsl #30
  308120:	00305f3d 	eorseq	r5, r0, sp, lsr pc
  308124:	00305fad 	eorseq	r5, r0, sp, lsr #31
  308128:	0030603d 	eorseq	r6, r0, sp, lsr r0
  30812c:	0030608d 	eorseq	r6, r0, sp, lsl #1
  308130:	0030610d 	eorseq	r6, r0, sp, lsl #2
  308134:	00306149 	eorseq	r6, r0, r9, asr #2
  308138:	003060c1 	eorseq	r6, r0, r1, asr #1
  30813c:	00306181 	eorseq	r6, r0, r1, lsl #3
  308140:	0030618b 	eorseq	r6, r0, fp, lsl #3
  308144:	00306195 	mlaseq	r0, r5, r1, r6
	...

003081ac <rdch>:
  3081ac:	00000001 	andeq	r0, r0, r1

003081b0 <serial_irq_num>:
  3081b0:	07060504 	streq	r0, [r6, -r4, lsl #10]
  3081b4:	0b0a0908 	bleq	58a5dc <__bss_end__+0x2801d8>

Disassembly of section .bss:

003081b8 <__bss_start>:
  3081b8:	00000000 	andeq	r0, r0, r0

003081bc <mmu_enable_flag>:
  3081bc:	00000000 	andeq	r0, r0, r0

003081c0 <rd_in_buf>:
	...

003082c0 <mbr_dbuf>:
	...

003092c0 <bl2fw>:
	...

00309300 <bl2fw_hdr_dbuf>:
	...

00309500 <___strtok>:
  309500:	00000000 	andeq	r0, r0, r0

00309504 <hw_uart_upgrade>:
  309504:	00000000 	andeq	r0, r0, r0

00309508 <more_count>:
  309508:	00000000 	andeq	r0, r0, r0

0030950c <upgrade_state>:
  30950c:	00000000 	andeq	r0, r0, r0

00309510 <recv_data_len_total>:
  309510:	00000000 	andeq	r0, r0, r0

00309514 <exec_addr>:
  309514:	00000000 	andeq	r0, r0, r0

00309518 <upgrade_send_nack_total>:
  309518:	00000000 	andeq	r0, r0, r0

0030951c <stat_manager>:
	...

0030959c <local.4500>:
	...

003095c0 <qspi_rw_opt_pending>:
  3095c0:	00000000 	andeq	r0, r0, r0

003095c4 <qspi_rq_dlen>:
  3095c4:	00000000 	andeq	r0, r0, r0

003095c8 <qspi_rq_dbuf>:
  3095c8:	00000000 	andeq	r0, r0, r0

003095cc <irq_rw_dlen>:
  3095cc:	00000000 	andeq	r0, r0, r0

003095d0 <qspi_rd_thr_8>:
  3095d0:	00000000 	andeq	r0, r0, r0

003095d4 <using_irq_mode>:
  3095d4:	00000000 	andeq	r0, r0, r0

003095d8 <qspi_print_log>:
	...

003095e0 <timer_tick_save>:
	...

003095e8 <qspi_rd_dfs>:
  3095e8:	00000000 	andeq	r0, r0, r0

003095ec <qspi_rd_thr_en>:
	...

00309600 <dma_qspiflash_write_buf>:
	...

00309740 <fl_dev>:
  309740:	00000000 	andeq	r0, r0, r0

00309744 <dbuf>:
	...

00309f44 <wbuf_s>:
	...

0030a05c <dmac_en_flag>:
	...

0030a05e <dma_lli_func_flag>:
	...

0030a060 <ch_lli_addr>:
	...

0030a0a0 <dma_ch_busy_flag>:
	...

0030a0e0 <dma_ch_done>:
	...

0030a120 <wrch>:
	...

0030a140 <_in_buf_pong>:
	...

0030a240 <in_buf>:
	...

0030a340 <bbfw_bak>:
	...

0030a358 <bbfw_main>:
	...

0030a370 <reserved_save>:
  30a370:	00000000 	andeq	r0, r0, r0

0030a374 <upgrade_send_buffer>:
	...

0030a3f4 <ram_save_addr>:
  30a3f4:	00000000 	andeq	r0, r0, r0

0030a3f8 <upgrade_recv_data_len>:
  30a3f8:	00000000 	andeq	r0, r0, r0

0030a3fc <ram_save_len>:
  30a3fc:	00000000 	andeq	r0, r0, r0

0030a400 <upgrade_recv_data_type>:
  30a400:	00000000 	andeq	r0, r0, r0

Disassembly of section .comment:

00000000 <.comment>:
   0:	3a434347 	bcc	10d0d24 <__bss_end__+0xdc6920>
   4:	4e472820 	cdpmi	8, 4, cr2, cr7, cr0, {1}
   8:	34202955 	strtcc	r2, [r0], #-2389	; 0x955
   c:	Address 0x000000000000000c is out of bounds.


Disassembly of section .ARM.attributes:

00000000 <.ARM.attributes>:
   0:	00003041 	andeq	r3, r0, r1, asr #32
   4:	61656100 	cmnvs	r5, r0, lsl #2
   8:	01006962 	tsteq	r0, r2, ror #18
   c:	00000026 	andeq	r0, r0, r6, lsr #32
  10:	412d3705 	teqmi	sp, r5, lsl #14
  14:	070a0600 	streq	r0, [sl, -r0, lsl #12]
  18:	09010841 	stmdbeq	r1, {r0, r6, fp}
  1c:	12060a02 	andne	r0, r6, #8192	; 0x2000
  20:	15011404 	strne	r1, [r1, #-1028]	; 0x404
  24:	18031701 	stmdane	r3, {r0, r8, r9, sl, ip}
  28:	1b011a01 	blne	46834 <_start-0x2b97cc>
  2c:	22011c03 	andcs	r1, r1, #768	; 0x300
  30:	Address 0x0000000000000030 is out of bounds.


Disassembly of section .debug_frame:

00000000 <.debug_frame>:
   0:	0000000c 	andeq	r0, r0, ip
   4:	ffffffff 			; <UNDEFINED> instruction: 0xffffffff
   8:	7c010001 	stcvc	0, cr0, [r1], {1}
   c:	000d0c0e 	andeq	r0, sp, lr, lsl #24
  10:	0000000c 	andeq	r0, r0, ip
  14:	00000000 	andeq	r0, r0, r0
  18:	00307edd 	ldrsbteq	r7, [r0], -sp
  1c:	0000008e 	andeq	r0, r0, lr, lsl #1
  20:	0000000c 	andeq	r0, r0, ip
  24:	ffffffff 			; <UNDEFINED> instruction: 0xffffffff
  28:	7c010001 	stcvc	0, cr0, [r1], {1}
  2c:	000d0c0e 	andeq	r0, sp, lr, lsl #24
  30:	0000000c 	andeq	r0, r0, ip
  34:	00000020 	andeq	r0, r0, r0, lsr #32
  38:	00307f89 	eorseq	r7, r0, r9, lsl #31
  3c:	000000c4 	andeq	r0, r0, r4, asr #1

Disassembly of section .debug_line:

00000000 <.debug_line>:
   0:	0000009d 	muleq	r0, sp, r0
   4:	005d0002 	subseq	r0, sp, r2
   8:	01020000 	mrseq	r0, (UNDEF: 2)
   c:	000d0efb 	strdeq	r0, [sp], -fp
  10:	01010101 	tsteq	r1, r1, lsl #2
  14:	01000000 	mrseq	r0, (UNDEF: 0)
  18:	2f010000 	svccs	0x00010000
  1c:	2f706d74 	svccs	0x00706d74
  20:	50534f41 	subspl	r4, r3, r1, asr #30
  24:	6f6f742d 	svcvs	0x006f742d
  28:	6168636c 	cmnvs	r8, ip, ror #6
  2c:	622f6e69 	eorvs	r6, pc, #1680	; 0x690
  30:	646c6975 	strbtvs	r6, [ip], #-2421	; 0x975
  34:	2f2e2e2f 	svccs	0x002e2e2f
  38:	2f636367 	svccs	0x00636367
  3c:	2d636367 	stclcs	3, cr6, [r3, #-412]!	; 0xfffffe64
  40:	2f382e34 	svccs	0x00382e34
  44:	6762696c 	strbvs	r6, [r2, -ip, ror #18]!
  48:	632f6363 	teqvs	pc, #-1946157055	; 0x8c000001
  4c:	69666e6f 	stmdbvs	r6!, {r0, r1, r2, r3, r5, r6, r9, sl, fp, sp, lr}^
  50:	72612f67 	rsbvc	r2, r1, #412	; 0x19c
  54:	6c00006d 	stcvs	0, cr0, [r0], {109}	; 0x6d
  58:	66316269 	ldrtvs	r6, [r1], -r9, ror #4
  5c:	73636e75 	cmnvc	r3, #1872	; 0x750
  60:	0100532e 	tsteq	r0, lr, lsr #6
  64:	00000000 	andeq	r0, r0, r0
  68:	7edc0205 	cdpvc	2, 13, cr0, cr12, cr5, {0}
  6c:	cf030030 	svcgt	0x00030030
  70:	21210107 	teqcs	r1, r7, lsl #2
  74:	21212121 	teqcs	r1, r1, lsr #2
  78:	7cf40321 	ldclvc	3, cr0, [r4], #132	; 0x84
  7c:	d6290320 	strtle	r0, [r9], -r0, lsr #6
  80:	0802e703 	stmdaeq	r2, {r0, r1, r8, r9, sl, sp, lr, pc}
  84:	212221d6 	ldrdcs	r2, [r2, -r6]!
  88:	4c222121 	stfmis	f2, [r2], #-132	; 0xffffff7c
  8c:	7aeb032f 	bvc	ffac0d50 <__bss_end__+0xff7b694c>
  90:	05af0320 	streq	r0, [pc, #800]!	; 3b8 <_start-0x2ffc48>
  94:	2f212166 	svccs	0x00212166
  98:	2f2f2f2f 	svccs	0x002f2f2f
  9c:	01000102 	tsteq	r0, r2, lsl #2
  a0:	0000ae01 	andeq	sl, r0, r1, lsl #28
  a4:	5d000200 	sfmpl	f0, 4, [r0, #-0]
  a8:	02000000 	andeq	r0, r0, #0
  ac:	0d0efb01 	vstreq	d15, [lr, #-4]
  b0:	01010100 	mrseq	r0, (UNDEF: 17)
  b4:	00000001 	andeq	r0, r0, r1
  b8:	01000001 	tsteq	r0, r1
  bc:	706d742f 	rsbvc	r7, sp, pc, lsr #8
  c0:	534f412f 	movtpl	r4, #61743	; 0xf12f
  c4:	6f742d50 	svcvs	0x00742d50
  c8:	68636c6f 	stmdavs	r3!, {r0, r1, r2, r3, r5, r6, sl, fp, sp, lr}^
  cc:	2f6e6961 	svccs	0x006e6961
  d0:	6c697562 	cfstr64vs	mvdx7, [r9], #-392	; 0xfffffe78
  d4:	2e2e2f64 	cdpcs	15, 2, cr2, cr14, cr4, {3}
  d8:	6363672f 	cmnvs	r3, #12320768	; 0xbc0000
  dc:	6363672f 	cmnvs	r3, #12320768	; 0xbc0000
  e0:	382e342d 	stmdacc	lr!, {r0, r2, r3, r5, sl, ip, sp}
  e4:	62696c2f 	rsbvs	r6, r9, #12032	; 0x2f00
  e8:	2f636367 	svccs	0x00636367
  ec:	666e6f63 	strbtvs	r6, [lr], -r3, ror #30
  f0:	612f6769 	teqvs	pc, r9, ror #14
  f4:	00006d72 	andeq	r6, r0, r2, ror sp
  f8:	3162696c 	cmncc	r2, ip, ror #18
  fc:	636e7566 	cmnvs	lr, #427819008	; 0x19800000
 100:	00532e73 	subseq	r2, r3, r3, ror lr
 104:	00000001 	andeq	r0, r0, r1
 108:	88020500 	stmdahi	r2, {r8, sl}
 10c:	0300307f 	movweq	r3, #127	; 0x7f
 110:	210108f6 	strdcs	r0, [r1, -r6]
 114:	21212f22 	teqcs	r1, r2, lsr #30
 118:	21212121 	teqcs	r1, r1, lsr #2
 11c:	21212121 	teqcs	r1, r1, lsr #2
 120:	207bc603 	rsbscs	ip, fp, r3, lsl #12
 124:	03d62903 	bicseq	r2, r6, #49152	; 0xc000
 128:	d6080495 			; <UNDEFINED> instruction: 0xd6080495
 12c:	2221212f 	eorcs	r2, r1, #-1073741813	; 0xc000000b
 130:	2221212f 	eorcs	r2, r1, #-1073741813	; 0xc000000b
 134:	2f212121 	svccs	0x00212121
 138:	2f4c222f 	svccs	0x004c222f
 13c:	0321212f 	teqeq	r1, #-1073741813	; 0xc000000b
 140:	032079b1 	teqeq	r0, #2899968	; 0x2c4000
 144:	219006e9 	orrscs	r0, r0, r9, ror #13
 148:	2f2f2f21 	svccs	0x002f2f21
 14c:	01022f2f 	tsteq	r2, pc, lsr #30
 150:	73010100 	movwvc	r0, #4352	; 0x1100
 154:	02000000 	andeq	r0, r0, #0
 158:	00005d00 	andeq	r5, r0, r0, lsl #26
 15c:	fb010200 	blx	40966 <_start-0x2bf69a>
 160:	01000d0e 	tsteq	r0, lr, lsl #26
 164:	00010101 	andeq	r0, r1, r1, lsl #2
 168:	00010000 	andeq	r0, r1, r0
 16c:	742f0100 	strtvc	r0, [pc], #-256	; 174 <_start-0x2ffe8c>
 170:	412f706d 	teqmi	pc, sp, rrx
 174:	2d50534f 	ldclcs	3, cr5, [r0, #-316]	; 0xfffffec4
 178:	6c6f6f74 	stclvs	15, cr6, [pc], #-464	; ffffffb0 <__bss_end__+0xffcf5bac>
 17c:	69616863 	stmdbvs	r1!, {r0, r1, r5, r6, fp, sp, lr}^
 180:	75622f6e 	strbvc	r2, [r2, #-3950]!	; 0xf6e
 184:	2f646c69 	svccs	0x00646c69
 188:	672f2e2e 	strvs	r2, [pc, -lr, lsr #28]!
 18c:	672f6363 	strvs	r6, [pc, -r3, ror #6]!
 190:	342d6363 	strtcc	r6, [sp], #-867	; 0x363
 194:	6c2f382e 	stcvs	8, cr3, [pc], #-184	; e4 <_start-0x2fff1c>
 198:	63676269 	cmnvs	r7, #-1879048186	; 0x90000006
 19c:	6f632f63 	svcvs	0x00632f63
 1a0:	6769666e 	strbvs	r6, [r9, -lr, ror #12]!
 1a4:	6d72612f 	ldfvse	f6, [r2, #-188]!	; 0xffffff44
 1a8:	696c0000 	stmdbvs	ip!, {}^	; <UNPREDICTABLE>
 1ac:	75663162 	strbvc	r3, [r6, #-354]!	; 0x162
 1b0:	2e73636e 	cdpcs	3, 7, cr6, cr3, cr14, {3}
 1b4:	00010053 	andeq	r0, r1, r3, asr r0
 1b8:	05000000 	streq	r0, [r0, #-0]
 1bc:	30806802 	addcc	r6, r0, r2, lsl #16
 1c0:	0a960300 	beq	fe580dc8 <__bss_end__+0xfe2769c4>
 1c4:	00010201 	andeq	r0, r1, r1, lsl #4
 1c8:	007e0101 	rsbseq	r0, lr, r1, lsl #2
 1cc:	00020000 	andeq	r0, r2, r0
 1d0:	0000005d 	andeq	r0, r0, sp, asr r0
 1d4:	0efb0102 	cdpeq	1, 15, cr0, cr11, cr2, {0}
 1d8:	0101000d 	tsteq	r1, sp
 1dc:	00000101 	andeq	r0, r0, r1, lsl #2
 1e0:	00000100 	andeq	r0, r0, r0, lsl #2
 1e4:	6d742f01 	ldclvs	15, cr2, [r4, #-4]!
 1e8:	4f412f70 	svcmi	0x00412f70
 1ec:	742d5053 	strtvc	r5, [sp], #-83	; 0x53
 1f0:	636c6f6f 	cmnvs	ip, #444	; 0x1bc
 1f4:	6e696168 	powvsez	f6, f1, #0.0
 1f8:	6975622f 	ldmdbvs	r5!, {r0, r1, r2, r3, r5, r9, sp, lr}^
 1fc:	2e2f646c 	cdpcs	4, 2, cr6, cr15, cr12, {3}
 200:	63672f2e 	cmnvs	r7, #46, 30	; 0xb8
 204:	63672f63 	cmnvs	r7, #396	; 0x18c
 208:	2e342d63 	cdpcs	13, 3, cr2, cr4, cr3, {3}
 20c:	696c2f38 	stmdbvs	ip!, {r3, r4, r5, r8, r9, sl, fp, sp}^
 210:	63636762 	cmnvs	r3, #25690112	; 0x1880000
 214:	6e6f632f 	cdpvs	3, 6, cr6, cr15, cr15, {1}
 218:	2f676966 	svccs	0x00676966
 21c:	006d7261 	rsbeq	r7, sp, r1, ror #4
 220:	62696c00 	rsbvs	r6, r9, #0, 24
 224:	6e756631 	mrcvs	6, 3, r6, cr5, cr1, {1}
 228:	532e7363 	teqpl	lr, #-1946157055	; 0x8c000001
 22c:	00000100 	andeq	r0, r0, r0, lsl #2
 230:	02050000 	andeq	r0, r5, #0
 234:	0030806c 	eorseq	r8, r0, ip, rrx
 238:	010af203 	tsteq	sl, r3, lsl #4
 23c:	21212121 	teqcs	r1, r1, lsr #2
 240:	21212121 	teqcs	r1, r1, lsr #2
 244:	02212121 	eoreq	r2, r1, #1073741832	; 0x40000008
 248:	01010001 	tsteq	r1, r1

Disassembly of section .debug_info:

00000000 <.debug_info>:
   0:	000000aa 	andeq	r0, r0, sl, lsr #1
   4:	00000002 	andeq	r0, r0, r2
   8:	01040000 	mrseq	r0, (UNDEF: 4)
   c:	00000000 	andeq	r0, r0, r0
  10:	00307edc 	ldrsbteq	r7, [r0], -ip
  14:	00307f86 	eorseq	r7, r0, r6, lsl #31
  18:	706d742f 	rsbvc	r7, sp, pc, lsr #8
  1c:	534f412f 	movtpl	r4, #61743	; 0xf12f
  20:	6f742d50 	svcvs	0x00742d50
  24:	68636c6f 	stmdavs	r3!, {r0, r1, r2, r3, r5, r6, sl, fp, sp, lr}^
  28:	2f6e6961 	svccs	0x006e6961
  2c:	6c697562 	cfstr64vs	mvdx7, [r9], #-392	; 0xfffffe78
  30:	2e2e2f64 	cdpcs	15, 2, cr2, cr14, cr4, {3}
  34:	6363672f 	cmnvs	r3, #12320768	; 0xbc0000
  38:	6363672f 	cmnvs	r3, #12320768	; 0xbc0000
  3c:	382e342d 	stmdacc	lr!, {r0, r2, r3, r5, sl, ip, sp}
  40:	62696c2f 	rsbvs	r6, r9, #12032	; 0x2f00
  44:	2f636367 	svccs	0x00636367
  48:	666e6f63 	strbtvs	r6, [lr], -r3, ror #30
  4c:	612f6769 	teqvs	pc, r9, ror #14
  50:	6c2f6d72 	stcvs	13, cr6, [pc], #-456	; fffffe90 <__bss_end__+0xffcf5a8c>
  54:	66316269 	ldrtvs	r6, [r1], -r9, ror #4
  58:	73636e75 	cmnvc	r3, #1872	; 0x750
  5c:	2f00532e 	svccs	0x0000532e
  60:	2f706d74 	svccs	0x00706d74
  64:	6c6f6f74 	stclvs	15, cr6, [pc], #-464	; fffffe9c <__bss_end__+0xffcf5a98>
  68:	69616863 	stmdbvs	r1!, {r0, r1, r5, r6, fp, sp, lr}^
  6c:	75622d6e 	strbvc	r2, [r2, #-3438]!	; 0xd6e
  70:	2d646c69 	stclcs	12, cr6, [r4, #-420]!	; 0xfffffe5c
  74:	69626165 	stmdbvs	r2!, {r0, r2, r5, r6, r8, sp, lr}^
  78:	6363672f 	cmnvs	r3, #12320768	; 0xbc0000
  7c:	382e342d 	stmdacc	lr!, {r0, r2, r3, r5, sl, ip, sp}
  80:	6d72612f 	ldfvse	f6, [r2, #-188]!	; 0xffffff44
  84:	6261652d 	rsbvs	r6, r1, #188743680	; 0xb400000
  88:	68742f69 	ldmdavs	r4!, {r0, r3, r5, r6, r8, r9, sl, fp, sp}^
  8c:	2f626d75 	svccs	0x00626d75
  90:	6d756874 	ldclvs	8, cr6, [r5, #-464]!	; 0xfffffe30
  94:	6c2f3262 	sfmvs	f3, 4, [pc], #-392	; ffffff14 <__bss_end__+0xffcf5b10>
  98:	63676269 	cmnvs	r7, #-1879048186	; 0x90000006
  9c:	4e470063 	cdpmi	0, 4, cr0, cr7, cr3, {3}
  a0:	53412055 	movtpl	r2, #4181	; 0x1055
  a4:	322e3220 	eorcc	r3, lr, #32, 4
  a8:	00322e33 	eorseq	r2, r2, r3, lsr lr
  ac:	00aa8001 	adceq	r8, sl, r1
  b0:	00020000 	andeq	r0, r2, r0
  b4:	00000014 	andeq	r0, r0, r4, lsl r0
  b8:	00a10104 	adceq	r0, r1, r4, lsl #2
  bc:	7f880000 	svcvc	0x00880000
  c0:	80660030 	rsbhi	r0, r6, r0, lsr r0
  c4:	742f0030 	strtvc	r0, [pc], #-48	; cc <_start-0x2fff34>
  c8:	412f706d 	teqmi	pc, sp, rrx
  cc:	2d50534f 	ldclcs	3, cr5, [r0, #-316]	; 0xfffffec4
  d0:	6c6f6f74 	stclvs	15, cr6, [pc], #-464	; ffffff08 <__bss_end__+0xffcf5b04>
  d4:	69616863 	stmdbvs	r1!, {r0, r1, r5, r6, fp, sp, lr}^
  d8:	75622f6e 	strbvc	r2, [r2, #-3950]!	; 0xf6e
  dc:	2f646c69 	svccs	0x00646c69
  e0:	672f2e2e 	strvs	r2, [pc, -lr, lsr #28]!
  e4:	672f6363 	strvs	r6, [pc, -r3, ror #6]!
  e8:	342d6363 	strtcc	r6, [sp], #-867	; 0x363
  ec:	6c2f382e 	stcvs	8, cr3, [pc], #-184	; 3c <_start-0x2fffc4>
  f0:	63676269 	cmnvs	r7, #-1879048186	; 0x90000006
  f4:	6f632f63 	svcvs	0x00632f63
  f8:	6769666e 	strbvs	r6, [r9, -lr, ror #12]!
  fc:	6d72612f 	ldfvse	f6, [r2, #-188]!	; 0xffffff44
 100:	62696c2f 	rsbvs	r6, r9, #12032	; 0x2f00
 104:	6e756631 	mrcvs	6, 3, r6, cr5, cr1, {1}
 108:	532e7363 	teqpl	lr, #-1946157055	; 0x8c000001
 10c:	6d742f00 	ldclvs	15, cr2, [r4, #-0]
 110:	6f742f70 	svcvs	0x00742f70
 114:	68636c6f 	stmdavs	r3!, {r0, r1, r2, r3, r5, r6, sl, fp, sp, lr}^
 118:	2d6e6961 	stclcs	9, cr6, [lr, #-388]!	; 0xfffffe7c
 11c:	6c697562 	cfstr64vs	mvdx7, [r9], #-392	; 0xfffffe78
 120:	61652d64 	cmnvs	r5, r4, ror #26
 124:	672f6962 	strvs	r6, [pc, -r2, ror #18]!
 128:	342d6363 	strtcc	r6, [sp], #-867	; 0x363
 12c:	612f382e 	teqvs	pc, lr, lsr #16
 130:	652d6d72 	strvs	r6, [sp, #-3442]!	; 0xd72
 134:	2f696261 	svccs	0x00696261
 138:	6d756874 	ldclvs	8, cr6, [r5, #-464]!	; 0xfffffe30
 13c:	68742f62 	ldmdavs	r4!, {r1, r5, r6, r8, r9, sl, fp, sp}^
 140:	32626d75 	rsbcc	r6, r2, #7488	; 0x1d40
 144:	62696c2f 	rsbvs	r6, r9, #12032	; 0x2f00
 148:	00636367 	rsbeq	r6, r3, r7, ror #6
 14c:	20554e47 	subscs	r4, r5, r7, asr #28
 150:	32205341 	eorcc	r5, r0, #67108865	; 0x4000001
 154:	2e33322e 	cdpcs	2, 3, cr3, cr3, cr14, {1}
 158:	80010032 	andhi	r0, r1, r2, lsr r0
 15c:	000000aa 	andeq	r0, r0, sl, lsr #1
 160:	00280002 	eoreq	r0, r8, r2
 164:	01040000 	mrseq	r0, (UNDEF: 4)
 168:	00000153 	andeq	r0, r0, r3, asr r1
 16c:	00308068 	eorseq	r8, r0, r8, rrx
 170:	0030806a 	eorseq	r8, r0, sl, rrx
 174:	706d742f 	rsbvc	r7, sp, pc, lsr #8
 178:	534f412f 	movtpl	r4, #61743	; 0xf12f
 17c:	6f742d50 	svcvs	0x00742d50
 180:	68636c6f 	stmdavs	r3!, {r0, r1, r2, r3, r5, r6, sl, fp, sp, lr}^
 184:	2f6e6961 	svccs	0x006e6961
 188:	6c697562 	cfstr64vs	mvdx7, [r9], #-392	; 0xfffffe78
 18c:	2e2e2f64 	cdpcs	15, 2, cr2, cr14, cr4, {3}
 190:	6363672f 	cmnvs	r3, #12320768	; 0xbc0000
 194:	6363672f 	cmnvs	r3, #12320768	; 0xbc0000
 198:	382e342d 	stmdacc	lr!, {r0, r2, r3, r5, sl, ip, sp}
 19c:	62696c2f 	rsbvs	r6, r9, #12032	; 0x2f00
 1a0:	2f636367 	svccs	0x00636367
 1a4:	666e6f63 	strbtvs	r6, [lr], -r3, ror #30
 1a8:	612f6769 	teqvs	pc, r9, ror #14
 1ac:	6c2f6d72 	stcvs	13, cr6, [pc], #-456	; ffffffec <__bss_end__+0xffcf5be8>
 1b0:	66316269 	ldrtvs	r6, [r1], -r9, ror #4
 1b4:	73636e75 	cmnvc	r3, #1872	; 0x750
 1b8:	2f00532e 	svccs	0x0000532e
 1bc:	2f706d74 	svccs	0x00706d74
 1c0:	6c6f6f74 	stclvs	15, cr6, [pc], #-464	; fffffff8 <__bss_end__+0xffcf5bf4>
 1c4:	69616863 	stmdbvs	r1!, {r0, r1, r5, r6, fp, sp, lr}^
 1c8:	75622d6e 	strbvc	r2, [r2, #-3438]!	; 0xd6e
 1cc:	2d646c69 	stclcs	12, cr6, [r4, #-420]!	; 0xfffffe5c
 1d0:	69626165 	stmdbvs	r2!, {r0, r2, r5, r6, r8, sp, lr}^
 1d4:	6363672f 	cmnvs	r3, #12320768	; 0xbc0000
 1d8:	382e342d 	stmdacc	lr!, {r0, r2, r3, r5, sl, ip, sp}
 1dc:	6d72612f 	ldfvse	f6, [r2, #-188]!	; 0xffffff44
 1e0:	6261652d 	rsbvs	r6, r1, #188743680	; 0xb400000
 1e4:	68742f69 	ldmdavs	r4!, {r0, r3, r5, r6, r8, r9, sl, fp, sp}^
 1e8:	2f626d75 	svccs	0x00626d75
 1ec:	6d756874 	ldclvs	8, cr6, [r5, #-464]!	; 0xfffffe30
 1f0:	6c2f3262 	sfmvs	f3, 4, [pc], #-392	; 70 <_start-0x2fff90>
 1f4:	63676269 	cmnvs	r7, #-1879048186	; 0x90000006
 1f8:	4e470063 	cdpmi	0, 4, cr0, cr7, cr3, {3}
 1fc:	53412055 	movtpl	r2, #4181	; 0x1055
 200:	322e3220 	eorcc	r3, lr, #32, 4
 204:	00322e33 	eorseq	r2, r2, r3, lsr lr
 208:	00aa8001 	adceq	r8, sl, r1
 20c:	00020000 	andeq	r0, r2, r0
 210:	0000003c 	andeq	r0, r0, ip, lsr r0
 214:	01ca0104 	biceq	r0, sl, r4, lsl #2
 218:	806c0000 	rsbhi	r0, ip, r0
 21c:	80840030 	addhi	r0, r4, r0, lsr r0
 220:	742f0030 	strtvc	r0, [pc], #-48	; 228 <_start-0x2ffdd8>
 224:	412f706d 	teqmi	pc, sp, rrx
 228:	2d50534f 	ldclcs	3, cr5, [r0, #-316]	; 0xfffffec4
 22c:	6c6f6f74 	stclvs	15, cr6, [pc], #-464	; 64 <_start-0x2fff9c>
 230:	69616863 	stmdbvs	r1!, {r0, r1, r5, r6, fp, sp, lr}^
 234:	75622f6e 	strbvc	r2, [r2, #-3950]!	; 0xf6e
 238:	2f646c69 	svccs	0x00646c69
 23c:	672f2e2e 	strvs	r2, [pc, -lr, lsr #28]!
 240:	672f6363 	strvs	r6, [pc, -r3, ror #6]!
 244:	342d6363 	strtcc	r6, [sp], #-867	; 0x363
 248:	6c2f382e 	stcvs	8, cr3, [pc], #-184	; 198 <_start-0x2ffe68>
 24c:	63676269 	cmnvs	r7, #-1879048186	; 0x90000006
 250:	6f632f63 	svcvs	0x00632f63
 254:	6769666e 	strbvs	r6, [r9, -lr, ror #12]!
 258:	6d72612f 	ldfvse	f6, [r2, #-188]!	; 0xffffff44
 25c:	62696c2f 	rsbvs	r6, r9, #12032	; 0x2f00
 260:	6e756631 	mrcvs	6, 3, r6, cr5, cr1, {1}
 264:	532e7363 	teqpl	lr, #-1946157055	; 0x8c000001
 268:	6d742f00 	ldclvs	15, cr2, [r4, #-0]
 26c:	6f742f70 	svcvs	0x00742f70
 270:	68636c6f 	stmdavs	r3!, {r0, r1, r2, r3, r5, r6, sl, fp, sp, lr}^
 274:	2d6e6961 	stclcs	9, cr6, [lr, #-388]!	; 0xfffffe7c
 278:	6c697562 	cfstr64vs	mvdx7, [r9], #-392	; 0xfffffe78
 27c:	61652d64 	cmnvs	r5, r4, ror #26
 280:	672f6962 	strvs	r6, [pc, -r2, ror #18]!
 284:	342d6363 	strtcc	r6, [sp], #-867	; 0x363
 288:	612f382e 	teqvs	pc, lr, lsr #16
 28c:	652d6d72 	strvs	r6, [sp, #-3442]!	; 0xd72
 290:	2f696261 	svccs	0x00696261
 294:	6d756874 	ldclvs	8, cr6, [r5, #-464]!	; 0xfffffe30
 298:	68742f62 	ldmdavs	r4!, {r1, r5, r6, r8, r9, sl, fp, sp}^
 29c:	32626d75 	rsbcc	r6, r2, #7488	; 0x1d40
 2a0:	62696c2f 	rsbvs	r6, r9, #12032	; 0x2f00
 2a4:	00636367 	rsbeq	r6, r3, r7, ror #6
 2a8:	20554e47 	subscs	r4, r5, r7, asr #28
 2ac:	32205341 	eorcc	r5, r0, #67108865	; 0x4000001
 2b0:	2e33322e 	cdpcs	2, 3, cr3, cr3, cr14, {1}
 2b4:	80010032 	andhi	r0, r1, r2, lsr r0

Disassembly of section .debug_abbrev:

00000000 <.debug_abbrev>:
   0:	10001101 	andne	r1, r0, r1, lsl #2
   4:	12011106 	andne	r1, r1, #-2147483647	; 0x80000001
   8:	1b080301 	blne	200c14 <_start-0xff3ec>
   c:	13082508 	movwne	r2, #34056	; 0x8508
  10:	00000005 	andeq	r0, r0, r5
  14:	10001101 	andne	r1, r0, r1, lsl #2
  18:	12011106 	andne	r1, r1, #-2147483647	; 0x80000001
  1c:	1b080301 	blne	200c28 <_start-0xff3d8>
  20:	13082508 	movwne	r2, #34056	; 0x8508
  24:	00000005 	andeq	r0, r0, r5
  28:	10001101 	andne	r1, r0, r1, lsl #2
  2c:	12011106 	andne	r1, r1, #-2147483647	; 0x80000001
  30:	1b080301 	blne	200c3c <_start-0xff3c4>
  34:	13082508 	movwne	r2, #34056	; 0x8508
  38:	00000005 	andeq	r0, r0, r5
  3c:	10001101 	andne	r1, r0, r1, lsl #2
  40:	12011106 	andne	r1, r1, #-2147483647	; 0x80000001
  44:	1b080301 	blne	200c50 <_start-0xff3b0>
  48:	13082508 	movwne	r2, #34056	; 0x8508
  4c:	00000005 	andeq	r0, r0, r5

Disassembly of section .debug_aranges:

00000000 <.debug_aranges>:
   0:	0000001c 	andeq	r0, r0, ip, lsl r0
   4:	00000002 	andeq	r0, r0, r2
   8:	00040000 	andeq	r0, r4, r0
   c:	00000000 	andeq	r0, r0, r0
  10:	00307edc 	ldrsbteq	r7, [r0], -ip
  14:	000000aa 	andeq	r0, r0, sl, lsr #1
	...
  20:	0000001c 	andeq	r0, r0, ip, lsl r0
  24:	00ae0002 	adceq	r0, lr, r2
  28:	00040000 	andeq	r0, r4, r0
  2c:	00000000 	andeq	r0, r0, r0
  30:	00307f88 	eorseq	r7, r0, r8, lsl #31
  34:	000000de 	ldrdeq	r0, [r0], -lr
	...
  40:	0000001c 	andeq	r0, r0, ip, lsl r0
  44:	015c0002 	cmpeq	ip, r2
  48:	00040000 	andeq	r0, r4, r0
  4c:	00000000 	andeq	r0, r0, r0
  50:	00308068 	eorseq	r8, r0, r8, rrx
  54:	00000002 	andeq	r0, r0, r2
	...
  60:	0000001c 	andeq	r0, r0, ip, lsl r0
  64:	020a0002 	andeq	r0, sl, #2
  68:	00040000 	andeq	r0, r4, r0
  6c:	00000000 	andeq	r0, r0, r0
  70:	0030806c 	eorseq	r8, r0, ip, rrx
  74:	00000018 	andeq	r0, r0, r8, lsl r0
	...
